 tree_sitter_cli_binding

 Timestamp is 5ba1d217 (Wed Sep 19 14:35:35 2018)

 Preferred load address is 0000000180000000

 Start         Length     Name                   Class
 0001:00000000 00000950H .text$di                CODE
 0001:00000950 00071e60H .text$mn                CODE
 0001:000727b0 00000020H .text$mn$00             CODE
 0001:000727d0 00000270H .text$x                 CODE
 0001:00072a40 0000010fH .text$yd                CODE
 0002:00000000 00000280H .idata$5                DATA
 0002:00000280 00000010H .00cfg                  DATA
 0002:00000290 00000008H .CRT$XCA                DATA
 0002:00000298 00000020H .CRT$XCU                DATA
 0002:000002b8 00000008H .CRT$XCZ                DATA
 0002:000002c0 00000008H .CRT$XIA                DATA
 0002:000002c8 00000020H .CRT$XIC                DATA
 0002:000002e8 00000008H .CRT$XIZ                DATA
 0002:000002f0 00000008H .CRT$XLA                DATA
 0002:000002f8 00000008H .CRT$XLZ                DATA
 0002:00000300 00000008H .CRT$XPA                DATA
 0002:00000308 00000010H .CRT$XPX                DATA
 0002:00000318 00000008H .CRT$XPXA               DATA
 0002:00000320 00000008H .CRT$XPZ                DATA
 0002:00000328 00000008H .CRT$XTA                DATA
 0002:00000330 00000010H .CRT$XTZ                DATA
 0002:00000340 0004f458H .rdata                  DATA
 0002:0004f798 00000028H .rdata$T                DATA
 0002:0004f7c0 0000048cH .rdata$r                DATA
 0002:0004fc4c 000004c4H .rdata$zzzdbg           DATA
 0002:00050110 00000008H .rtc$IAA                DATA
 0002:00050118 00000008H .rtc$IZZ                DATA
 0002:00050120 00000008H .rtc$TAA                DATA
 0002:00050128 00000008H .rtc$TZZ                DATA
 0002:00050130 00006348H .xdata                  DATA
 0002:00056478 000002acH .xdata$x                DATA
 0002:00056724 00000020H .didat$2                DATA
 0002:00056744 00000024H .didat$3                DATA
 0002:00056768 00000168H .didat$4                DATA
 0002:000568d0 00000ac0H .didat$6                DATA
 0002:00057390 00000170H .didat$7                DATA
 0002:00057500 00000074H .edata                  DATA
 0002:00057574 00000014H .idata$2                DATA
 0002:00057588 00000018H .idata$3                DATA
 0002:000575a0 00000280H .idata$4                DATA
 0002:00057820 000005ccH .idata$6                DATA
 0003:00000000 00000990H .data                   DATA
 0003:00000990 000008c0H .data$r                 DATA
 0003:00001250 00000170H .didat$5                DATA
 0003:000013c0 00001308H .bss                    DATA
 0004:00000000 00006024H .pdata                  DATA
 0005:00000000 00000084H .gfids$x                DATA
 0005:00000084 00000060H .gfids$y                DATA
 0006:00000000 00000008H .tls                    DATA
 0006:00000008 00000010H .stls                   DATA
 0006:00000018 00000004H .tls$                   DATA
 0006:0000001c 00000001H .tls$ZZZ                DATA
 0007:00000000 00000060H .rsrc$01                DATA
 0007:00000060 00000180H .rsrc$02                DATA

  Address         Publics by Value              Rva+Base               Lib:Object

 0000:00000000       __guard_longjmp_count      0000000000000000     <absolute>
 0000:00000000       __guard_longjmp_table      0000000000000000     <absolute>
 0000:00000000       __guard_iat_count          0000000000000000     <absolute>
 0000:00000000       __guard_iat_table          0000000000000000     <absolute>
 0000:00000000       __dynamic_value_reloc_table 0000000000000000     <absolute>
 0000:00000000       __guard_fids_table         0000000000000000     <absolute>
 0000:00000000       __guard_fids_count         0000000000000000     <absolute>
 0000:00000000       ___safe_se_handler_table   0000000000000000     <absolute>
 0000:00000000       ___safe_se_handler_count   0000000000000000     <absolute>
 0000:00000100       __guard_flags              0000000000000100     <absolute>
 0000:00000000       __ImageBase                0000000180000000     <linker-defined>
 0001:00000a00       ?New@?$Factory@VFunctionTemplate@v8@@@imp@Nan@@SA?AV?$Local@VFunctionTemplate@v8@@@v8@@P6AXAEBV?$FunctionCallbackInfo@VValue@v8@@@3@@ZV?$Local@VValue@v8@@@5@V?$Local@VSignature@v8@@@5@@Z 0000000180001a00 f i binding.obj
 0001:00000bd0       ?InitAll@node_tree_sitter_cli@@YAXV?$Local@VObject@v8@@@v8@@@Z 0000000180001bd0 f   binding.obj
 0001:00000cf0       ?Generate@node_tree_sitter_cli@@YAXAEBV?$FunctionCallbackInfo@VValue@v8@@@Nan@@@Z 0000000180001cf0 f   generate.obj
 0001:00000ed0       ?_Deallocate@std@@YAXPEAX_K1@Z 0000000180001ed0 f i language.obj
 0001:00000f40       ?ThrowError@Nan@@YAXPEBD@Z 0000000180001f40 f i language.obj
 0001:00000fd0       ?LoadLanguage@node_tree_sitter_cli@@YAXAEBV?$FunctionCallbackInfo@VValue@v8@@@Nan@@@Z 0000000180001fd0 f   language.obj
 0001:00001590       ?NewLanguage@node_tree_sitter_cli@@YAXAEBV?$FunctionCallbackInfo@VValue@v8@@@Nan@@@Z 0000000180002590 f   language.obj
 0001:000015d0       ?InitLanguage@node_tree_sitter_cli@@YAXV?$Local@VObject@v8@@@v8@@@Z 00000001800025d0 f   language.obj
 0001:000016c0       ??1?$basic_string@DU?$char_traits@D@std@@V?$allocator@D@2@@std@@QEAA@XZ 00000001800026c0 f i language.obj
 0001:00001750       ??0?$basic_string@DU?$char_traits@D@std@@V?$allocator@D@2@@std@@QEAA@$$QEAV01@@Z 0000000180002750 f i language.obj
 0001:00001780       ??0?$basic_string@DU?$char_traits@D@std@@V?$allocator@D@2@@std@@QEAA@PEBD@Z 0000000180002780 f i language.obj
 0001:000017c0       ?_Tidy@?$basic_string@DU?$char_traits@D@std@@V?$allocator@D@2@@std@@QEAAX_N_K@Z 00000001800027c0 f i language.obj
 0001:00001870       ?assign@?$basic_string@DU?$char_traits@D@std@@V?$allocator@D@2@@std@@QEAAAEAV12@PEBD_K@Z 0000000180002870 f i language.obj
 0001:000019a0       ?assign@?$basic_string@DU?$char_traits@D@std@@V?$allocator@D@2@@std@@QEAAAEAV12@AEBV12@_K1@Z 00000001800029a0 f i language.obj
 0001:00001ad0       ?append@?$basic_string@DU?$char_traits@D@std@@V?$allocator@D@2@@std@@QEAAAEAV12@PEBD_K@Z 0000000180002ad0 f i language.obj
 0001:00001c20       ?append@?$basic_string@DU?$char_traits@D@std@@V?$allocator@D@2@@std@@QEAAAEAV12@AEBV12@_K1@Z 0000000180002c20 f i language.obj
 0001:00001d50       ?_Assign_rv@?$basic_string@DU?$char_traits@D@std@@V?$allocator@D@2@@std@@QEAAX$$QEAV12@@Z 0000000180002d50 f i language.obj
 0001:00001dd0       ?erase@?$basic_string@DU?$char_traits@D@std@@V?$allocator@D@2@@std@@QEAAAEAV12@_K0@Z 0000000180002dd0 f i language.obj
 0001:00001ea0       ?_Copy@?$basic_string@DU?$char_traits@D@std@@V?$allocator@D@2@@std@@QEAAX_K0@Z 0000000180002ea0 f i language.obj
 0001:00002020       ??$?HDU?$char_traits@D@std@@V?$allocator@D@1@@std@@YA?AV?$basic_string@DU?$char_traits@D@std@@V?$allocator@D@2@@0@PEBDAEBV10@@Z 0000000180003020 f i language.obj
 0001:000020d0       ??0?$_Wrap_alloc@V?$allocator@D@std@@@std@@QEAA@XZ 00000001800030d0 f i language.obj
 0001:000020e0       ?reserve@?$basic_string@DU?$char_traits@D@std@@V?$allocator@D@2@@std@@QEAAX_K@Z 00000001800030e0 f i language.obj
 0001:00002190       ??Y?$basic_string@DU?$char_traits@D@std@@V?$allocator@D@2@@std@@QEAAAEAV01@PEBD@Z 0000000180003190 f i language.obj
 0001:000021b0       ??Y?$basic_string@DU?$char_traits@D@std@@V?$allocator@D@2@@std@@QEAAAEAV01@AEBV01@@Z 00000001800031b0 f i language.obj
 0001:00002270       ??0Utf8String@Nan@@QEAA@V?$Local@VValue@v8@@@v8@@@Z 0000000180003270 f i rule_builder.obj
 0001:00002380       ?SetNamedPropertyHandler@Nan@@YAXV?$Local@VObjectTemplate@v8@@@v8@@P6AXV?$Local@VString@v8@@@3@AEBV?$PropertyCallbackInfo@VValue@v8@@@1@@ZP6AX1V?$Local@VValue@v8@@@3@2@ZP6AX1AEBV?$PropertyCallbackInfo@VInteger@v8@@@1@@ZP6AX1AEBV?$PropertyCallbackInfo@VBoolean@v8@@@1@@ZP6AXAEBV?$PropertyCallbackInfo@VArray@v8@@@1@@Z4@Z 0000000180003380 f i rule_builder.obj
 0001:000024f0       ?build_symbol@rule_builder@node_tree_sitter_cli@@YA?AV?$Local@VObject@v8@@@v8@@V?$Local@VString@v8@@@4@@Z 00000001800034f0 f   rule_builder.obj
 0001:00002b60       ?Init@rule_builder@node_tree_sitter_cli@@YAXV?$Local@VObject@v8@@@v8@@@Z 0000000180003b60 f   rule_builder.obj
 0001:00002cd0       ??$?HDU?$char_traits@D@std@@V?$allocator@D@1@@std@@YA?AV?$basic_string@DU?$char_traits@D@std@@V?$allocator@D@2@@0@$$QEAV10@PEBD@Z 0000000180003cd0 f i rule_builder.obj
 0001:00002d80       ??1CharacterSet@rules@tree_sitter@@QEAA@XZ 0000000180003d80 f i compiler:compile.obj
 0001:00002de0       ts_compile_grammar         0000000180003de0 f   compiler:compile.obj
 0001:00003230       ??1PrepareGrammarResult@prepare_grammar@tree_sitter@@QEAA@XZ 0000000180004230 f i compiler:compile.obj
 0001:00003310       ??1InputGrammar@tree_sitter@@QEAA@XZ 0000000180004310 f i compiler:compile.obj
 0001:00003400       ??1SyntaxGrammar@tree_sitter@@QEAA@XZ 0000000180004400 f i compiler:compile.obj
 0001:00003500       ??1LexicalGrammar@tree_sitter@@QEAA@XZ 0000000180004500 f i compiler:compile.obj
 0001:00003560       ??1ParseTable@tree_sitter@@QEAA@XZ 0000000180004560 f i compiler:compile.obj
 0001:00003640       ??1?$set@USymbol@rules@tree_sitter@@U?$less@USymbol@rules@tree_sitter@@@std@@V?$allocator@USymbol@rules@tree_sitter@@@5@@std@@QEAA@XZ 0000000180004640 f i compiler:compile.obj
 0001:00003640       ??1?$set@HU?$less@H@std@@V?$allocator@H@2@@std@@QEAA@XZ 0000000180004640 f i compiler:c_code.obj
 0001:00003670       ??1?$vector@ULexicalVariable@tree_sitter@@V?$allocator@ULexicalVariable@tree_sitter@@@std@@@std@@QEAA@XZ 0000000180004670 f i compiler:compile.obj
 0001:000036d0       ??1?$vector@UProductionStep@tree_sitter@@V?$allocator@UProductionStep@tree_sitter@@@std@@@std@@QEAA@XZ 00000001800046d0 f i compiler:compile.obj
 0001:00003730       ??1?$vector@UVariable@tree_sitter@@V?$allocator@UVariable@tree_sitter@@@std@@@std@@QEAA@XZ 0000000180004730 f i compiler:compile.obj
 0001:00003770       ??0?$basic_string@DU?$char_traits@D@std@@V?$allocator@D@2@@std@@QEAA@AEBV01@@Z 0000000180004770 f i compiler:compile.obj
 0001:00003770       ??0Pattern@rules@tree_sitter@@QEAA@AEBU012@@Z 0000000180004770 f i compiler:rule.obj
 0001:00003770       ??0NamedSymbol@rules@tree_sitter@@QEAA@AEBU012@@Z 0000000180004770 f i compiler:rule.obj
 0001:00003770       ??0String@rules@tree_sitter@@QEAA@AEBU012@@Z 0000000180004770 f i compiler:rule.obj
 0001:000037b0       ?_Tidy@?$vector@ULexState@tree_sitter@@V?$allocator@ULexState@tree_sitter@@@std@@@std@@IEAAXXZ 00000001800047b0 f i compiler:compile.obj
 0001:00003840       ?_Tidy@?$vector@URule@rules@tree_sitter@@V?$allocator@URule@rules@tree_sitter@@@std@@@std@@IEAAXXZ 0000000180004840 f i compiler:compile.obj
 0001:000038c0       ?deallocate@?$_Wrap_alloc@V?$allocator@V?$vector@UAlias@rules@tree_sitter@@V?$allocator@UAlias@rules@tree_sitter@@@std@@@std@@@std@@@std@@QEAAXPEAV?$vector@UAlias@rules@tree_sitter@@V?$allocator@UAlias@rules@tree_sitter@@@std@@@2@_K@Z 00000001800048c0 f i compiler:compile.obj
 0001:00003930       ?deallocate@?$_Wrap_alloc@V?$allocator@U?$pair@_KUParseTableEntry@tree_sitter@@@std@@@std@@@std@@QEAAXPEAU?$pair@_KUParseTableEntry@tree_sitter@@@2@_K@Z 0000000180004930 f i compiler:c_code.obj
 0001:00003930       ?deallocate@?$_Wrap_alloc@V?$allocator@UParseState@tree_sitter@@@std@@@std@@QEAAXPEAUParseState@tree_sitter@@_K@Z 0000000180004930 f i compiler:compile.obj
 0001:00003930       ?deallocate@?$_Wrap_alloc@V?$allocator@UAlias@rules@tree_sitter@@@std@@@std@@QEAAXPEAUAlias@rules@tree_sitter@@_K@Z 0000000180004930 f i compiler:compile.obj
 0001:000039a0       ?deallocate@?$_Wrap_alloc@V?$allocator@ULexState@tree_sitter@@@std@@@std@@QEAAXPEAULexState@tree_sitter@@_K@Z 00000001800049a0 f i compiler:compile.obj
 0001:000039a0       ?deallocate@?$_Wrap_alloc@V?$allocator@UProduction@tree_sitter@@@std@@@std@@QEAAXPEAUProduction@tree_sitter@@_K@Z 00000001800049a0 f i compiler:compile.obj
 0001:00003a10       ?deallocate@?$_Wrap_alloc@V?$allocator@ULexicalVariable@tree_sitter@@@std@@@std@@QEAAXPEAULexicalVariable@tree_sitter@@_K@Z 0000000180004a10 f i compiler:compile.obj
 0001:00003a80       ?deallocate@?$_Wrap_alloc@V?$allocator@UParseAction@tree_sitter@@@std@@@std@@QEAAXPEAUParseAction@tree_sitter@@_K@Z 0000000180004a80 f i compiler:compile.obj
 0001:00003a80       ?deallocate@?$_Wrap_alloc@V?$allocator@UExternalToken@tree_sitter@@@std@@@std@@QEAAXPEAUExternalToken@tree_sitter@@_K@Z 0000000180004a80 f i compiler:compile.obj
 0001:00003af0       ?erase@?$_Tree@V?$_Tset_traits@V?$set@USymbol@rules@tree_sitter@@U?$less@USymbol@rules@tree_sitter@@@std@@V?$allocator@USymbol@rules@tree_sitter@@@5@@std@@U?$less@V?$set@USymbol@rules@tree_sitter@@U?$less@USymbol@rules@tree_sitter@@@std@@V?$allocator@USymbol@rules@tree_sitter@@@5@@std@@@2@V?$allocator@V?$set@USymbol@rules@tree_sitter@@U?$less@USymbol@rules@tree_sitter@@@std@@V?$allocator@USymbol@rules@tree_sitter@@@5@@std@@@2@$0A@@std@@@std@@QEAA?AV?$_Tree_const_iterator@V?$_Tree_val@U?$_Tree_simple_types@V?$set@USymbol@rules@tree_sitter@@U?$less@USymbol@rules@tree_sitter@@@std@@V?$allocator@USymbol@rules@tree_sitter@@@5@@std@@@std@@@std@@@2@V32@0@Z 0000000180004af0 f i compiler:compile.obj
 0001:00003bf0       ?erase@?$_Tree@V?$_Tset_traits@HU?$less@H@std@@V?$allocator@H@2@$0A@@std@@@std@@QEAA?AV?$_Tree_const_iterator@V?$_Tree_val@U?$_Tree_simple_types@H@std@@@std@@@2@V32@0@Z 0000000180004bf0 f i compiler:c_code.obj
 0001:00003bf0       ?erase@?$_Tree@V?$_Tset_traits@IU?$less@I@std@@V?$allocator@I@2@$0A@@std@@@std@@QEAA?AV?$_Tree_const_iterator@V?$_Tree_val@U?$_Tree_simple_types@I@std@@@std@@@2@V32@0@Z 0000000180004bf0 f i compiler:compile.obj
 0001:00003bf0       ?erase@?$_Tree@V?$_Tset_traits@USymbol@rules@tree_sitter@@U?$less@USymbol@rules@tree_sitter@@@std@@V?$allocator@USymbol@rules@tree_sitter@@@5@$0A@@std@@@std@@QEAA?AV?$_Tree_const_iterator@V?$_Tree_val@U?$_Tree_simple_types@USymbol@rules@tree_sitter@@@std@@@std@@@2@V32@0@Z 0000000180004bf0 f i compiler:compile.obj
 0001:00003bf0       ?erase@?$_Tree@V?$_Tmap_traits@H_KU?$less@H@std@@V?$allocator@U?$pair@$$CBH_K@std@@@2@$0A@@std@@@std@@QEAA?AV?$_Tree_iterator@V?$_Tree_val@U?$_Tree_simple_types@U?$pair@$$CBH_K@std@@@std@@@std@@@2@V?$_Tree_const_iterator@V?$_Tree_val@U?$_Tree_simple_types@U?$pair@$$CBH_K@std@@@std@@@std@@@2@0@Z 0000000180004bf0 f i compiler:compile.obj
 0001:00003cd0       ?deallocate@?$_Wrap_alloc@V?$allocator@V?$unordered_set@UNamedSymbol@rules@tree_sitter@@U?$hash@UNamedSymbol@rules@tree_sitter@@@std@@U?$equal_to@UNamedSymbol@rules@tree_sitter@@@5@V?$allocator@UNamedSymbol@rules@tree_sitter@@@5@@std@@@std@@@std@@QEAAXPEAV?$unordered_set@UNamedSymbol@rules@tree_sitter@@U?$hash@UNamedSymbol@rules@tree_sitter@@@std@@U?$equal_to@UNamedSymbol@rules@tree_sitter@@@5@V?$allocator@UNamedSymbol@rules@tree_sitter@@@5@@2@_K@Z 0000000180004cd0 f i compiler:compile.obj
 0001:00003cd0       ?deallocate@?$_Wrap_alloc@V?$allocator@USyntaxVariable@tree_sitter@@@std@@@std@@QEAAXPEAUSyntaxVariable@tree_sitter@@_K@Z 0000000180004cd0 f i compiler:compile.obj
 0001:00003d40       ?deallocate@?$_Wrap_alloc@V?$allocator@UProductionStep@tree_sitter@@@std@@@std@@QEAAXPEAUProductionStep@tree_sitter@@_K@Z 0000000180004d40 f i compiler:compile.obj
 0001:00003db0       ?deallocate@?$_Wrap_alloc@V?$allocator@UVariable@tree_sitter@@@std@@@std@@QEAAXPEAUVariable@tree_sitter@@_K@Z 0000000180004db0 f i compiler:compile.obj
 0001:00003e20       ?deallocate@?$_Wrap_alloc@V?$allocator@URule@rules@tree_sitter@@@std@@@std@@QEAAXPEAURule@rules@tree_sitter@@_K@Z 0000000180004e20 f i compiler:compile.obj
 0001:00003e20       ?deallocate@?$_Wrap_alloc@V?$allocator@UNonTerminalQueueEntry@build_tables@tree_sitter@@@std@@@std@@QEAAXPEAUNonTerminalQueueEntry@build_tables@tree_sitter@@_K@Z 0000000180004e20 f i compiler:parse_item_set_builder.obj
 0001:00003e90       ?deallocate@?$_Wrap_alloc@U?$_Wrap_alloc@V?$allocator@V?$_List_unchecked_const_iterator@V?$_List_val@U?$_List_simple_types@_K@std@@@std@@U_Iterator_base0@2@@std@@@std@@@std@@@std@@QEAAXPEAV?$_List_unchecked_const_iterator@V?$_List_val@U?$_List_simple_types@_K@std@@@std@@U_Iterator_base0@2@@2@_K@Z 0000000180004e90 f i compiler:parse_table_builder.obj
 0001:00003e90       ?deallocate@?$_Wrap_alloc@U?$_Wrap_alloc@V?$allocator@V?$_List_unchecked_const_iterator@V?$_List_val@U?$_List_simple_types@V?$basic_string@DU?$char_traits@D@std@@V?$allocator@D@2@@std@@@std@@@std@@U_Iterator_base0@2@@std@@@std@@@std@@@std@@QEAAXPEAV?$_List_unchecked_const_iterator@V?$_List_val@U?$_List_simple_types@V?$basic_string@DU?$char_traits@D@std@@V?$allocator@D@2@@std@@@std@@@std@@U_Iterator_base0@2@@2@_K@Z 0000000180004e90 f i compiler:c_code.obj
 0001:00003e90       ?deallocate@?$_Wrap_alloc@U?$_Wrap_alloc@V?$allocator@V?$_List_unchecked_iterator@V?$_List_val@U?$_List_simple_types@U?$pair@$$CBVLexItemSet@build_tables@tree_sitter@@_J@std@@@std@@@std@@@std@@@std@@@std@@@std@@QEAAXPEAV?$_List_unchecked_iterator@V?$_List_val@U?$_List_simple_types@U?$pair@$$CBVLexItemSet@build_tables@tree_sitter@@_J@std@@@std@@@std@@@2@_K@Z 0000000180004e90 f i compiler:lex_table_builder.obj
 0001:00003e90       ?deallocate@?$_Wrap_alloc@U?$_Wrap_alloc@V?$allocator@V?$_List_unchecked_iterator@V?$_List_val@U?$_List_simple_types@U?$pair@$$CB_KV?$set@_KU?$less@_K@std@@V?$allocator@_K@2@@std@@@std@@@std@@@std@@@std@@@std@@@std@@@std@@QEAAXPEAV?$_List_unchecked_iterator@V?$_List_val@U?$_List_simple_types@U?$pair@$$CB_KV?$set@_KU?$less@_K@std@@V?$allocator@_K@2@@std@@@std@@@std@@@std@@@2@_K@Z 0000000180004e90 f i compiler:parse_table_builder.obj
 0001:00003e90       ?deallocate@?$_Wrap_alloc@U?$_Wrap_alloc@V?$allocator@V?$_List_unchecked_iterator@V?$_List_val@U?$_List_simple_types@U?$pair@$$CBUParseItemSet@build_tables@tree_sitter@@_K@std@@@std@@@std@@@std@@@std@@@std@@@std@@QEAAXPEAV?$_List_unchecked_iterator@V?$_List_val@U?$_List_simple_types@U?$pair@$$CBUParseItemSet@build_tables@tree_sitter@@_K@std@@@std@@@std@@@2@_K@Z 0000000180004e90 f i compiler:parse_table_builder.obj
 0001:00003e90       ?deallocate@?$_Wrap_alloc@U?$_Wrap_alloc@V?$allocator@V?$_List_unchecked_iterator@V?$_List_val@U?$_List_simple_types@U?$pair@$$CBU?$pair@HH@std@@V?$unordered_set@_KU?$hash@_K@std@@U?$equal_to@_K@2@V?$allocator@_K@2@@2@@std@@@std@@@std@@@std@@@std@@@std@@@std@@QEAAXPEAV?$_List_unchecked_iterator@V?$_List_val@U?$_List_simple_types@U?$pair@$$CBU?$pair@HH@std@@V?$unordered_set@_KU?$hash@_K@std@@U?$equal_to@_K@2@V?$allocator@_K@2@@2@@std@@@std@@@std@@@2@_K@Z 0000000180004e90 f i compiler:parse_table_builder.obj
 0001:00003e90       ?deallocate@?$_Wrap_alloc@V?$allocator@PEAUParseState@tree_sitter@@@std@@@std@@QEAAXPEAPEAUParseState@tree_sitter@@_K@Z 0000000180004e90 f i compiler:lex_table_builder.obj
 0001:00003e90       ?deallocate@?$_Wrap_alloc@V?$allocator@USymbol@rules@tree_sitter@@@std@@@std@@QEAAXPEAUSymbol@rules@tree_sitter@@_K@Z 0000000180004e90 f i compiler:parse_table_builder.obj
 0001:00003e90       ?deallocate@?$_Wrap_alloc@V?$allocator@UCharacterRange@rules@tree_sitter@@@std@@@std@@QEAAXPEAUCharacterRange@rules@tree_sitter@@_K@Z 0000000180004e90 f i compiler:c_code.obj
 0001:00003e90       ?deallocate@?$_Wrap_alloc@U?$_Wrap_alloc@V?$allocator@V?$_List_unchecked_iterator@V?$_List_val@U?$_List_simple_types@U?$pair@$$CB_KH@std@@@std@@@std@@@std@@@std@@@std@@@std@@QEAAXPEAV?$_List_unchecked_iterator@V?$_List_val@U?$_List_simple_types@U?$pair@$$CB_KH@std@@@std@@@std@@@2@_K@Z 0000000180004e90 f i compiler:parse_table_builder.obj
 0001:00003e90       ?deallocate@?$_Wrap_alloc@U?$_Wrap_alloc@V?$allocator@V?$_List_unchecked_iterator@V?$_List_val@U?$_List_simple_types@U?$pair@$$CBUSymbol@rules@tree_sitter@@UAlias@23@@std@@@std@@@std@@@std@@@std@@@std@@@std@@QEAAXPEAV?$_List_unchecked_iterator@V?$_List_val@U?$_List_simple_types@U?$pair@$$CBUSymbol@rules@tree_sitter@@UAlias@23@@std@@@std@@@std@@@2@_K@Z 0000000180004e90 f i compiler:compile.obj
 0001:00003e90       ?deallocate@?$_Wrap_alloc@U?$_Wrap_alloc@V?$allocator@V?$_List_unchecked_const_iterator@V?$_List_val@U?$_List_simple_types@VLexItem@build_tables@tree_sitter@@@std@@@std@@U_Iterator_base0@2@@std@@@std@@@std@@@std@@QEAAXPEAV?$_List_unchecked_const_iterator@V?$_List_val@U?$_List_simple_types@VLexItem@build_tables@tree_sitter@@@std@@@std@@U_Iterator_base0@2@@2@_K@Z 0000000180004e90 f i compiler:lex_table_builder.obj
 0001:00003e90       ?deallocate@?$_Wrap_alloc@V?$allocator@PEBUParseItemSet@build_tables@tree_sitter@@@std@@@std@@QEAAXPEAPEBUParseItemSet@build_tables@tree_sitter@@_K@Z 0000000180004e90 f i compiler:parse_table_builder.obj
 0001:00003e90       ?deallocate@?$_Wrap_alloc@U?$_Wrap_alloc@V?$allocator@V?$_List_unchecked_const_iterator@V?$_List_val@U?$_List_simple_types@UNamedSymbol@rules@tree_sitter@@@std@@@std@@U_Iterator_base0@2@@std@@@std@@@std@@@std@@QEAAXPEAV?$_List_unchecked_const_iterator@V?$_List_val@U?$_List_simple_types@UNamedSymbol@rules@tree_sitter@@@std@@@std@@U_Iterator_base0@2@@2@_K@Z 0000000180004e90 f i compiler:compile.obj
 0001:00003e90       ?deallocate@?$_Wrap_alloc@V?$allocator@PEBUProduction@tree_sitter@@@std@@@std@@QEAAXPEAPEBUProduction@tree_sitter@@_K@Z 0000000180004e90 f i compiler:parse_item_set_builder.obj
 0001:00003e90       ?deallocate@?$_Wrap_alloc@U?$_Wrap_alloc@V?$allocator@V?$_List_unchecked_iterator@V?$_List_val@U?$_List_simple_types@U?$pair@$$CBUSymbol@rules@tree_sitter@@VLookaheadSet@build_tables@3@@std@@@std@@@std@@@std@@@std@@@std@@@std@@QEAAXPEAV?$_List_unchecked_iterator@V?$_List_val@U?$_List_simple_types@U?$pair@$$CBUSymbol@rules@tree_sitter@@VLookaheadSet@build_tables@3@@std@@@std@@@std@@@2@_K@Z 0000000180004e90 f i compiler:parse_table_builder.obj
 0001:00003e90       ?deallocate@?$_Wrap_alloc@U?$_Wrap_alloc@V?$allocator@V?$_List_unchecked_iterator@V?$_List_val@U?$_List_simple_types@U?$pair@$$CBHUFollowSetInfo@build_tables@tree_sitter@@@std@@@std@@@std@@@std@@@std@@@std@@@std@@QEAAXPEAV?$_List_unchecked_iterator@V?$_List_val@U?$_List_simple_types@U?$pair@$$CBHUFollowSetInfo@build_tables@tree_sitter@@@std@@@std@@@std@@@2@_K@Z 0000000180004e90 f i compiler:parse_item_set_builder.obj
 0001:00003e90       ?deallocate@?$_Wrap_alloc@V?$allocator@_K@std@@@std@@QEAAXPEA_K_K@Z 0000000180004e90 f i compiler:parse_table_builder.obj
 0001:00003f00       ?clear@?$list@U?$pair@$$CBUSymbol@rules@tree_sitter@@UAlias@23@@std@@V?$allocator@U?$pair@$$CBUSymbol@rules@tree_sitter@@UAlias@23@@std@@@2@@std@@QEAAXXZ 0000000180004f00 f i compiler:compile.obj
 0001:00003fe0       ?erase@?$_Tree@V?$_Tset_traits@V?$set@USymbol@rules@tree_sitter@@U?$less@USymbol@rules@tree_sitter@@@std@@V?$allocator@USymbol@rules@tree_sitter@@@5@@std@@U?$less@V?$set@USymbol@rules@tree_sitter@@U?$less@USymbol@rules@tree_sitter@@@std@@V?$allocator@USymbol@rules@tree_sitter@@@5@@std@@@2@V?$allocator@V?$set@USymbol@rules@tree_sitter@@U?$less@USymbol@rules@tree_sitter@@@std@@V?$allocator@USymbol@rules@tree_sitter@@@5@@std@@@2@$0A@@std@@@std@@QEAA?AV?$_Tree_const_iterator@V?$_Tree_val@U?$_Tree_simple_types@V?$set@USymbol@rules@tree_sitter@@U?$less@USymbol@rules@tree_sitter@@@std@@V?$allocator@USymbol@rules@tree_sitter@@@5@@std@@@std@@@std@@@2@V32@@Z 0000000180004fe0 f i compiler:compile.obj
 0001:000043a0       ?clear@?$_Tree@V?$_Tmap_traits@H_KU?$less@H@std@@V?$allocator@U?$pair@$$CBH_K@std@@@2@$0A@@std@@@std@@QEAAXXZ 00000001800053a0 f i compiler:compile.obj
 0001:000043a0       ?clear@?$_Tree@V?$_Tset_traits@IU?$less@I@std@@V?$allocator@I@2@$0A@@std@@@std@@QEAAXXZ 00000001800053a0 f i compiler:compile.obj
 0001:000043a0       ?clear@?$_Tree@V?$_Tset_traits@USymbol@rules@tree_sitter@@U?$less@USymbol@rules@tree_sitter@@@std@@V?$allocator@USymbol@rules@tree_sitter@@@5@$0A@@std@@@std@@QEAAXXZ 00000001800053a0 f i compiler:compile.obj
 0001:000043a0       ?clear@?$_Tree@V?$_Tset_traits@HU?$less@H@std@@V?$allocator@H@2@$0A@@std@@@std@@QEAAXXZ 00000001800053a0 f i compiler:c_code.obj
 0001:00004410       ?erase@?$_Tree@V?$_Tset_traits@_KU?$less@_K@std@@V?$allocator@_K@2@$0A@@std@@@std@@QEAA?AV?$_Tree_const_iterator@V?$_Tree_val@U?$_Tree_simple_types@_K@std@@@std@@@2@V32@@Z 0000000180005410 f i compiler:parse_table_builder.obj
 0001:00004410       ?erase@?$_Tree@V?$_Tmap_traits@HHU?$less@H@std@@V?$allocator@U?$pair@$$CBHH@std@@@2@$0A@@std@@@std@@QEAA?AV?$_Tree_iterator@V?$_Tree_val@U?$_Tree_simple_types@U?$pair@$$CBHH@std@@@std@@@std@@@2@V?$_Tree_const_iterator@V?$_Tree_val@U?$_Tree_simple_types@U?$pair@$$CBHH@std@@@std@@@std@@@2@@Z 0000000180005410 f i compiler:c_code.obj
 0001:00004410       ?erase@?$_Tree@V?$_Tmap_traits@H_KU?$less@H@std@@V?$allocator@U?$pair@$$CBH_K@std@@@2@$0A@@std@@@std@@QEAA?AV?$_Tree_iterator@V?$_Tree_val@U?$_Tree_simple_types@U?$pair@$$CBH_K@std@@@std@@@std@@@2@V?$_Tree_const_iterator@V?$_Tree_val@U?$_Tree_simple_types@U?$pair@$$CBH_K@std@@@std@@@std@@@2@@Z 0000000180005410 f i compiler:compile.obj
 0001:00004410       ?erase@?$_Tree@V?$_Tmap_traits@_K_KU?$less@_K@std@@V?$allocator@U?$pair@$$CB_K_K@std@@@2@$0A@@std@@@std@@QEAA?AV?$_Tree_iterator@V?$_Tree_val@U?$_Tree_simple_types@U?$pair@$$CB_K_K@std@@@std@@@std@@@2@V?$_Tree_const_iterator@V?$_Tree_val@U?$_Tree_simple_types@U?$pair@$$CB_K_K@std@@@std@@@std@@@2@@Z 0000000180005410 f i compiler:parse_table_builder.obj
 0001:00004410       ?erase@?$_Tree@V?$_Tset_traits@UParseItem@build_tables@tree_sitter@@U?$less@UParseItem@build_tables@tree_sitter@@@std@@V?$allocator@UParseItem@build_tables@tree_sitter@@@5@$0A@@std@@@std@@QEAA?AV?$_Tree_const_iterator@V?$_Tree_val@U?$_Tree_simple_types@UParseItem@build_tables@tree_sitter@@@std@@@std@@@2@V32@@Z 0000000180005410 f i compiler:parse_table_builder.obj
 0001:00004410       ?erase@?$_Tree@V?$_Tmap_traits@_J_JU?$less@_J@std@@V?$allocator@U?$pair@$$CB_J_J@std@@@2@$0A@@std@@@std@@QEAA?AV?$_Tree_iterator@V?$_Tree_val@U?$_Tree_simple_types@U?$pair@$$CB_J_J@std@@@std@@@std@@@2@V?$_Tree_const_iterator@V?$_Tree_val@U?$_Tree_simple_types@U?$pair@$$CB_J_J@std@@@std@@@std@@@2@@Z 0000000180005410 f i compiler:lex_table_builder.obj
 0001:00004410       ?erase@?$_Tree@V?$_Tset_traits@IU?$less@I@std@@V?$allocator@I@2@$0A@@std@@@std@@QEAA?AV?$_Tree_const_iterator@V?$_Tree_val@U?$_Tree_simple_types@I@std@@@std@@@2@V32@@Z 0000000180005410 f i compiler:compile.obj
 0001:00004410       ?erase@?$_Tree@V?$_Tset_traits@HU?$less@H@std@@V?$allocator@H@2@$0A@@std@@@std@@QEAA?AV?$_Tree_const_iterator@V?$_Tree_val@U?$_Tree_simple_types@H@std@@@std@@@2@V32@@Z 0000000180005410 f i compiler:c_code.obj
 0001:00004410       ?erase@?$_Tree@V?$_Tmap_traits@USymbol@rules@tree_sitter@@U123@U?$less@USymbol@rules@tree_sitter@@@std@@V?$allocator@U?$pair@$$CBUSymbol@rules@tree_sitter@@U123@@std@@@5@$0A@@std@@@std@@QEAA?AV?$_Tree_iterator@V?$_Tree_val@U?$_Tree_simple_types@U?$pair@$$CBUSymbol@rules@tree_sitter@@U123@@std@@@std@@@std@@@2@V?$_Tree_const_iterator@V?$_Tree_val@U?$_Tree_simple_types@U?$pair@$$CBUSymbol@rules@tree_sitter@@U123@@std@@@std@@@std@@@2@@Z 0000000180005410 f i compiler:extract_tokens.obj
 0001:00004410       ?erase@?$_Tree@V?$_Tset_traits@USymbol@rules@tree_sitter@@U?$less@USymbol@rules@tree_sitter@@@std@@V?$allocator@USymbol@rules@tree_sitter@@@5@$0A@@std@@@std@@QEAA?AV?$_Tree_const_iterator@V?$_Tree_val@U?$_Tree_simple_types@USymbol@rules@tree_sitter@@@std@@@std@@@2@V32@@Z 0000000180005410 f i compiler:compile.obj
 0001:000047a0       ?clear@?$list@V?$basic_string@DU?$char_traits@D@std@@V?$allocator@D@2@@std@@V?$allocator@V?$basic_string@DU?$char_traits@D@std@@V?$allocator@D@2@@std@@@2@@std@@QEAAXXZ 00000001800057a0 f i compiler:c_code.obj
 0001:000047a0       ?clear@?$list@UNamedSymbol@rules@tree_sitter@@V?$allocator@UNamedSymbol@rules@tree_sitter@@@std@@@std@@QEAAXXZ 00000001800057a0 f i compiler:compile.obj
 0001:00004880       ?_Rrotate@?$_Tree@V?$_Tmap_traits@UCharacterSet@rules@tree_sitter@@UAdvanceAction@3@U?$less@UCharacterSet@rules@tree_sitter@@@std@@V?$allocator@U?$pair@$$CBUCharacterSet@rules@tree_sitter@@UAdvanceAction@3@@std@@@6@$0A@@std@@@std@@IEAAXPEAU?$_Tree_node@U?$pair@$$CBUCharacterSet@rules@tree_sitter@@UAdvanceAction@3@@std@@PEAX@2@@Z 0000000180005880 f i compiler:compile.obj
 0001:00004880       ?_Rrotate@?$_Tree@V?$_Tset_traits@V?$set@USymbol@rules@tree_sitter@@U?$less@USymbol@rules@tree_sitter@@@std@@V?$allocator@USymbol@rules@tree_sitter@@@5@@std@@U?$less@V?$set@USymbol@rules@tree_sitter@@U?$less@USymbol@rules@tree_sitter@@@std@@V?$allocator@USymbol@rules@tree_sitter@@@5@@std@@@2@V?$allocator@V?$set@USymbol@rules@tree_sitter@@U?$less@USymbol@rules@tree_sitter@@@std@@V?$allocator@USymbol@rules@tree_sitter@@@5@@std@@@2@$0A@@std@@@std@@IEAAXPEAU?$_Tree_node@V?$set@USymbol@rules@tree_sitter@@U?$less@USymbol@rules@tree_sitter@@@std@@V?$allocator@USymbol@rules@tree_sitter@@@5@@std@@PEAX@2@@Z 0000000180005880 f i compiler:compile.obj
 0001:00004880       ?_Rrotate@?$_Tree@V?$_Tset_traits@_KU?$less@_K@std@@V?$allocator@_K@2@$0A@@std@@@std@@IEAAXPEAU?$_Tree_node@_KPEAX@2@@Z 0000000180005880 f i compiler:parse_table_builder.obj
 0001:00004880       ?_Rrotate@?$_Tree@V?$_Tmap_traits@USymbol@rules@tree_sitter@@UParseItemSet@build_tables@3@U?$less@USymbol@rules@tree_sitter@@@std@@V?$allocator@U?$pair@$$CBUSymbol@rules@tree_sitter@@UParseItemSet@build_tables@3@@std@@@7@$0A@@std@@@std@@IEAAXPEAU?$_Tree_node@U?$pair@$$CBUSymbol@rules@tree_sitter@@UParseItemSet@build_tables@3@@std@@PEAX@2@@Z 0000000180005880 f i compiler:parse_table_builder.obj
 0001:00004880       ?_Rrotate@?$_Tree@V?$_Tmap_traits@H_KU?$less@H@std@@V?$allocator@U?$pair@$$CBH_K@std@@@2@$0A@@std@@@std@@IEAAXPEAU?$_Tree_node@U?$pair@$$CBH_K@std@@PEAX@2@@Z 0000000180005880 f i compiler:compile.obj
 0001:00004880       ?_Rrotate@?$_Tree@V?$_Tmap_traits@USymbol@rules@tree_sitter@@UParseTableEntry@3@U?$less@USymbol@rules@tree_sitter@@@std@@V?$allocator@U?$pair@$$CBUSymbol@rules@tree_sitter@@UParseTableEntry@3@@std@@@6@$0A@@std@@@std@@IEAAXPEAU?$_Tree_node@U?$pair@$$CBUSymbol@rules@tree_sitter@@UParseTableEntry@3@@std@@PEAX@2@@Z 0000000180005880 f i compiler:compile.obj
 0001:00004880       ?_Rrotate@?$_Tree@V?$_Tset_traits@USymbol@rules@tree_sitter@@U?$less@USymbol@rules@tree_sitter@@@std@@V?$allocator@USymbol@rules@tree_sitter@@@5@$0A@@std@@@std@@IEAAXPEAU?$_Tree_node@USymbol@rules@tree_sitter@@PEAX@2@@Z 0000000180005880 f i compiler:compile.obj
 0001:00004880       ?_Rrotate@?$_Tree@V?$_Tmap_traits@UParseItem@build_tables@tree_sitter@@VLookaheadSet@23@U?$less@UParseItem@build_tables@tree_sitter@@@std@@V?$allocator@U?$pair@$$CBUParseItem@build_tables@tree_sitter@@VLookaheadSet@23@@std@@@6@$0A@@std@@@std@@IEAAXPEAU?$_Tree_node@U?$pair@$$CBUParseItem@build_tables@tree_sitter@@VLookaheadSet@23@@std@@PEAX@2@@Z 0000000180005880 f i compiler:parse_table_builder.obj
 0001:00004880       ?_Rrotate@?$_Tree@V?$_Tmap_traits@USymbol@rules@tree_sitter@@V?$basic_string@DU?$char_traits@D@std@@V?$allocator@D@2@@std@@U?$less@USymbol@rules@tree_sitter@@@5@V?$allocator@U?$pair@$$CBUSymbol@rules@tree_sitter@@V?$basic_string@DU?$char_traits@D@std@@V?$allocator@D@2@@std@@@std@@@5@$0A@@std@@@std@@IEAAXPEAU?$_Tree_node@U?$pair@$$CBUSymbol@rules@tree_sitter@@V?$basic_string@DU?$char_traits@D@std@@V?$allocator@D@2@@std@@@std@@PEAX@2@@Z 0000000180005880 f i compiler:c_code.obj
 0001:00004880       ?_Rrotate@?$_Tree@V?$_Tset_traits@HU?$less@H@std@@V?$allocator@H@2@$0A@@std@@@std@@IEAAXPEAU?$_Tree_node@HPEAX@2@@Z 0000000180005880 f i compiler:c_code.obj
 0001:00004880       ?_Rrotate@?$_Tree@V?$_Tset_traits@UParseItem@build_tables@tree_sitter@@U?$less@UParseItem@build_tables@tree_sitter@@@std@@V?$allocator@UParseItem@build_tables@tree_sitter@@@5@$0A@@std@@@std@@IEAAXPEAU?$_Tree_node@UParseItem@build_tables@tree_sitter@@PEAX@2@@Z 0000000180005880 f i compiler:parse_table_builder.obj
 0001:00004880       ?_Rrotate@?$_Tree@V?$_Tset_traits@UAlias@rules@tree_sitter@@U?$less@UAlias@rules@tree_sitter@@@std@@V?$allocator@UAlias@rules@tree_sitter@@@5@$0A@@std@@@std@@IEAAXPEAU?$_Tree_node@UAlias@rules@tree_sitter@@PEAX@2@@Z 0000000180005880 f i compiler:c_code.obj
 0001:00004880       ?_Rrotate@?$_Tree@V?$_Tmap_traits@_J_JU?$less@_J@std@@V?$allocator@U?$pair@$$CB_J_J@std@@@2@$0A@@std@@@std@@IEAAXPEAU?$_Tree_node@U?$pair@$$CB_J_J@std@@PEAX@2@@Z 0000000180005880 f i compiler:lex_table_builder.obj
 0001:00004880       ?_Rrotate@?$_Tree@V?$_Tmap_traits@HUParseItemSet@build_tables@tree_sitter@@U?$less@H@std@@V?$allocator@U?$pair@$$CBHUParseItemSet@build_tables@tree_sitter@@@std@@@5@$0A@@std@@@std@@IEAAXPEAU?$_Tree_node@U?$pair@$$CBHUParseItemSet@build_tables@tree_sitter@@@std@@PEAX@2@@Z 0000000180005880 f i compiler:parse_table_builder.obj
 0001:00004880       ?_Rrotate@?$_Tree@V?$_Tmap_traits@UCharacterSet@rules@tree_sitter@@UTransition@LexItemSet@build_tables@3@U?$less@UCharacterSet@rules@tree_sitter@@@std@@V?$allocator@U?$pair@$$CBUCharacterSet@rules@tree_sitter@@UTransition@LexItemSet@build_tables@3@@std@@@8@$0A@@std@@@std@@IEAAXPEAU?$_Tree_node@U?$pair@$$CBUCharacterSet@rules@tree_sitter@@UTransition@LexItemSet@build_tables@3@@std@@PEAX@2@@Z 0000000180005880 f i compiler:lex_table_builder.obj
 0001:00004880       ?_Rrotate@?$_Tree@V?$_Tmap_traits@USymbol@rules@tree_sitter@@U123@U?$less@USymbol@rules@tree_sitter@@@std@@V?$allocator@U?$pair@$$CBUSymbol@rules@tree_sitter@@U123@@std@@@5@$0A@@std@@@std@@IEAAXPEAU?$_Tree_node@U?$pair@$$CBUSymbol@rules@tree_sitter@@U123@@std@@PEAX@2@@Z 0000000180005880 f i compiler:extract_tokens.obj
 0001:00004880       ?_Rrotate@?$_Tree@V?$_Tmap_traits@HHU?$less@H@std@@V?$allocator@U?$pair@$$CBHH@std@@@2@$0A@@std@@@std@@IEAAXPEAU?$_Tree_node@U?$pair@$$CBHH@std@@PEAX@2@@Z 0000000180005880 f i compiler:c_code.obj
 0001:00004880       ?_Rrotate@?$_Tree@V?$_Tmap_traits@_K_KU?$less@_K@std@@V?$allocator@U?$pair@$$CB_K_K@std@@@2@$0A@@std@@@std@@IEAAXPEAU?$_Tree_node@U?$pair@$$CB_K_K@std@@PEAX@2@@Z 0000000180005880 f i compiler:parse_table_builder.obj
 0001:00004880       ?_Rrotate@?$_Tree@V?$_Tset_traits@IU?$less@I@std@@V?$allocator@I@2@$0A@@std@@@std@@IEAAXPEAU?$_Tree_node@IPEAX@2@@Z 0000000180005880 f i compiler:compile.obj
 0001:000048e0       ?_Lrotate@?$_Tree@V?$_Tset_traits@UParseItem@build_tables@tree_sitter@@U?$less@UParseItem@build_tables@tree_sitter@@@std@@V?$allocator@UParseItem@build_tables@tree_sitter@@@5@$0A@@std@@@std@@IEAAXPEAU?$_Tree_node@UParseItem@build_tables@tree_sitter@@PEAX@2@@Z 00000001800058e0 f i compiler:parse_table_builder.obj
 0001:000048e0       ?_Lrotate@?$_Tree@V?$_Tset_traits@HU?$less@H@std@@V?$allocator@H@2@$0A@@std@@@std@@IEAAXPEAU?$_Tree_node@HPEAX@2@@Z 00000001800058e0 f i compiler:c_code.obj
 0001:000048e0       ?_Lrotate@?$_Tree@V?$_Tmap_traits@USymbol@rules@tree_sitter@@UParseTableEntry@3@U?$less@USymbol@rules@tree_sitter@@@std@@V?$allocator@U?$pair@$$CBUSymbol@rules@tree_sitter@@UParseTableEntry@3@@std@@@6@$0A@@std@@@std@@IEAAXPEAU?$_Tree_node@U?$pair@$$CBUSymbol@rules@tree_sitter@@UParseTableEntry@3@@std@@PEAX@2@@Z 00000001800058e0 f i compiler:compile.obj
 0001:000048e0       ?_Lrotate@?$_Tree@V?$_Tset_traits@UAlias@rules@tree_sitter@@U?$less@UAlias@rules@tree_sitter@@@std@@V?$allocator@UAlias@rules@tree_sitter@@@5@$0A@@std@@@std@@IEAAXPEAU?$_Tree_node@UAlias@rules@tree_sitter@@PEAX@2@@Z 00000001800058e0 f i compiler:c_code.obj
 0001:000048e0       ?_Lrotate@?$_Tree@V?$_Tmap_traits@H_KU?$less@H@std@@V?$allocator@U?$pair@$$CBH_K@std@@@2@$0A@@std@@@std@@IEAAXPEAU?$_Tree_node@U?$pair@$$CBH_K@std@@PEAX@2@@Z 00000001800058e0 f i compiler:compile.obj
 0001:000048e0       ?_Lrotate@?$_Tree@V?$_Tmap_traits@UParseItem@build_tables@tree_sitter@@VLookaheadSet@23@U?$less@UParseItem@build_tables@tree_sitter@@@std@@V?$allocator@U?$pair@$$CBUParseItem@build_tables@tree_sitter@@VLookaheadSet@23@@std@@@6@$0A@@std@@@std@@IEAAXPEAU?$_Tree_node@U?$pair@$$CBUParseItem@build_tables@tree_sitter@@VLookaheadSet@23@@std@@PEAX@2@@Z 00000001800058e0 f i compiler:parse_table_builder.obj
 0001:000048e0       ?_Lrotate@?$_Tree@V?$_Tset_traits@_KU?$less@_K@std@@V?$allocator@_K@2@$0A@@std@@@std@@IEAAXPEAU?$_Tree_node@_KPEAX@2@@Z 00000001800058e0 f i compiler:parse_table_builder.obj
 0001:000048e0       ?_Lrotate@?$_Tree@V?$_Tmap_traits@UCharacterSet@rules@tree_sitter@@UTransition@LexItemSet@build_tables@3@U?$less@UCharacterSet@rules@tree_sitter@@@std@@V?$allocator@U?$pair@$$CBUCharacterSet@rules@tree_sitter@@UTransition@LexItemSet@build_tables@3@@std@@@8@$0A@@std@@@std@@IEAAXPEAU?$_Tree_node@U?$pair@$$CBUCharacterSet@rules@tree_sitter@@UTransition@LexItemSet@build_tables@3@@std@@PEAX@2@@Z 00000001800058e0 f i compiler:lex_table_builder.obj
 0001:000048e0       ?_Lrotate@?$_Tree@V?$_Tmap_traits@_J_JU?$less@_J@std@@V?$allocator@U?$pair@$$CB_J_J@std@@@2@$0A@@std@@@std@@IEAAXPEAU?$_Tree_node@U?$pair@$$CB_J_J@std@@PEAX@2@@Z 00000001800058e0 f i compiler:lex_table_builder.obj
 0001:000048e0       ?_Lrotate@?$_Tree@V?$_Tset_traits@USymbol@rules@tree_sitter@@U?$less@USymbol@rules@tree_sitter@@@std@@V?$allocator@USymbol@rules@tree_sitter@@@5@$0A@@std@@@std@@IEAAXPEAU?$_Tree_node@USymbol@rules@tree_sitter@@PEAX@2@@Z 00000001800058e0 f i compiler:compile.obj
 0001:000048e0       ?_Lrotate@?$_Tree@V?$_Tmap_traits@_K_KU?$less@_K@std@@V?$allocator@U?$pair@$$CB_K_K@std@@@2@$0A@@std@@@std@@IEAAXPEAU?$_Tree_node@U?$pair@$$CB_K_K@std@@PEAX@2@@Z 00000001800058e0 f i compiler:parse_table_builder.obj
 0001:000048e0       ?_Lrotate@?$_Tree@V?$_Tmap_traits@HUParseItemSet@build_tables@tree_sitter@@U?$less@H@std@@V?$allocator@U?$pair@$$CBHUParseItemSet@build_tables@tree_sitter@@@std@@@5@$0A@@std@@@std@@IEAAXPEAU?$_Tree_node@U?$pair@$$CBHUParseItemSet@build_tables@tree_sitter@@@std@@PEAX@2@@Z 00000001800058e0 f i compiler:parse_table_builder.obj
 0001:000048e0       ?_Lrotate@?$_Tree@V?$_Tmap_traits@HHU?$less@H@std@@V?$allocator@U?$pair@$$CBHH@std@@@2@$0A@@std@@@std@@IEAAXPEAU?$_Tree_node@U?$pair@$$CBHH@std@@PEAX@2@@Z 00000001800058e0 f i compiler:c_code.obj
 0001:000048e0       ?_Lrotate@?$_Tree@V?$_Tset_traits@V?$set@USymbol@rules@tree_sitter@@U?$less@USymbol@rules@tree_sitter@@@std@@V?$allocator@USymbol@rules@tree_sitter@@@5@@std@@U?$less@V?$set@USymbol@rules@tree_sitter@@U?$less@USymbol@rules@tree_sitter@@@std@@V?$allocator@USymbol@rules@tree_sitter@@@5@@std@@@2@V?$allocator@V?$set@USymbol@rules@tree_sitter@@U?$less@USymbol@rules@tree_sitter@@@std@@V?$allocator@USymbol@rules@tree_sitter@@@5@@std@@@2@$0A@@std@@@std@@IEAAXPEAU?$_Tree_node@V?$set@USymbol@rules@tree_sitter@@U?$less@USymbol@rules@tree_sitter@@@std@@V?$allocator@USymbol@rules@tree_sitter@@@5@@std@@PEAX@2@@Z 00000001800058e0 f i compiler:compile.obj
 0001:000048e0       ?_Lrotate@?$_Tree@V?$_Tset_traits@IU?$less@I@std@@V?$allocator@I@2@$0A@@std@@@std@@IEAAXPEAU?$_Tree_node@IPEAX@2@@Z 00000001800058e0 f i compiler:compile.obj
 0001:000048e0       ?_Lrotate@?$_Tree@V?$_Tmap_traits@UCharacterSet@rules@tree_sitter@@UAdvanceAction@3@U?$less@UCharacterSet@rules@tree_sitter@@@std@@V?$allocator@U?$pair@$$CBUCharacterSet@rules@tree_sitter@@UAdvanceAction@3@@std@@@6@$0A@@std@@@std@@IEAAXPEAU?$_Tree_node@U?$pair@$$CBUCharacterSet@rules@tree_sitter@@UAdvanceAction@3@@std@@PEAX@2@@Z 00000001800058e0 f i compiler:compile.obj
 0001:000048e0       ?_Lrotate@?$_Tree@V?$_Tmap_traits@USymbol@rules@tree_sitter@@V?$basic_string@DU?$char_traits@D@std@@V?$allocator@D@2@@std@@U?$less@USymbol@rules@tree_sitter@@@5@V?$allocator@U?$pair@$$CBUSymbol@rules@tree_sitter@@V?$basic_string@DU?$char_traits@D@std@@V?$allocator@D@2@@std@@@std@@@5@$0A@@std@@@std@@IEAAXPEAU?$_Tree_node@U?$pair@$$CBUSymbol@rules@tree_sitter@@V?$basic_string@DU?$char_traits@D@std@@V?$allocator@D@2@@std@@@std@@PEAX@2@@Z 00000001800058e0 f i compiler:c_code.obj
 0001:000048e0       ?_Lrotate@?$_Tree@V?$_Tmap_traits@USymbol@rules@tree_sitter@@U123@U?$less@USymbol@rules@tree_sitter@@@std@@V?$allocator@U?$pair@$$CBUSymbol@rules@tree_sitter@@U123@@std@@@5@$0A@@std@@@std@@IEAAXPEAU?$_Tree_node@U?$pair@$$CBUSymbol@rules@tree_sitter@@U123@@std@@PEAX@2@@Z 00000001800058e0 f i compiler:extract_tokens.obj
 0001:000048e0       ?_Lrotate@?$_Tree@V?$_Tmap_traits@USymbol@rules@tree_sitter@@UParseItemSet@build_tables@3@U?$less@USymbol@rules@tree_sitter@@@std@@V?$allocator@U?$pair@$$CBUSymbol@rules@tree_sitter@@UParseItemSet@build_tables@3@@std@@@7@$0A@@std@@@std@@IEAAXPEAU?$_Tree_node@U?$pair@$$CBUSymbol@rules@tree_sitter@@UParseItemSet@build_tables@3@@std@@PEAX@2@@Z 00000001800058e0 f i compiler:parse_table_builder.obj
 0001:00004940       ?_Erase@?$_Tree@V?$_Tset_traits@V?$set@USymbol@rules@tree_sitter@@U?$less@USymbol@rules@tree_sitter@@@std@@V?$allocator@USymbol@rules@tree_sitter@@@5@@std@@U?$less@V?$set@USymbol@rules@tree_sitter@@U?$less@USymbol@rules@tree_sitter@@@std@@V?$allocator@USymbol@rules@tree_sitter@@@5@@std@@@2@V?$allocator@V?$set@USymbol@rules@tree_sitter@@U?$less@USymbol@rules@tree_sitter@@@std@@V?$allocator@USymbol@rules@tree_sitter@@@5@@std@@@2@$0A@@std@@@std@@IEAAXPEAU?$_Tree_node@V?$set@USymbol@rules@tree_sitter@@U?$less@USymbol@rules@tree_sitter@@@std@@V?$allocator@USymbol@rules@tree_sitter@@@5@@std@@PEAX@2@@Z 0000000180005940 f i compiler:compile.obj
 0001:000049c0       ??E?$_Tree_const_iterator@V?$_Tree_val@U?$_Tree_simple_types@USymbol@rules@tree_sitter@@@std@@@std@@@std@@QEAAAEAV01@XZ 00000001800059c0 f i compiler:compile.obj
 0001:000049c0       ??E?$_Tree_const_iterator@V?$_Tree_val@U?$_Tree_simple_types@UParseItem@build_tables@tree_sitter@@@std@@@std@@@std@@QEAAAEAV01@XZ 00000001800059c0 f i compiler:parse_table_builder.obj
 0001:00004a20       ?_Erase@?$_Tree@V?$_Tmap_traits@USymbol@rules@tree_sitter@@U123@U?$less@USymbol@rules@tree_sitter@@@std@@V?$allocator@U?$pair@$$CBUSymbol@rules@tree_sitter@@U123@@std@@@5@$0A@@std@@@std@@IEAAXPEAU?$_Tree_node@U?$pair@$$CBUSymbol@rules@tree_sitter@@U123@@std@@PEAX@2@@Z 0000000180005a20 f i compiler:extract_tokens.obj
 0001:00004a20       ?_Erase@?$_Tree@V?$_Tset_traits@HU?$less@H@std@@V?$allocator@H@2@$0A@@std@@@std@@IEAAXPEAU?$_Tree_node@HPEAX@2@@Z 0000000180005a20 f i compiler:c_code.obj
 0001:00004a20       ?_Erase@?$_Tree@V?$_Tset_traits@UParseItem@build_tables@tree_sitter@@U?$less@UParseItem@build_tables@tree_sitter@@@std@@V?$allocator@UParseItem@build_tables@tree_sitter@@@5@$0A@@std@@@std@@IEAAXPEAU?$_Tree_node@UParseItem@build_tables@tree_sitter@@PEAX@2@@Z 0000000180005a20 f i compiler:parse_table_builder.obj
 0001:00004a20       ?_Erase@?$_Tree@V?$_Tmap_traits@_J_JU?$less@_J@std@@V?$allocator@U?$pair@$$CB_J_J@std@@@2@$0A@@std@@@std@@IEAAXPEAU?$_Tree_node@U?$pair@$$CB_J_J@std@@PEAX@2@@Z 0000000180005a20 f i compiler:lex_table_builder.obj
 0001:00004a20       ?_Erase@?$_Tree@V?$_Tmap_traits@_K_KU?$less@_K@std@@V?$allocator@U?$pair@$$CB_K_K@std@@@2@$0A@@std@@@std@@IEAAXPEAU?$_Tree_node@U?$pair@$$CB_K_K@std@@PEAX@2@@Z 0000000180005a20 f i compiler:parse_table_builder.obj
 0001:00004a20       ?_Erase@?$_Tree@V?$_Tset_traits@IU?$less@I@std@@V?$allocator@I@2@$0A@@std@@@std@@IEAAXPEAU?$_Tree_node@IPEAX@2@@Z 0000000180005a20 f i compiler:compile.obj
 0001:00004a20       ?_Erase@?$_Tree@V?$_Tset_traits@_KU?$less@_K@std@@V?$allocator@_K@2@$0A@@std@@@std@@IEAAXPEAU?$_Tree_node@_KPEAX@2@@Z 0000000180005a20 f i compiler:parse_table_builder.obj
 0001:00004a20       ?_Erase@?$_Tree@V?$_Tset_traits@USymbol@rules@tree_sitter@@U?$less@USymbol@rules@tree_sitter@@@std@@V?$allocator@USymbol@rules@tree_sitter@@@5@$0A@@std@@@std@@IEAAXPEAU?$_Tree_node@USymbol@rules@tree_sitter@@PEAX@2@@Z 0000000180005a20 f i compiler:compile.obj
 0001:00004a20       ?_Erase@?$_Tree@V?$_Tmap_traits@HHU?$less@H@std@@V?$allocator@U?$pair@$$CBHH@std@@@2@$0A@@std@@@std@@IEAAXPEAU?$_Tree_node@U?$pair@$$CBHH@std@@PEAX@2@@Z 0000000180005a20 f i compiler:c_code.obj
 0001:00004a20       ?_Erase@?$_Tree@V?$_Tmap_traits@H_KU?$less@H@std@@V?$allocator@U?$pair@$$CBH_K@std@@@2@$0A@@std@@@std@@IEAAXPEAU?$_Tree_node@U?$pair@$$CBH_K@std@@PEAX@2@@Z 0000000180005a20 f i compiler:compile.obj
 0001:00004a70       ??$_Destroy_range@V?$allocator@UParseState@tree_sitter@@@std@@PEAUParseState@tree_sitter@@@std@@YAXPEAUParseState@tree_sitter@@0AEAU?$_Wrap_alloc@V?$allocator@UParseState@tree_sitter@@@std@@@0@@Z 0000000180005a70 f i compiler:compile.obj
 0001:00004af0       ??$_Destroy_range1@V?$allocator@V?$vector@UAlias@rules@tree_sitter@@V?$allocator@UAlias@rules@tree_sitter@@@std@@@std@@@std@@PEAV?$vector@UAlias@rules@tree_sitter@@V?$allocator@UAlias@rules@tree_sitter@@@std@@@2@@std@@YAXPEAV?$vector@UAlias@rules@tree_sitter@@V?$allocator@UAlias@rules@tree_sitter@@@std@@@0@0AEAU?$_Wrap_alloc@V?$allocator@V?$vector@UAlias@rules@tree_sitter@@V?$allocator@UAlias@rules@tree_sitter@@@std@@@std@@@std@@@0@U?$integral_constant@_N$0A@@0@@Z 0000000180005af0 f i compiler:compile.obj
 0001:00004bf0       ??$_Destroy_range1@V?$allocator@ULexicalVariable@tree_sitter@@@std@@PEAULexicalVariable@tree_sitter@@@std@@YAXPEAULexicalVariable@tree_sitter@@0AEAU?$_Wrap_alloc@V?$allocator@ULexicalVariable@tree_sitter@@@std@@@0@U?$integral_constant@_N$0A@@0@@Z 0000000180005bf0 f i compiler:compile.obj
 0001:00004cb0       ??$_Destroy_range1@V?$allocator@UExternalToken@tree_sitter@@@std@@PEAUExternalToken@tree_sitter@@@std@@YAXPEAUExternalToken@tree_sitter@@0AEAU?$_Wrap_alloc@V?$allocator@UExternalToken@tree_sitter@@@std@@@0@U?$integral_constant@_N$0A@@0@@Z 0000000180005cb0 f i compiler:compile.obj
 0001:00004cb0       ??$_Destroy_range1@V?$allocator@USymbolStatus@?1??extract_simple_aliases@prepare_grammar@tree_sitter@@YA?AV?$unordered_map@USymbol@rules@tree_sitter@@UAlias@23@U?$hash@USymbol@rules@tree_sitter@@@std@@U?$equal_to@USymbol@rules@tree_sitter@@@6@V?$allocator@U?$pair@$$CBUSymbol@rules@tree_sitter@@UAlias@23@@std@@@6@@std@@PEAUSyntaxGrammar@4@PEAULexicalGrammar@4@@Z@@std@@PEAUSymbolStatus@?1??extract_simple_aliases@prepare_grammar@tree_sitter@@YA?AV?$unordered_map@USymbol@rules@tree_sitter@@UAlias@23@U?$hash@USymbol@rules@tree_sitter@@@std@@U?$equal_to@USymbol@rules@tree_sitter@@@6@V?$allocator@U?$pair@$$CBUSymbol@rules@tree_sitter@@UAlias@23@@std@@@6@@2@PEAUSyntaxGrammar@6@PEAULexicalGrammar@6@@Z@@std@@YAXPEAUSymbolStatus@?1??extract_simple_aliases@prepare_grammar@tree_sitter@@YA?AV?$unordered_map@USymbol@rules@tree_sitter@@UAlias@23@U?$hash@USymbol@rules@tree_sitter@@@std@@U?$equal_to@USymbol@rules@tree_sitter@@@6@V?$allocator@U?$pair@$$CBUSymbol@rules@tree_sitter@@UAlias@23@@std@@@6@@0@PEAUSyntaxGrammar@4@PEAULexicalGrammar@4@@Z@2AEAU?$_Wrap_alloc@V?$allocator@USymbolStatus@?1??extract_simple_aliases@prepare_grammar@tree_sitter@@YA?AV?$unordered_map@USymbol@rules@tree_sitter@@UAlias@23@U?$hash@USymbol@rules@tree_sitter@@@std@@U?$equal_to@USymbol@rules@tree_sitter@@@6@V?$allocator@U?$pair@$$CBUSymbol@rules@tree_sitter@@UAlias@23@@std@@@6@@std@@PEAUSyntaxGrammar@4@PEAULexicalGrammar@4@@Z@@std@@@0@U?$integral_constant@_N$0A@@0@@Z 0000000180005cb0 f i compiler:extract_simple_aliases.obj
 0001:00004d70       ??$_Destroy_range1@V?$allocator@USyntaxVariable@tree_sitter@@@std@@PEAUSyntaxVariable@tree_sitter@@@std@@YAXPEAUSyntaxVariable@tree_sitter@@0AEAU?$_Wrap_alloc@V?$allocator@USyntaxVariable@tree_sitter@@@std@@@0@U?$integral_constant@_N$0A@@0@@Z 0000000180005d70 f i compiler:compile.obj
 0001:00004ee0       ??$_Destroy_range1@V?$allocator@UProductionStep@tree_sitter@@@std@@PEAUProductionStep@tree_sitter@@@std@@YAXPEAUProductionStep@tree_sitter@@0AEAU?$_Wrap_alloc@V?$allocator@UProductionStep@tree_sitter@@@std@@@0@U?$integral_constant@_N$0A@@0@@Z 0000000180005ee0 f i compiler:compile.obj
 0001:00004fa0       ??$_Destroy_range1@V?$allocator@V?$unordered_set@UNamedSymbol@rules@tree_sitter@@U?$hash@UNamedSymbol@rules@tree_sitter@@@std@@U?$equal_to@UNamedSymbol@rules@tree_sitter@@@5@V?$allocator@UNamedSymbol@rules@tree_sitter@@@5@@std@@@std@@PEAV?$unordered_set@UNamedSymbol@rules@tree_sitter@@U?$hash@UNamedSymbol@rules@tree_sitter@@@std@@U?$equal_to@UNamedSymbol@rules@tree_sitter@@@5@V?$allocator@UNamedSymbol@rules@tree_sitter@@@5@@2@@std@@YAXPEAV?$unordered_set@UNamedSymbol@rules@tree_sitter@@U?$hash@UNamedSymbol@rules@tree_sitter@@@std@@U?$equal_to@UNamedSymbol@rules@tree_sitter@@@5@V?$allocator@UNamedSymbol@rules@tree_sitter@@@5@@0@0AEAU?$_Wrap_alloc@V?$allocator@V?$unordered_set@UNamedSymbol@rules@tree_sitter@@U?$hash@UNamedSymbol@rules@tree_sitter@@@std@@U?$equal_to@UNamedSymbol@rules@tree_sitter@@@5@V?$allocator@UNamedSymbol@rules@tree_sitter@@@5@@std@@@std@@@0@U?$integral_constant@_N$0A@@0@@Z 0000000180005fa0 f i compiler:compile.obj
 0001:00005090       ??$_Destroy_range1@V?$allocator@UVariable@tree_sitter@@@std@@PEAUVariable@tree_sitter@@@std@@YAXPEAUVariable@tree_sitter@@0AEAU?$_Wrap_alloc@V?$allocator@UVariable@tree_sitter@@@std@@@0@U?$integral_constant@_N$0A@@0@@Z 0000000180006090 f i compiler:compile.obj
 0001:00005150       ?erase@?$_Tree@V?$_Tmap_traits@USymbol@rules@tree_sitter@@UParseTableEntry@3@U?$less@USymbol@rules@tree_sitter@@@std@@V?$allocator@U?$pair@$$CBUSymbol@rules@tree_sitter@@UParseTableEntry@3@@std@@@6@$0A@@std@@@std@@QEAA?AV?$_Tree_iterator@V?$_Tree_val@U?$_Tree_simple_types@U?$pair@$$CBUSymbol@rules@tree_sitter@@UParseTableEntry@3@@std@@@std@@@std@@@2@V?$_Tree_const_iterator@V?$_Tree_val@U?$_Tree_simple_types@U?$pair@$$CBUSymbol@rules@tree_sitter@@UParseTableEntry@3@@std@@@std@@@std@@@2@0@Z 0000000180006150 f i compiler:compile.obj
 0001:00005250       ?erase@?$_Tree@V?$_Tmap_traits@UCharacterSet@rules@tree_sitter@@UAdvanceAction@3@U?$less@UCharacterSet@rules@tree_sitter@@@std@@V?$allocator@U?$pair@$$CBUCharacterSet@rules@tree_sitter@@UAdvanceAction@3@@std@@@6@$0A@@std@@@std@@QEAA?AV?$_Tree_iterator@V?$_Tree_val@U?$_Tree_simple_types@U?$pair@$$CBUCharacterSet@rules@tree_sitter@@UAdvanceAction@3@@std@@@std@@@std@@@2@V?$_Tree_const_iterator@V?$_Tree_val@U?$_Tree_simple_types@U?$pair@$$CBUCharacterSet@rules@tree_sitter@@UAdvanceAction@3@@std@@@std@@@std@@@2@0@Z 0000000180006250 f i compiler:compile.obj
 0001:00005350       ?erase@?$_Tree@V?$_Tmap_traits@USymbol@rules@tree_sitter@@UParseTableEntry@3@U?$less@USymbol@rules@tree_sitter@@@std@@V?$allocator@U?$pair@$$CBUSymbol@rules@tree_sitter@@UParseTableEntry@3@@std@@@6@$0A@@std@@@std@@QEAA?AV?$_Tree_iterator@V?$_Tree_val@U?$_Tree_simple_types@U?$pair@$$CBUSymbol@rules@tree_sitter@@UParseTableEntry@3@@std@@@std@@@std@@@2@V?$_Tree_const_iterator@V?$_Tree_val@U?$_Tree_simple_types@U?$pair@$$CBUSymbol@rules@tree_sitter@@UParseTableEntry@3@@std@@@std@@@std@@@2@@Z 0000000180006350 f i compiler:compile.obj
 0001:00005780       ?erase@?$_Tree@V?$_Tmap_traits@UCharacterSet@rules@tree_sitter@@UAdvanceAction@3@U?$less@UCharacterSet@rules@tree_sitter@@@std@@V?$allocator@U?$pair@$$CBUCharacterSet@rules@tree_sitter@@UAdvanceAction@3@@std@@@6@$0A@@std@@@std@@QEAA?AV?$_Tree_iterator@V?$_Tree_val@U?$_Tree_simple_types@U?$pair@$$CBUCharacterSet@rules@tree_sitter@@UAdvanceAction@3@@std@@@std@@@std@@@2@V?$_Tree_const_iterator@V?$_Tree_val@U?$_Tree_simple_types@U?$pair@$$CBUCharacterSet@rules@tree_sitter@@UAdvanceAction@3@@std@@@std@@@std@@@2@@Z 0000000180006780 f i compiler:compile.obj
 0001:00005b50       ?_Erase@?$_Tree@V?$_Tmap_traits@USymbol@rules@tree_sitter@@UParseTableEntry@3@U?$less@USymbol@rules@tree_sitter@@@std@@V?$allocator@U?$pair@$$CBUSymbol@rules@tree_sitter@@UParseTableEntry@3@@std@@@6@$0A@@std@@@std@@IEAAXPEAU?$_Tree_node@U?$pair@$$CBUSymbol@rules@tree_sitter@@UParseTableEntry@3@@std@@PEAX@2@@Z 0000000180006b50 f i compiler:compile.obj
 0001:00005c60       ?_Erase@?$_Tree@V?$_Tmap_traits@UCharacterSet@rules@tree_sitter@@UAdvanceAction@3@U?$less@UCharacterSet@rules@tree_sitter@@@std@@V?$allocator@U?$pair@$$CBUCharacterSet@rules@tree_sitter@@UAdvanceAction@3@@std@@@6@$0A@@std@@@std@@IEAAXPEAU?$_Tree_node@U?$pair@$$CBUCharacterSet@rules@tree_sitter@@UAdvanceAction@3@@std@@PEAX@2@@Z 0000000180006c60 f i compiler:compile.obj
 0001:00005d00       ??$_Destroy_range1@V?$allocator@UAlias@rules@tree_sitter@@@std@@PEAUAlias@rules@tree_sitter@@@std@@YAXPEAUAlias@rules@tree_sitter@@0AEAU?$_Wrap_alloc@V?$allocator@UAlias@rules@tree_sitter@@@std@@@0@U?$integral_constant@_N$0A@@0@@Z 0000000180006d00 f i compiler:compile.obj
 0001:00005dc0       ??$_Destroy_range1@V?$allocator@UProduction@tree_sitter@@@std@@PEAUProduction@tree_sitter@@@std@@YAXPEAUProduction@tree_sitter@@0AEAU?$_Wrap_alloc@V?$allocator@UProduction@tree_sitter@@@std@@@0@U?$integral_constant@_N$0A@@0@@Z 0000000180006dc0 f i compiler:compile.obj
 0001:00005ec0       __local_stdio_printf_options 0000000180006ec0 f i compiler:parse_table_builder.obj
 0001:00005ed0       fprintf                    0000000180006ed0 f i compiler:parse_table_builder.obj
 0001:00005f20       ?to_string@std@@YA?AV?$basic_string@DU?$char_traits@D@std@@V?$allocator@D@2@@1@_K@Z 0000000180006f20 f i compiler:parse_table_builder.obj
 0001:00005f40       ??8Symbol@rules@tree_sitter@@QEBA_NAEBU012@@Z 0000000180006f40 f i compiler:parse_table_builder.obj
 0001:00005f50       ??0CharacterSet@rules@tree_sitter@@QEAA@AEBU012@@Z 0000000180006f50 f i compiler:parse_table_builder.obj
 0001:00006030       ??0CompileError@tree_sitter@@QEAA@W4TSCompileErrorType@@V?$basic_string@DU?$char_traits@D@std@@V?$allocator@D@2@@std@@@Z 0000000180007030 f i compiler:parse_table_builder.obj
 0001:00006080       ?none@CompileError@tree_sitter@@SA?AV12@XZ 0000000180007080 f i compiler:parse_table_builder.obj
 0001:00006100       ??0ParseTableBuilderImpl@build_tables@tree_sitter@@QEAA@AEBUSyntaxGrammar@2@AEBULexicalGrammar@2@AEBV?$unordered_map@USymbol@rules@tree_sitter@@UAlias@23@U?$hash@USymbol@rules@tree_sitter@@@std@@U?$equal_to@USymbol@rules@tree_sitter@@@6@V?$allocator@U?$pair@$$CBUSymbol@rules@tree_sitter@@UAlias@23@@std@@@6@@std@@@Z 0000000180007100 f i compiler:parse_table_builder.obj
 0001:00006320       ?build@ParseTableBuilderImpl@build_tables@tree_sitter@@QEAA?AUBuildResult@ParseTableBuilder@23@XZ 0000000180007320 f i compiler:parse_table_builder.obj
 0001:00006950       ?process_part_state_queue@ParseTableBuilderImpl@build_tables@tree_sitter@@AEAA?AVCompileError@3@XZ 0000000180007950 f i compiler:parse_table_builder.obj
 0001:00006ca0       ?build_error_parse_state@ParseTableBuilderImpl@build_tables@tree_sitter@@AEAAX_K@Z 0000000180007ca0 f i compiler:parse_table_builder.obj
 0001:00007700       ?add_parse_state@ParseTableBuilderImpl@build_tables@tree_sitter@@AEAA_K$$QEAV?$vector@USymbol@rules@tree_sitter@@V?$allocator@USymbol@rules@tree_sitter@@@std@@@std@@AEBUParseItemSet@23@@Z 0000000180008700 f i compiler:parse_table_builder.obj
 0001:00007af0       ?add_actions@ParseTableBuilderImpl@build_tables@tree_sitter@@AEAA?AV?$basic_string@DU?$char_traits@D@std@@V?$allocator@D@2@@std@@$$QEAV?$vector@USymbol@rules@tree_sitter@@V?$allocator@USymbol@rules@tree_sitter@@@std@@@5@$$QEAUParseItemSet@23@_K@Z 0000000180008af0 f i compiler:parse_table_builder.obj
 0001:000088b0       ?remove_precedence_values@ParseTableBuilderImpl@build_tables@tree_sitter@@AEAAXXZ 00000001800098b0 f i compiler:parse_table_builder.obj
 0001:00008a50       ?remove_duplicate_parse_states@ParseTableBuilderImpl@build_tables@tree_sitter@@AEAAXXZ 0000000180009a50 f i compiler:parse_table_builder.obj
 0001:00009260       ?eliminate_unit_reductions@ParseTableBuilderImpl@build_tables@tree_sitter@@AEAAXXZ 000000018000a260 f i compiler:parse_table_builder.obj
 0001:00009af0       ?populate_used_terminals@ParseTableBuilderImpl@build_tables@tree_sitter@@AEAAXXZ 000000018000aaf0 f i compiler:parse_table_builder.obj
 0001:00009bf0       ?has_actions@ParseTableBuilderImpl@build_tables@tree_sitter@@CA_NAEBUParseState@3@AEBUParseTableEntry@3@@Z 000000018000abf0 f i compiler:parse_table_builder.obj
 0001:00009d00       ?can_add_entry_to_state@ParseTableBuilderImpl@build_tables@tree_sitter@@AEAA_NAEBUParseState@3@USymbol@rules@3@AEBUParseTableEntry@3@@Z 000000018000ad00 f i compiler:parse_table_builder.obj
 0001:0000a040       ?merge_parse_state@ParseTableBuilderImpl@build_tables@tree_sitter@@AEAA_N_K0@Z 000000018000b040 f i compiler:parse_table_builder.obj
 0001:0000a500       ?handle_conflict@ParseTableBuilderImpl@build_tables@tree_sitter@@AEAA?AV?$basic_string@DU?$char_traits@D@std@@V?$allocator@D@2@@std@@USymbol@rules@3@AEBUParseItemSet@23@AEBV?$vector@USymbol@rules@tree_sitter@@V?$allocator@USymbol@rules@tree_sitter@@@std@@@5@_K@Z 000000018000b500 f i compiler:parse_table_builder.obj
 0001:0000bc50       ?delete_parse_states@ParseTableBuilderImpl@build_tables@tree_sitter@@AEAAXV?$set@_KU?$less@_K@std@@V?$allocator@_K@2@@std@@@Z 000000018000cc50 f i compiler:parse_table_builder.obj
 0001:0000c050       ?symbol_name@ParseTableBuilderImpl@build_tables@tree_sitter@@AEBA?AV?$basic_string@DU?$char_traits@D@std@@V?$allocator@D@2@@std@@AEBUSymbol@rules@3@@Z 000000018000d050 f i compiler:parse_table_builder.obj
 0001:0000c180       ?get_alias_sequence_id@ParseTableBuilderImpl@build_tables@tree_sitter@@AEAAIAEBUProduction@3@@Z 000000018000d180 f i compiler:parse_table_builder.obj
 0001:0000c450       ?append_symbol@ParseTableBuilderImpl@build_tables@tree_sitter@@AEAA?AV?$vector@USymbol@rules@tree_sitter@@V?$allocator@USymbol@rules@tree_sitter@@@std@@@std@@AEBV45@AEBUSymbol@rules@3@@Z 000000018000d450 f i compiler:parse_table_builder.obj
 0001:0000c620       ??0SyntaxGrammar@tree_sitter@@QEAA@AEBU01@@Z 000000018000d620 f i compiler:parse_table_builder.obj
 0001:0000c760       ??0ParseTable@tree_sitter@@QEAA@XZ 000000018000d760 f i compiler:parse_table_builder.obj
 0001:0000c7e0       ??1LookaheadSet@build_tables@tree_sitter@@QEAA@XZ 000000018000d7e0 f i compiler:parse_table_builder.obj
 0001:0000c850       ??0ParseTable@tree_sitter@@QEAA@AEBU01@@Z 000000018000d850 f i compiler:parse_table_builder.obj
 0001:0000c8f0       ??1ParseStateQueueEntry@build_tables@tree_sitter@@QEAA@XZ 000000018000d8f0 f i compiler:parse_table_builder.obj
 0001:0000c950       ??1SymbolReplacer@prepare_grammar@tree_sitter@@QEAA@XZ 000000018000d950 f i compiler:extract_tokens.obj
 0001:0000c950       ??1?$set@UParseItem@build_tables@tree_sitter@@U?$less@UParseItem@build_tables@tree_sitter@@@std@@V?$allocator@UParseItem@build_tables@tree_sitter@@@5@@std@@QEAA@XZ 000000018000d950 f i compiler:parse_table_builder.obj
 0001:0000c980       ??1?$_Hash@V?$_Uset_traits@_KV?$_Uhash_compare@_KU?$hash@_K@std@@U?$equal_to@_K@2@@std@@V?$allocator@_K@2@$0A@@std@@@std@@QEAA@XZ 000000018000d980 f i compiler:parse_table_builder.obj
 0001:0000c980       ??1?$_Hash@V?$_Umap_traits@_KHV?$_Uhash_compare@_KU?$hash@_K@std@@U?$equal_to@_K@2@@std@@V?$allocator@U?$pair@$$CB_KH@std@@@2@$0A@@std@@@std@@QEAA@XZ 000000018000d980 f i compiler:parse_table_builder.obj
 0001:0000ca00       ?pop_front@?$deque@UParseStateQueueEntry@build_tables@tree_sitter@@V?$allocator@UParseStateQueueEntry@build_tables@tree_sitter@@@std@@@std@@QEAAXXZ 000000018000da00 f i compiler:parse_table_builder.obj
 0001:0000caa0       ??0?$vector@ULexicalVariable@tree_sitter@@V?$allocator@ULexicalVariable@tree_sitter@@@std@@@std@@QEAA@AEBV01@@Z 000000018000daa0 f i compiler:parse_table_builder.obj
 0001:0000cb60       ?push_back@?$vector@USymbol@rules@tree_sitter@@V?$allocator@USymbol@rules@tree_sitter@@@std@@@std@@QEAAXAEBUSymbol@rules@tree_sitter@@@Z 000000018000db60 f i compiler:parse_table_builder.obj
 0001:0000cbf0       ??1?$vector@USymbol@rules@tree_sitter@@V?$allocator@USymbol@rules@tree_sitter@@@std@@@std@@QEAA@XZ 000000018000dbf0 f i compiler:parse_table_builder.obj
 0001:0000cc30       ??0?$vector@PEAUParseState@tree_sitter@@V?$allocator@PEAUParseState@tree_sitter@@@std@@@std@@QEAA@AEBV01@@Z 000000018000dc30 f i compiler:lex_table_builder.obj
 0001:0000cc30       ??0?$vector@USymbol@rules@tree_sitter@@V?$allocator@USymbol@rules@tree_sitter@@@std@@@std@@QEAA@AEBV01@@Z 000000018000dc30 f i compiler:parse_table_builder.obj
 0001:0000cce0       ??0?$vector@USymbol@rules@tree_sitter@@V?$allocator@USymbol@rules@tree_sitter@@@std@@@std@@QEAA@_K@Z 000000018000dce0 f i compiler:parse_table_builder.obj
 0001:0000cd70       ?push_back@?$vector@V?$vector@UAlias@rules@tree_sitter@@V?$allocator@UAlias@rules@tree_sitter@@@std@@@std@@V?$allocator@V?$vector@UAlias@rules@tree_sitter@@V?$allocator@UAlias@rules@tree_sitter@@@std@@@std@@@2@@std@@QEAAX$$QEAV?$vector@UAlias@rules@tree_sitter@@V?$allocator@UAlias@rules@tree_sitter@@@std@@@2@@Z 000000018000dd70 f i compiler:parse_table_builder.obj
 0001:0000ce80       ??0?$vector@V?$vector@UAlias@rules@tree_sitter@@V?$allocator@UAlias@rules@tree_sitter@@@std@@@std@@V?$allocator@V?$vector@UAlias@rules@tree_sitter@@V?$allocator@UAlias@rules@tree_sitter@@@std@@@std@@@2@@std@@QEAA@AEBV01@@Z 000000018000de80 f i compiler:parse_table_builder.obj
 0001:0000cf70       ??0?$vector@UParseState@tree_sitter@@V?$allocator@UParseState@tree_sitter@@@std@@@std@@QEAA@AEBV01@@Z 000000018000df70 f i compiler:parse_table_builder.obj
 0001:0000d030       ?resize@?$vector@UAlias@rules@tree_sitter@@V?$allocator@UAlias@rules@tree_sitter@@@std@@@std@@QEAAX_K@Z 000000018000e030 f i compiler:parse_table_builder.obj
 0001:0000d170       ?push_back@?$vector@UParseAction@tree_sitter@@V?$allocator@UParseAction@tree_sitter@@@std@@@std@@QEAAXAEBUParseAction@tree_sitter@@@Z 000000018000e170 f i compiler:parse_table_builder.obj
 0001:0000d170       ?push_back@?$vector@UParseAction@tree_sitter@@V?$allocator@UParseAction@tree_sitter@@@std@@@std@@QEAAX$$QEAUParseAction@tree_sitter@@@Z 000000018000e170 f i compiler:parse_table_builder.obj
 0001:0000d240       ??4?$vector@UParseAction@tree_sitter@@V?$allocator@UParseAction@tree_sitter@@@std@@@std@@QEAAAEAV01@AEBV01@@Z 000000018000e240 f i compiler:parse_table_builder.obj
 0001:0000d410       ??0?$vector@UExternalToken@tree_sitter@@V?$allocator@UExternalToken@tree_sitter@@@std@@@std@@QEAA@AEBV01@@Z 000000018000e410 f i compiler:parse_table_builder.obj
 0001:0000d4d0       ?count@?$_Tree@V?$_Tset_traits@USymbol@rules@tree_sitter@@U?$less@USymbol@rules@tree_sitter@@@std@@V?$allocator@USymbol@rules@tree_sitter@@@5@$0A@@std@@@std@@QEBA_KAEBUSymbol@rules@tree_sitter@@@Z 000000018000e4d0 f i compiler:parse_table_builder.obj
 0001:0000d500       ??0?$set@USymbol@rules@tree_sitter@@U?$less@USymbol@rules@tree_sitter@@@std@@V?$allocator@USymbol@rules@tree_sitter@@@5@@std@@QEAA@AEBV01@@Z 000000018000e500 f i compiler:parse_table_builder.obj
 0001:0000d570       ??0?$vector@USyntaxVariable@tree_sitter@@V?$allocator@USyntaxVariable@tree_sitter@@@std@@@std@@QEAA@AEBV01@@Z 000000018000e570 f i compiler:parse_table_builder.obj
 0001:0000d610       ??0?$vector@ULexState@tree_sitter@@V?$allocator@ULexState@tree_sitter@@@std@@@std@@QEAA@AEBV01@@Z 000000018000e610 f i compiler:parse_table_builder.obj
 0001:0000d700       ??0?$vector@URule@rules@tree_sitter@@V?$allocator@URule@rules@tree_sitter@@@std@@@std@@QEAA@AEBV01@@Z 000000018000e700 f i compiler:parse_table_builder.obj
 0001:0000d7b0       ?lower_bound@?$_Hash@V?$_Umap_traits@_KHV?$_Uhash_compare@_KU?$hash@_K@std@@U?$equal_to@_K@2@@std@@V?$allocator@U?$pair@$$CB_KH@std@@@2@$0A@@std@@@std@@QEAA?AV?$_List_iterator@V?$_List_val@U?$_List_simple_types@U?$pair@$$CB_KH@std@@@std@@@std@@@2@AEB_K@Z 000000018000e7b0 f i compiler:parse_table_builder.obj
 0001:0000d8a0       ?_Growmap@?$deque@UParseStateQueueEntry@build_tables@tree_sitter@@V?$allocator@UParseStateQueueEntry@build_tables@tree_sitter@@@std@@@std@@IEAAX_K@Z 000000018000e8a0 f i compiler:parse_table_builder.obj
 0001:0000dac0       ?_Reserve@?$vector@PEBUParseItemSet@build_tables@tree_sitter@@V?$allocator@PEBUParseItemSet@build_tables@tree_sitter@@@std@@@std@@IEAAX_K@Z 000000018000eac0 f i compiler:parse_table_builder.obj
 0001:0000db50       ?_Reserve@?$vector@_KV?$allocator@_K@std@@@std@@IEAAX_K@Z 000000018000eb50 f i compiler:extract_tokens.obj
 0001:0000db50       ?_Reserve@?$vector@USymbol@rules@tree_sitter@@V?$allocator@USymbol@rules@tree_sitter@@@std@@@std@@IEAAX_K@Z 000000018000eb50 f i compiler:parse_table_builder.obj
 0001:0000dbe0       ??4?$vector@IV?$allocator@_N@std@@@std@@QEAAAEAV01@AEBV01@@Z 000000018000ebe0 f i compiler:parse_table_builder.obj
 0001:0000dd10       ?_Reserve@?$vector@V?$vector@UAlias@rules@tree_sitter@@V?$allocator@UAlias@rules@tree_sitter@@@std@@@std@@V?$allocator@V?$vector@UAlias@rules@tree_sitter@@V?$allocator@UAlias@rules@tree_sitter@@@std@@@std@@@2@@std@@IEAAX_K@Z 000000018000ed10 f i compiler:parse_table_builder.obj
 0001:0000dde0       ?_Reserve@?$vector@UParseState@tree_sitter@@V?$allocator@UParseState@tree_sitter@@@std@@@std@@IEAAX_K@Z 000000018000ede0 f i compiler:parse_table_builder.obj
 0001:0000deb0       ?_Reserve@?$vector@UAlias@rules@tree_sitter@@V?$allocator@UAlias@rules@tree_sitter@@@std@@@std@@IEAAX_K@Z 000000018000eeb0 f i compiler:parse_table_builder.obj
 0001:0000df80       ??G?$_Vector_iterator@V?$_Vector_val@U?$_Simple_types@UParseAction@tree_sitter@@@std@@@std@@@std@@QEBA?AV01@_J@Z 000000018000ef80 f i compiler:parse_table_builder.obj
 0001:0000df90       ?_Reserve@?$vector@UParseAction@tree_sitter@@V?$allocator@UParseAction@tree_sitter@@@std@@@std@@IEAAX_K@Z 000000018000ef90 f i compiler:parse_table_builder.obj
 0001:0000e060       ?_Buy@?$vector@UExternalToken@tree_sitter@@V?$allocator@UExternalToken@tree_sitter@@@std@@@std@@IEAA_N_K@Z 000000018000f060 f i compiler:parse_table_builder.obj
 0001:0000e060       ?_Buy@?$vector@UParseAction@tree_sitter@@V?$allocator@UParseAction@tree_sitter@@@std@@@std@@IEAA_N_K@Z 000000018000f060 f i compiler:parse_table_builder.obj
 0001:0000e0d0       ?erase@?$_Tree@V?$_Tmap_traits@_J_JU?$less@_J@std@@V?$allocator@U?$pair@$$CB_J_J@std@@@2@$0A@@std@@@std@@QEAA?AV?$_Tree_iterator@V?$_Tree_val@U?$_Tree_simple_types@U?$pair@$$CB_J_J@std@@@std@@@std@@@2@V?$_Tree_const_iterator@V?$_Tree_val@U?$_Tree_simple_types@U?$pair@$$CB_J_J@std@@@std@@@std@@@2@0@Z 000000018000f0d0 f i compiler:lex_table_builder.obj
 0001:0000e0d0       ?erase@?$_Tree@V?$_Tset_traits@UParseItem@build_tables@tree_sitter@@U?$less@UParseItem@build_tables@tree_sitter@@@std@@V?$allocator@UParseItem@build_tables@tree_sitter@@@5@$0A@@std@@@std@@QEAA?AV?$_Tree_const_iterator@V?$_Tree_val@U?$_Tree_simple_types@UParseItem@build_tables@tree_sitter@@@std@@@std@@@2@V32@0@Z 000000018000f0d0 f i compiler:parse_table_builder.obj
 0001:0000e0d0       ?erase@?$_Tree@V?$_Tmap_traits@_K_KU?$less@_K@std@@V?$allocator@U?$pair@$$CB_K_K@std@@@2@$0A@@std@@@std@@QEAA?AV?$_Tree_iterator@V?$_Tree_val@U?$_Tree_simple_types@U?$pair@$$CB_K_K@std@@@std@@@std@@@2@V?$_Tree_const_iterator@V?$_Tree_val@U?$_Tree_simple_types@U?$pair@$$CB_K_K@std@@@std@@@std@@@2@0@Z 000000018000f0d0 f i compiler:parse_table_builder.obj
 0001:0000e0d0       ?erase@?$_Tree@V?$_Tset_traits@_KU?$less@_K@std@@V?$allocator@_K@2@$0A@@std@@@std@@QEAA?AV?$_Tree_const_iterator@V?$_Tree_val@U?$_Tree_simple_types@_K@std@@@std@@@2@V32@0@Z 000000018000f0d0 f i compiler:parse_table_builder.obj
 0001:0000e0d0       ?erase@?$_Tree@V?$_Tmap_traits@HHU?$less@H@std@@V?$allocator@U?$pair@$$CBHH@std@@@2@$0A@@std@@@std@@QEAA?AV?$_Tree_iterator@V?$_Tree_val@U?$_Tree_simple_types@U?$pair@$$CBHH@std@@@std@@@std@@@2@V?$_Tree_const_iterator@V?$_Tree_val@U?$_Tree_simple_types@U?$pair@$$CBHH@std@@@std@@@std@@@2@0@Z 000000018000f0d0 f i compiler:c_code.obj
 0001:0000e0d0       ?erase@?$_Tree@V?$_Tmap_traits@USymbol@rules@tree_sitter@@U123@U?$less@USymbol@rules@tree_sitter@@@std@@V?$allocator@U?$pair@$$CBUSymbol@rules@tree_sitter@@U123@@std@@@5@$0A@@std@@@std@@QEAA?AV?$_Tree_iterator@V?$_Tree_val@U?$_Tree_simple_types@U?$pair@$$CBUSymbol@rules@tree_sitter@@U123@@std@@@std@@@std@@@2@V?$_Tree_const_iterator@V?$_Tree_val@U?$_Tree_simple_types@U?$pair@$$CBUSymbol@rules@tree_sitter@@U123@@std@@@std@@@std@@@2@0@Z 000000018000f0d0 f i compiler:extract_tokens.obj
 0001:0000e200       ?_Init@?$_Hash@V?$_Umap_traits@VLexItemSet@build_tables@tree_sitter@@_JV?$_Uhash_compare@VLexItemSet@build_tables@tree_sitter@@U?$hash@VLexItemSet@build_tables@tree_sitter@@@std@@U?$equal_to@VLexItemSet@build_tables@tree_sitter@@@5@@std@@V?$allocator@U?$pair@$$CBVLexItemSet@build_tables@tree_sitter@@_J@std@@@5@$0A@@std@@@std@@IEAAX_K@Z 000000018000f200 f i compiler:lex_table_builder.obj
 0001:0000e200       ?_Init@?$_Hash@V?$_Umap_traits@USymbol@rules@tree_sitter@@UAlias@23@V?$_Uhash_compare@USymbol@rules@tree_sitter@@U?$hash@USymbol@rules@tree_sitter@@@std@@U?$equal_to@USymbol@rules@tree_sitter@@@5@@std@@V?$allocator@U?$pair@$$CBUSymbol@rules@tree_sitter@@UAlias@23@@std@@@6@$0A@@std@@@std@@IEAAX_K@Z 000000018000f200 f i compiler:c_code.obj
 0001:0000e200       ?_Init@?$_Hash@V?$_Uset_traits@VLexItem@build_tables@tree_sitter@@V?$_Uhash_compare@VLexItem@build_tables@tree_sitter@@U?$hash@VLexItem@build_tables@tree_sitter@@@std@@U?$equal_to@VLexItem@build_tables@tree_sitter@@@5@@std@@V?$allocator@VLexItem@build_tables@tree_sitter@@@5@$0A@@std@@@std@@IEAAX_K@Z 000000018000f200 f i compiler:lex_table_builder.obj
 0001:0000e200       ?_Init@?$_Hash@V?$_Umap_traits@_KV?$set@_KU?$less@_K@std@@V?$allocator@_K@2@@std@@V?$_Uhash_compare@_KU?$hash@_K@std@@U?$equal_to@_K@2@@2@V?$allocator@U?$pair@$$CB_KV?$set@_KU?$less@_K@std@@V?$allocator@_K@2@@std@@@std@@@2@$0A@@std@@@std@@IEAAX_K@Z 000000018000f200 f i compiler:parse_table_builder.obj
 0001:0000e200       ?_Init@?$_Hash@V?$_Umap_traits@USymbol@rules@tree_sitter@@VLookaheadSet@build_tables@3@V?$_Uhash_compare@USymbol@rules@tree_sitter@@U?$hash@USymbol@rules@tree_sitter@@@std@@U?$equal_to@USymbol@rules@tree_sitter@@@5@@std@@V?$allocator@U?$pair@$$CBUSymbol@rules@tree_sitter@@VLookaheadSet@build_tables@3@@std@@@7@$0A@@std@@@std@@IEAAX_K@Z 000000018000f200 f i compiler:parse_table_builder.obj
 0001:0000e200       ?_Init@?$_Hash@V?$_Uset_traits@UNamedSymbol@rules@tree_sitter@@V?$_Uhash_compare@UNamedSymbol@rules@tree_sitter@@U?$hash@UNamedSymbol@rules@tree_sitter@@@std@@U?$equal_to@UNamedSymbol@rules@tree_sitter@@@5@@std@@V?$allocator@UNamedSymbol@rules@tree_sitter@@@5@$0A@@std@@@std@@IEAAX_K@Z 000000018000f200 f i compiler:parse_grammar.obj
 0001:0000e200       ?_Init@?$_Hash@V?$_Umap_traits@UParseItemSet@build_tables@tree_sitter@@_KV?$_Uhash_compare@UParseItemSet@build_tables@tree_sitter@@U?$hash@UParseItemSet@build_tables@tree_sitter@@@std@@U?$equal_to@UParseItemSet@build_tables@tree_sitter@@@5@@std@@V?$allocator@U?$pair@$$CBUParseItemSet@build_tables@tree_sitter@@_K@std@@@5@$0A@@std@@@std@@IEAAX_K@Z 000000018000f200 f i compiler:parse_table_builder.obj
 0001:0000e200       ?_Init@?$_Hash@V?$_Uset_traits@V?$basic_string@DU?$char_traits@D@std@@V?$allocator@D@2@@std@@V?$_Uhash_compare@V?$basic_string@DU?$char_traits@D@std@@V?$allocator@D@2@@std@@U?$hash@V?$basic_string@DU?$char_traits@D@std@@V?$allocator@D@2@@std@@@2@U?$equal_to@V?$basic_string@DU?$char_traits@D@std@@V?$allocator@D@2@@std@@@2@@2@V?$allocator@V?$basic_string@DU?$char_traits@D@std@@V?$allocator@D@2@@std@@@2@$0A@@std@@@std@@IEAAX_K@Z 000000018000f200 f i compiler:c_code.obj
 0001:0000e200       ?_Init@?$_Hash@V?$_Umap_traits@HUFollowSetInfo@build_tables@tree_sitter@@V?$_Uhash_compare@HU?$hash@H@std@@U?$equal_to@H@2@@std@@V?$allocator@U?$pair@$$CBHUFollowSetInfo@build_tables@tree_sitter@@@std@@@5@$0A@@std@@@std@@IEAAX_K@Z 000000018000f200 f i compiler:parse_item_set_builder.obj
 0001:0000e200       ?_Init@?$_Hash@V?$_Uset_traits@_KV?$_Uhash_compare@_KU?$hash@_K@std@@U?$equal_to@_K@2@@std@@V?$allocator@_K@2@$0A@@std@@@std@@IEAAX_K@Z 000000018000f200 f i compiler:parse_table_builder.obj
 0001:0000e200       ?_Init@?$_Hash@V?$_Umap_traits@_KHV?$_Uhash_compare@_KU?$hash@_K@std@@U?$equal_to@_K@2@@std@@V?$allocator@U?$pair@$$CB_KH@std@@@2@$0A@@std@@@std@@IEAAX_K@Z 000000018000f200 f i compiler:parse_table_builder.obj
 0001:0000e200       ?_Init@?$_Hash@V?$_Umap_traits@U?$pair@HH@std@@V?$unordered_set@_KU?$hash@_K@std@@U?$equal_to@_K@2@V?$allocator@_K@2@@2@V?$_Uhash_compare@U?$pair@HH@std@@U?$hash@U?$pair@HH@std@@@2@U?$equal_to@U?$pair@HH@std@@@2@@2@V?$allocator@U?$pair@$$CBU?$pair@HH@std@@V?$unordered_set@_KU?$hash@_K@std@@U?$equal_to@_K@2@V?$allocator@_K@2@@2@@std@@@2@$0A@@std@@@std@@IEAAX_K@Z 000000018000f200 f i compiler:parse_table_builder.obj
 0001:0000e2a0       ?allocate@?$_Wrap_alloc@V?$allocator@USymbol@rules@tree_sitter@@@std@@@std@@QEAAPEAUSymbol@rules@tree_sitter@@_K@Z 000000018000f2a0 f i compiler:parse_table_builder.obj
 0001:0000e2a0       ?allocate@?$_Wrap_alloc@U?$_Wrap_alloc@V?$allocator@V?$_List_unchecked_const_iterator@V?$_List_val@U?$_List_simple_types@VLexItem@build_tables@tree_sitter@@@std@@@std@@U_Iterator_base0@2@@std@@@std@@@std@@@std@@QEAAPEAV?$_List_unchecked_const_iterator@V?$_List_val@U?$_List_simple_types@VLexItem@build_tables@tree_sitter@@@std@@@std@@U_Iterator_base0@2@@2@_K@Z 000000018000f2a0 f i compiler:lex_table_builder.obj
 0001:0000e2a0       ?allocate@?$_Wrap_alloc@U?$_Wrap_alloc@V?$allocator@V?$_List_unchecked_const_iterator@V?$_List_val@U?$_List_simple_types@_K@std@@@std@@U_Iterator_base0@2@@std@@@std@@@std@@@std@@QEAAPEAV?$_List_unchecked_const_iterator@V?$_List_val@U?$_List_simple_types@_K@std@@@std@@U_Iterator_base0@2@@2@_K@Z 000000018000f2a0 f i compiler:parse_table_builder.obj
 0001:0000e2a0       ?allocate@?$_Wrap_alloc@V?$allocator@_K@std@@@std@@QEAAPEA_K_K@Z 000000018000f2a0 f i compiler:parse_table_builder.obj
 0001:0000e2a0       ?allocate@?$_Wrap_alloc@V?$allocator@PEAUParseState@tree_sitter@@@std@@@std@@QEAAPEAPEAUParseState@tree_sitter@@_K@Z 000000018000f2a0 f i compiler:lex_table_builder.obj
 0001:0000e2a0       ?allocate@?$_Wrap_alloc@U?$_Wrap_alloc@V?$allocator@V?$_List_unchecked_iterator@V?$_List_val@U?$_List_simple_types@U?$pair@$$CBU?$pair@HH@std@@V?$unordered_set@_KU?$hash@_K@std@@U?$equal_to@_K@2@V?$allocator@_K@2@@2@@std@@@std@@@std@@@std@@@std@@@std@@@std@@QEAAPEAV?$_List_unchecked_iterator@V?$_List_val@U?$_List_simple_types@U?$pair@$$CBU?$pair@HH@std@@V?$unordered_set@_KU?$hash@_K@std@@U?$equal_to@_K@2@V?$allocator@_K@2@@2@@std@@@std@@@std@@@2@_K@Z 000000018000f2a0 f i compiler:parse_table_builder.obj
 0001:0000e2a0       ?allocate@?$_Wrap_alloc@U?$_Wrap_alloc@V?$allocator@V?$_List_unchecked_iterator@V?$_List_val@U?$_List_simple_types@U?$pair@$$CBVLexItemSet@build_tables@tree_sitter@@_J@std@@@std@@@std@@@std@@@std@@@std@@@std@@QEAAPEAV?$_List_unchecked_iterator@V?$_List_val@U?$_List_simple_types@U?$pair@$$CBVLexItemSet@build_tables@tree_sitter@@_J@std@@@std@@@std@@@2@_K@Z 000000018000f2a0 f i compiler:lex_table_builder.obj
 0001:0000e2a0       ?allocate@?$_Wrap_alloc@U?$_Wrap_alloc@V?$allocator@V?$_List_unchecked_iterator@V?$_List_val@U?$_List_simple_types@U?$pair@$$CB_KV?$set@_KU?$less@_K@std@@V?$allocator@_K@2@@std@@@std@@@std@@@std@@@std@@@std@@@std@@@std@@QEAAPEAV?$_List_unchecked_iterator@V?$_List_val@U?$_List_simple_types@U?$pair@$$CB_KV?$set@_KU?$less@_K@std@@V?$allocator@_K@2@@std@@@std@@@std@@@std@@@2@_K@Z 000000018000f2a0 f i compiler:parse_table_builder.obj
 0001:0000e2a0       ?allocate@?$_Wrap_alloc@U?$_Wrap_alloc@V?$allocator@V?$_List_unchecked_iterator@V?$_List_val@U?$_List_simple_types@U?$pair@$$CBUSymbol@rules@tree_sitter@@UAlias@23@@std@@@std@@@std@@@std@@@std@@@std@@@std@@QEAAPEAV?$_List_unchecked_iterator@V?$_List_val@U?$_List_simple_types@U?$pair@$$CBUSymbol@rules@tree_sitter@@UAlias@23@@std@@@std@@@std@@@2@_K@Z 000000018000f2a0 f i compiler:c_code.obj
 0001:0000e2a0       ?allocate@?$_Wrap_alloc@U?$_Wrap_alloc@V?$allocator@V?$_List_unchecked_const_iterator@V?$_List_val@U?$_List_simple_types@V?$basic_string@DU?$char_traits@D@std@@V?$allocator@D@2@@std@@@std@@@std@@U_Iterator_base0@2@@std@@@std@@@std@@@std@@QEAAPEAV?$_List_unchecked_const_iterator@V?$_List_val@U?$_List_simple_types@V?$basic_string@DU?$char_traits@D@std@@V?$allocator@D@2@@std@@@std@@@std@@U_Iterator_base0@2@@2@_K@Z 000000018000f2a0 f i compiler:c_code.obj
 0001:0000e2a0       ?allocate@?$_Wrap_alloc@U?$_Wrap_alloc@V?$allocator@V?$_List_unchecked_iterator@V?$_List_val@U?$_List_simple_types@U?$pair@$$CBHUFollowSetInfo@build_tables@tree_sitter@@@std@@@std@@@std@@@std@@@std@@@std@@@std@@QEAAPEAV?$_List_unchecked_iterator@V?$_List_val@U?$_List_simple_types@U?$pair@$$CBHUFollowSetInfo@build_tables@tree_sitter@@@std@@@std@@@std@@@2@_K@Z 000000018000f2a0 f i compiler:parse_item_set_builder.obj
 0001:0000e2a0       ?allocate@?$_Wrap_alloc@U?$_Wrap_alloc@V?$allocator@V?$_List_unchecked_iterator@V?$_List_val@U?$_List_simple_types@U?$pair@$$CB_KH@std@@@std@@@std@@@std@@@std@@@std@@@std@@QEAAPEAV?$_List_unchecked_iterator@V?$_List_val@U?$_List_simple_types@U?$pair@$$CB_KH@std@@@std@@@std@@@2@_K@Z 000000018000f2a0 f i compiler:parse_table_builder.obj
 0001:0000e2a0       ?allocate@?$_Wrap_alloc@U?$_Wrap_alloc@V?$allocator@V?$_List_unchecked_iterator@V?$_List_val@U?$_List_simple_types@U?$pair@$$CBUSymbol@rules@tree_sitter@@VLookaheadSet@build_tables@3@@std@@@std@@@std@@@std@@@std@@@std@@@std@@QEAAPEAV?$_List_unchecked_iterator@V?$_List_val@U?$_List_simple_types@U?$pair@$$CBUSymbol@rules@tree_sitter@@VLookaheadSet@build_tables@3@@std@@@std@@@std@@@2@_K@Z 000000018000f2a0 f i compiler:parse_table_builder.obj
 0001:0000e2a0       ?allocate@?$_Wrap_alloc@U?$_Wrap_alloc@V?$allocator@V?$_List_unchecked_iterator@V?$_List_val@U?$_List_simple_types@U?$pair@$$CBUParseItemSet@build_tables@tree_sitter@@_K@std@@@std@@@std@@@std@@@std@@@std@@@std@@QEAAPEAV?$_List_unchecked_iterator@V?$_List_val@U?$_List_simple_types@U?$pair@$$CBUParseItemSet@build_tables@tree_sitter@@_K@std@@@std@@@std@@@2@_K@Z 000000018000f2a0 f i compiler:parse_table_builder.obj
 0001:0000e2a0       ?allocate@?$_Wrap_alloc@U?$_Wrap_alloc@V?$allocator@V?$_List_unchecked_const_iterator@V?$_List_val@U?$_List_simple_types@UNamedSymbol@rules@tree_sitter@@@std@@@std@@U_Iterator_base0@2@@std@@@std@@@std@@@std@@QEAAPEAV?$_List_unchecked_const_iterator@V?$_List_val@U?$_List_simple_types@UNamedSymbol@rules@tree_sitter@@@std@@@std@@U_Iterator_base0@2@@2@_K@Z 000000018000f2a0 f i compiler:parse_grammar.obj
 0001:0000e310       ?erase@?$_Tree@V?$_Tmap_traits@HUParseItemSet@build_tables@tree_sitter@@U?$less@H@std@@V?$allocator@U?$pair@$$CBHUParseItemSet@build_tables@tree_sitter@@@std@@@5@$0A@@std@@@std@@QEAA?AV?$_Tree_iterator@V?$_Tree_val@U?$_Tree_simple_types@U?$pair@$$CBHUParseItemSet@build_tables@tree_sitter@@@std@@@std@@@std@@@2@V?$_Tree_const_iterator@V?$_Tree_val@U?$_Tree_simple_types@U?$pair@$$CBHUParseItemSet@build_tables@tree_sitter@@@std@@@std@@@std@@@2@0@Z 000000018000f310 f i compiler:parse_table_builder.obj
 0001:0000e310       ?erase@?$_Tree@V?$_Tmap_traits@USymbol@rules@tree_sitter@@UParseItemSet@build_tables@3@U?$less@USymbol@rules@tree_sitter@@@std@@V?$allocator@U?$pair@$$CBUSymbol@rules@tree_sitter@@UParseItemSet@build_tables@3@@std@@@7@$0A@@std@@@std@@QEAA?AV?$_Tree_iterator@V?$_Tree_val@U?$_Tree_simple_types@U?$pair@$$CBUSymbol@rules@tree_sitter@@UParseItemSet@build_tables@3@@std@@@std@@@std@@@2@V?$_Tree_const_iterator@V?$_Tree_val@U?$_Tree_simple_types@U?$pair@$$CBUSymbol@rules@tree_sitter@@UParseItemSet@build_tables@3@@std@@@std@@@std@@@2@0@Z 000000018000f310 f i compiler:parse_table_builder.obj
 0001:0000e410       ?_Reallocate@?$vector@PEBUProduction@tree_sitter@@V?$allocator@PEBUProduction@tree_sitter@@@std@@@std@@IEAAX_K@Z 000000018000f410 f i compiler:parse_item_set_builder.obj
 0001:0000e410       ?_Reallocate@?$vector@PEBUParseItemSet@build_tables@tree_sitter@@V?$allocator@PEBUParseItemSet@build_tables@tree_sitter@@@std@@@std@@IEAAX_K@Z 000000018000f410 f i compiler:parse_table_builder.obj
 0001:0000e4f0       ?allocate@?$_Wrap_alloc@V?$allocator@ULexicalVariable@tree_sitter@@@std@@@std@@QEAAPEAULexicalVariable@tree_sitter@@_K@Z 000000018000f4f0 f i compiler:parse_table_builder.obj
 0001:0000e560       ?erase@?$_Tree@V?$_Tmap_traits@UParseItem@build_tables@tree_sitter@@VLookaheadSet@23@U?$less@UParseItem@build_tables@tree_sitter@@@std@@V?$allocator@U?$pair@$$CBUParseItem@build_tables@tree_sitter@@VLookaheadSet@23@@std@@@6@$0A@@std@@@std@@QEAA?AV?$_Tree_iterator@V?$_Tree_val@U?$_Tree_simple_types@U?$pair@$$CBUParseItem@build_tables@tree_sitter@@VLookaheadSet@23@@std@@@std@@@std@@@2@V?$_Tree_const_iterator@V?$_Tree_val@U?$_Tree_simple_types@U?$pair@$$CBUParseItem@build_tables@tree_sitter@@VLookaheadSet@23@@std@@@std@@@std@@@2@0@Z 000000018000f560 f i compiler:parse_table_builder.obj
 0001:0000e660       ?_Reallocate@?$vector@_KV?$allocator@_K@std@@@std@@IEAAX_K@Z 000000018000f660 f i compiler:extract_tokens.obj
 0001:0000e660       ?_Reallocate@?$vector@USymbol@rules@tree_sitter@@V?$allocator@USymbol@rules@tree_sitter@@@std@@@std@@IEAAX_K@Z 000000018000f660 f i compiler:parse_table_builder.obj
 0001:0000e6e0       ?_Buy@?$vector@IV?$allocator@_N@std@@@std@@IEAA_N_K@Z 000000018000f6e0 f i compiler:parse_table_builder.obj
 0001:0000e740       ?allocate@?$_Wrap_alloc@V?$allocator@V?$vector@UAlias@rules@tree_sitter@@V?$allocator@UAlias@rules@tree_sitter@@@std@@@std@@@std@@@std@@QEAAPEAV?$vector@UAlias@rules@tree_sitter@@V?$allocator@UAlias@rules@tree_sitter@@@std@@@2@_K@Z 000000018000f740 f i compiler:parse_table_builder.obj
 0001:0000e7b0       ?_Reallocate@?$vector@V?$vector@UAlias@rules@tree_sitter@@V?$allocator@UAlias@rules@tree_sitter@@@std@@@std@@V?$allocator@V?$vector@UAlias@rules@tree_sitter@@V?$allocator@UAlias@rules@tree_sitter@@@std@@@std@@@2@@std@@IEAAX_K@Z 000000018000f7b0 f i compiler:parse_table_builder.obj
 0001:0000e8d0       ?allocate@?$_Wrap_alloc@V?$allocator@UAlias@rules@tree_sitter@@@std@@@std@@QEAAPEAUAlias@rules@tree_sitter@@_K@Z 000000018000f8d0 f i compiler:parse_table_builder.obj
 0001:0000e8d0       ?allocate@?$_Wrap_alloc@V?$allocator@UParseState@tree_sitter@@@std@@@std@@QEAAPEAUParseState@tree_sitter@@_K@Z 000000018000f8d0 f i compiler:parse_table_builder.obj
 0001:0000e940       ?_Reallocate@?$vector@UParseState@tree_sitter@@V?$allocator@UParseState@tree_sitter@@@std@@@std@@IEAAX_K@Z 000000018000f940 f i compiler:parse_table_builder.obj
 0001:0000ea30       ?_Reallocate@?$vector@UAlias@rules@tree_sitter@@V?$allocator@UAlias@rules@tree_sitter@@@std@@@std@@IEAAX_K@Z 000000018000fa30 f i compiler:parse_table_builder.obj
 0001:0000eb40       ?allocate@?$_Wrap_alloc@V?$allocator@UParseAction@tree_sitter@@@std@@@std@@QEAAPEAUParseAction@tree_sitter@@_K@Z 000000018000fb40 f i compiler:parse_table_builder.obj
 0001:0000eb40       ?allocate@?$_Wrap_alloc@V?$allocator@UExternalToken@tree_sitter@@@std@@@std@@QEAAPEAUExternalToken@tree_sitter@@_K@Z 000000018000fb40 f i compiler:parse_table_builder.obj
 0001:0000ebb0       ?_Reallocate@?$vector@UParseAction@tree_sitter@@V?$allocator@UParseAction@tree_sitter@@@std@@@std@@IEAAX_K@Z 000000018000fbb0 f i compiler:parse_table_builder.obj
 0001:0000eca0       ?allocate@?$_Wrap_alloc@V?$allocator@V?$unordered_set@UNamedSymbol@rules@tree_sitter@@U?$hash@UNamedSymbol@rules@tree_sitter@@@std@@U?$equal_to@UNamedSymbol@rules@tree_sitter@@@5@V?$allocator@UNamedSymbol@rules@tree_sitter@@@5@@std@@@std@@@std@@QEAAPEAV?$unordered_set@UNamedSymbol@rules@tree_sitter@@U?$hash@UNamedSymbol@rules@tree_sitter@@@std@@U?$equal_to@UNamedSymbol@rules@tree_sitter@@@5@V?$allocator@UNamedSymbol@rules@tree_sitter@@@5@@2@_K@Z 000000018000fca0 f i compiler:parse_grammar.obj
 0001:0000eca0       ?allocate@?$_Wrap_alloc@V?$allocator@USyntaxVariable@tree_sitter@@@std@@@std@@QEAAPEAUSyntaxVariable@tree_sitter@@_K@Z 000000018000fca0 f i compiler:parse_table_builder.obj
 0001:0000ed10       ?allocate@?$_Wrap_alloc@V?$allocator@UProduction@tree_sitter@@@std@@@std@@QEAAPEAUProduction@tree_sitter@@_K@Z 000000018000fd10 f i compiler:parse_table_builder.obj
 0001:0000ed10       ?allocate@?$_Wrap_alloc@V?$allocator@ULexState@tree_sitter@@@std@@@std@@QEAAPEAULexState@tree_sitter@@_K@Z 000000018000fd10 f i compiler:parse_table_builder.obj
 0001:0000ed80       ?allocate@?$_Wrap_alloc@V?$allocator@URule@rules@tree_sitter@@@std@@@std@@QEAAPEAURule@rules@tree_sitter@@_K@Z 000000018000fd80 f i compiler:parse_table_builder.obj
 0001:0000ed80       ?allocate@?$_Wrap_alloc@V?$allocator@UNonTerminalQueueEntry@build_tables@tree_sitter@@@std@@@std@@QEAAPEAUNonTerminalQueueEntry@build_tables@tree_sitter@@_K@Z 000000018000fd80 f i compiler:parse_item_set_builder.obj
 0001:0000edf0       ?deallocate@?$_Wrap_alloc@V?$allocator@H@std@@@std@@QEAAXPEAH_K@Z 000000018000fdf0 f i compiler:flatten_grammar.obj
 0001:0000edf0       ?deallocate@?$_Wrap_alloc@V?$allocator@W4Associativity@rules@tree_sitter@@@std@@@std@@QEAAXPEAW4Associativity@rules@tree_sitter@@_K@Z 000000018000fdf0 f i compiler:flatten_grammar.obj
 0001:0000edf0       ?deallocate@?$_Wrap_alloc@V?$allocator@I@std@@@std@@QEAAXPEAI_K@Z 000000018000fdf0 f i compiler:parse_table_builder.obj
 0001:0000ee60       ?clear@?$list@U?$pair@$$CB_KV?$set@_KU?$less@_K@std@@V?$allocator@_K@2@@std@@@std@@V?$allocator@U?$pair@$$CB_KV?$set@_KU?$less@_K@std@@V?$allocator@_K@2@@std@@@std@@@2@@std@@QEAAXXZ 000000018000fe60 f i compiler:parse_table_builder.obj
 0001:0000eef0       ?erase@?$_Tree@V?$_Tmap_traits@HUParseItemSet@build_tables@tree_sitter@@U?$less@H@std@@V?$allocator@U?$pair@$$CBHUParseItemSet@build_tables@tree_sitter@@@std@@@5@$0A@@std@@@std@@QEAA?AV?$_Tree_iterator@V?$_Tree_val@U?$_Tree_simple_types@U?$pair@$$CBHUParseItemSet@build_tables@tree_sitter@@@std@@@std@@@std@@@2@V?$_Tree_const_iterator@V?$_Tree_val@U?$_Tree_simple_types@U?$pair@$$CBHUParseItemSet@build_tables@tree_sitter@@@std@@@std@@@std@@@2@@Z 000000018000fef0 f i compiler:parse_table_builder.obj
 0001:0000eef0       ?erase@?$_Tree@V?$_Tmap_traits@USymbol@rules@tree_sitter@@UParseItemSet@build_tables@3@U?$less@USymbol@rules@tree_sitter@@@std@@V?$allocator@U?$pair@$$CBUSymbol@rules@tree_sitter@@UParseItemSet@build_tables@3@@std@@@7@$0A@@std@@@std@@QEAA?AV?$_Tree_iterator@V?$_Tree_val@U?$_Tree_simple_types@U?$pair@$$CBUSymbol@rules@tree_sitter@@UParseItemSet@build_tables@3@@std@@@std@@@std@@@2@V?$_Tree_const_iterator@V?$_Tree_val@U?$_Tree_simple_types@U?$pair@$$CBUSymbol@rules@tree_sitter@@UParseItemSet@build_tables@3@@std@@@std@@@std@@@2@@Z 000000018000fef0 f i compiler:parse_table_builder.obj
 0001:0000f2b0       ?erase@?$_Tree@V?$_Tmap_traits@UParseItem@build_tables@tree_sitter@@VLookaheadSet@23@U?$less@UParseItem@build_tables@tree_sitter@@@std@@V?$allocator@U?$pair@$$CBUParseItem@build_tables@tree_sitter@@VLookaheadSet@23@@std@@@6@$0A@@std@@@std@@QEAA?AV?$_Tree_iterator@V?$_Tree_val@U?$_Tree_simple_types@U?$pair@$$CBUParseItem@build_tables@tree_sitter@@VLookaheadSet@23@@std@@@std@@@std@@@2@V?$_Tree_const_iterator@V?$_Tree_val@U?$_Tree_simple_types@U?$pair@$$CBUParseItem@build_tables@tree_sitter@@VLookaheadSet@23@@std@@@std@@@std@@@2@@Z 00000001800102b0 f i compiler:parse_table_builder.obj
 0001:0000f760       ?allocate@?$_Wrap_alloc@V?$allocator@H@std@@@std@@QEAAPEAH_K@Z 0000000180010760 f i compiler:flatten_grammar.obj
 0001:0000f760       ?allocate@?$_Wrap_alloc@V?$allocator@W4Associativity@rules@tree_sitter@@@std@@@std@@QEAAPEAW4Associativity@rules@tree_sitter@@_K@Z 0000000180010760 f i compiler:flatten_grammar.obj
 0001:0000f760       ?allocate@?$_Wrap_alloc@V?$allocator@I@std@@@std@@QEAAPEAI_K@Z 0000000180010760 f i compiler:parse_table_builder.obj
 0001:0000f7d0       ?_Reallocate@?$vector@V?$_List_unchecked_iterator@V?$_List_val@U?$_List_simple_types@U?$pair@$$CBUSymbol@rules@tree_sitter@@VLookaheadSet@build_tables@3@@std@@@std@@@std@@@std@@U?$_Wrap_alloc@V?$allocator@V?$_List_unchecked_iterator@V?$_List_val@U?$_List_simple_types@U?$pair@$$CBUSymbol@rules@tree_sitter@@VLookaheadSet@build_tables@3@@std@@@std@@@std@@@std@@@std@@@2@@std@@IEAAX_K@Z 00000001800107d0 f i compiler:parse_table_builder.obj
 0001:0000f7d0       ?_Reallocate@?$vector@V?$_List_unchecked_iterator@V?$_List_val@U?$_List_simple_types@U?$pair@$$CBVLexItemSet@build_tables@tree_sitter@@_J@std@@@std@@@std@@@std@@U?$_Wrap_alloc@V?$allocator@V?$_List_unchecked_iterator@V?$_List_val@U?$_List_simple_types@U?$pair@$$CBVLexItemSet@build_tables@tree_sitter@@_J@std@@@std@@@std@@@std@@@std@@@2@@std@@IEAAX_K@Z 00000001800107d0 f i compiler:lex_table_builder.obj
 0001:0000f7d0       ?_Reallocate@?$vector@V?$_List_unchecked_iterator@V?$_List_val@U?$_List_simple_types@U?$pair@$$CB_KH@std@@@std@@@std@@@std@@U?$_Wrap_alloc@V?$allocator@V?$_List_unchecked_iterator@V?$_List_val@U?$_List_simple_types@U?$pair@$$CB_KH@std@@@std@@@std@@@std@@@std@@@2@@std@@IEAAX_K@Z 00000001800107d0 f i compiler:parse_table_builder.obj
 0001:0000f7d0       ?_Reallocate@?$vector@V?$_List_unchecked_iterator@V?$_List_val@U?$_List_simple_types@U?$pair@$$CB_KV?$set@_KU?$less@_K@std@@V?$allocator@_K@2@@std@@@std@@@std@@@std@@@std@@U?$_Wrap_alloc@V?$allocator@V?$_List_unchecked_iterator@V?$_List_val@U?$_List_simple_types@U?$pair@$$CB_KV?$set@_KU?$less@_K@std@@V?$allocator@_K@2@@std@@@std@@@std@@@std@@@std@@@std@@@2@@std@@IEAAX_K@Z 00000001800107d0 f i compiler:parse_table_builder.obj
 0001:0000f7d0       ?_Reallocate@?$vector@V?$_List_unchecked_const_iterator@V?$_List_val@U?$_List_simple_types@UNamedSymbol@rules@tree_sitter@@@std@@@std@@U_Iterator_base0@2@@std@@U?$_Wrap_alloc@V?$allocator@V?$_List_unchecked_const_iterator@V?$_List_val@U?$_List_simple_types@UNamedSymbol@rules@tree_sitter@@@std@@@std@@U_Iterator_base0@2@@std@@@std@@@2@@std@@IEAAX_K@Z 00000001800107d0 f i compiler:parse_grammar.obj
 0001:0000f7d0       ?_Reallocate@?$vector@V?$_List_unchecked_iterator@V?$_List_val@U?$_List_simple_types@U?$pair@$$CBUParseItemSet@build_tables@tree_sitter@@_K@std@@@std@@@std@@@std@@U?$_Wrap_alloc@V?$allocator@V?$_List_unchecked_iterator@V?$_List_val@U?$_List_simple_types@U?$pair@$$CBUParseItemSet@build_tables@tree_sitter@@_K@std@@@std@@@std@@@std@@@std@@@2@@std@@IEAAX_K@Z 00000001800107d0 f i compiler:parse_table_builder.obj
 0001:0000f7d0       ?_Reallocate@?$vector@V?$_List_unchecked_const_iterator@V?$_List_val@U?$_List_simple_types@V?$basic_string@DU?$char_traits@D@std@@V?$allocator@D@2@@std@@@std@@@std@@U_Iterator_base0@2@@std@@U?$_Wrap_alloc@V?$allocator@V?$_List_unchecked_const_iterator@V?$_List_val@U?$_List_simple_types@V?$basic_string@DU?$char_traits@D@std@@V?$allocator@D@2@@std@@@std@@@std@@U_Iterator_base0@2@@std@@@std@@@2@@std@@IEAAX_K@Z 00000001800107d0 f i compiler:c_code.obj
 0001:0000f7d0       ?_Reallocate@?$vector@V?$_List_unchecked_const_iterator@V?$_List_val@U?$_List_simple_types@VLexItem@build_tables@tree_sitter@@@std@@@std@@U_Iterator_base0@2@@std@@U?$_Wrap_alloc@V?$allocator@V?$_List_unchecked_const_iterator@V?$_List_val@U?$_List_simple_types@VLexItem@build_tables@tree_sitter@@@std@@@std@@U_Iterator_base0@2@@std@@@std@@@2@@std@@IEAAX_K@Z 00000001800107d0 f i compiler:lex_table_builder.obj
 0001:0000f7d0       ?_Reallocate@?$vector@V?$_List_unchecked_iterator@V?$_List_val@U?$_List_simple_types@U?$pair@$$CBU?$pair@HH@std@@V?$unordered_set@_KU?$hash@_K@std@@U?$equal_to@_K@2@V?$allocator@_K@2@@2@@std@@@std@@@std@@@std@@U?$_Wrap_alloc@V?$allocator@V?$_List_unchecked_iterator@V?$_List_val@U?$_List_simple_types@U?$pair@$$CBU?$pair@HH@std@@V?$unordered_set@_KU?$hash@_K@std@@U?$equal_to@_K@2@V?$allocator@_K@2@@2@@std@@@std@@@std@@@std@@@std@@@2@@std@@IEAAX_K@Z 00000001800107d0 f i compiler:parse_table_builder.obj
 0001:0000f7d0       ?_Reallocate@?$vector@V?$_List_unchecked_iterator@V?$_List_val@U?$_List_simple_types@U?$pair@$$CBUSymbol@rules@tree_sitter@@UAlias@23@@std@@@std@@@std@@@std@@U?$_Wrap_alloc@V?$allocator@V?$_List_unchecked_iterator@V?$_List_val@U?$_List_simple_types@U?$pair@$$CBUSymbol@rules@tree_sitter@@UAlias@23@@std@@@std@@@std@@@std@@@std@@@2@@std@@IEAAX_K@Z 00000001800107d0 f i compiler:c_code.obj
 0001:0000f7d0       ?_Reallocate@?$vector@V?$_List_unchecked_const_iterator@V?$_List_val@U?$_List_simple_types@_K@std@@@std@@U_Iterator_base0@2@@std@@U?$_Wrap_alloc@V?$allocator@V?$_List_unchecked_const_iterator@V?$_List_val@U?$_List_simple_types@_K@std@@@std@@U_Iterator_base0@2@@std@@@std@@@2@@std@@IEAAX_K@Z 00000001800107d0 f i compiler:parse_table_builder.obj
 0001:0000f7d0       ?_Reallocate@?$vector@V?$_List_unchecked_iterator@V?$_List_val@U?$_List_simple_types@U?$pair@$$CBHUFollowSetInfo@build_tables@tree_sitter@@@std@@@std@@@std@@@std@@U?$_Wrap_alloc@V?$allocator@V?$_List_unchecked_iterator@V?$_List_val@U?$_List_simple_types@U?$pair@$$CBHUFollowSetInfo@build_tables@tree_sitter@@@std@@@std@@@std@@@std@@@std@@@2@@std@@IEAAX_K@Z 00000001800107d0 f i compiler:parse_item_set_builder.obj
 0001:0000f880       ?_Erase@?$_Tree@V?$_Tmap_traits@USymbol@rules@tree_sitter@@UParseItemSet@build_tables@3@U?$less@USymbol@rules@tree_sitter@@@std@@V?$allocator@U?$pair@$$CBUSymbol@rules@tree_sitter@@UParseItemSet@build_tables@3@@std@@@7@$0A@@std@@@std@@IEAAXPEAU?$_Tree_node@U?$pair@$$CBUSymbol@rules@tree_sitter@@UParseItemSet@build_tables@3@@std@@PEAX@2@@Z 0000000180010880 f i compiler:parse_table_builder.obj
 0001:0000f880       ?_Erase@?$_Tree@V?$_Tmap_traits@HUParseItemSet@build_tables@tree_sitter@@U?$less@H@std@@V?$allocator@U?$pair@$$CBHUParseItemSet@build_tables@tree_sitter@@@std@@@5@$0A@@std@@@std@@IEAAXPEAU?$_Tree_node@U?$pair@$$CBHUParseItemSet@build_tables@tree_sitter@@@std@@PEAX@2@@Z 0000000180010880 f i compiler:parse_table_builder.obj
 0001:0000f900       ?_Erase@?$_Tree@V?$_Tmap_traits@UParseItem@build_tables@tree_sitter@@VLookaheadSet@23@U?$less@UParseItem@build_tables@tree_sitter@@@std@@V?$allocator@U?$pair@$$CBUParseItem@build_tables@tree_sitter@@VLookaheadSet@23@@std@@@6@$0A@@std@@@std@@IEAAXPEAU?$_Tree_node@U?$pair@$$CBUParseItem@build_tables@tree_sitter@@VLookaheadSet@23@@std@@PEAX@2@@Z 0000000180010900 f i compiler:parse_table_builder.obj
 0001:0000fa90       ?_Insert_n@?$vector@V?$_List_unchecked_iterator@V?$_List_val@U?$_List_simple_types@U?$pair@$$CBUSymbol@rules@tree_sitter@@UAlias@23@@std@@@std@@@std@@@std@@U?$_Wrap_alloc@V?$allocator@V?$_List_unchecked_iterator@V?$_List_val@U?$_List_simple_types@U?$pair@$$CBUSymbol@rules@tree_sitter@@UAlias@23@@std@@@std@@@std@@@std@@@std@@@2@@std@@IEAA?AV?$_Vector_iterator@V?$_Vector_val@U?$_Simple_types@V?$_List_unchecked_iterator@V?$_List_val@U?$_List_simple_types@U?$pair@$$CBUSymbol@rules@tree_sitter@@UAlias@23@@std@@@std@@@std@@@std@@@std@@@std@@@2@V?$_Vector_const_iterator@V?$_Vector_val@U?$_Simple_types@V?$_List_unchecked_iterator@V?$_List_val@U?$_List_simple_types@U?$pair@$$CBUSymbol@rules@tree_sitter@@UAlias@23@@std@@@std@@@std@@@std@@@std@@@std@@@2@_KAEBV?$_List_unchecked_iterator@V?$_List_val@U?$_List_simple_types@U?$pair@$$CBUSymbol@rules@tree_sitter@@UAlias@23@@std@@@std@@@std@@@2@@Z 0000000180010a90 f i compiler:c_code.obj
 0001:0000fa90       ?_Insert_n@?$vector@V?$_List_unchecked_iterator@V?$_List_val@U?$_List_simple_types@U?$pair@$$CB_KV?$set@_KU?$less@_K@std@@V?$allocator@_K@2@@std@@@std@@@std@@@std@@@std@@U?$_Wrap_alloc@V?$allocator@V?$_List_unchecked_iterator@V?$_List_val@U?$_List_simple_types@U?$pair@$$CB_KV?$set@_KU?$less@_K@std@@V?$allocator@_K@2@@std@@@std@@@std@@@std@@@std@@@std@@@2@@std@@IEAA?AV?$_Vector_iterator@V?$_Vector_val@U?$_Simple_types@V?$_List_unchecked_iterator@V?$_List_val@U?$_List_simple_types@U?$pair@$$CB_KV?$set@_KU?$less@_K@std@@V?$allocator@_K@2@@std@@@std@@@std@@@std@@@std@@@std@@@std@@@2@V?$_Vector_const_iterator@V?$_Vector_val@U?$_Simple_types@V?$_List_unchecked_iterator@V?$_List_val@U?$_List_simple_types@U?$pair@$$CB_KV?$set@_KU?$less@_K@std@@V?$allocator@_K@2@@std@@@std@@@std@@@std@@@std@@@std@@@std@@@2@_KAEBV?$_List_unchecked_iterator@V?$_List_val@U?$_List_simple_types@U?$pair@$$CB_KV?$set@_KU?$less@_K@std@@V?$allocator@_K@2@@std@@@std@@@std@@@std@@@2@@Z 0000000180010a90 f i compiler:parse_table_builder.obj
 0001:0000fa90       ?_Insert_n@?$vector@V?$_List_unchecked_iterator@V?$_List_val@U?$_List_simple_types@U?$pair@$$CBUSymbol@rules@tree_sitter@@VLookaheadSet@build_tables@3@@std@@@std@@@std@@@std@@U?$_Wrap_alloc@V?$allocator@V?$_List_unchecked_iterator@V?$_List_val@U?$_List_simple_types@U?$pair@$$CBUSymbol@rules@tree_sitter@@VLookaheadSet@build_tables@3@@std@@@std@@@std@@@std@@@std@@@2@@std@@IEAA?AV?$_Vector_iterator@V?$_Vector_val@U?$_Simple_types@V?$_List_unchecked_iterator@V?$_List_val@U?$_List_simple_types@U?$pair@$$CBUSymbol@rules@tree_sitter@@VLookaheadSet@build_tables@3@@std@@@std@@@std@@@std@@@std@@@std@@@2@V?$_Vector_const_iterator@V?$_Vector_val@U?$_Simple_types@V?$_List_unchecked_iterator@V?$_List_val@U?$_List_simple_types@U?$pair@$$CBUSymbol@rules@tree_sitter@@VLookaheadSet@build_tables@3@@std@@@std@@@std@@@std@@@std@@@std@@@2@_KAEBV?$_List_unchecked_iterator@V?$_List_val@U?$_List_simple_types@U?$pair@$$CBUSymbol@rules@tree_sitter@@VLookaheadSet@build_tables@3@@std@@@std@@@std@@@2@@Z 0000000180010a90 f i compiler:parse_table_builder.obj
 0001:0000fa90       ?_Insert_n@?$vector@V?$_List_unchecked_iterator@V?$_List_val@U?$_List_simple_types@U?$pair@$$CBUParseItemSet@build_tables@tree_sitter@@_K@std@@@std@@@std@@@std@@U?$_Wrap_alloc@V?$allocator@V?$_List_unchecked_iterator@V?$_List_val@U?$_List_simple_types@U?$pair@$$CBUParseItemSet@build_tables@tree_sitter@@_K@std@@@std@@@std@@@std@@@std@@@2@@std@@IEAA?AV?$_Vector_iterator@V?$_Vector_val@U?$_Simple_types@V?$_List_unchecked_iterator@V?$_List_val@U?$_List_simple_types@U?$pair@$$CBUParseItemSet@build_tables@tree_sitter@@_K@std@@@std@@@std@@@std@@@std@@@std@@@2@V?$_Vector_const_iterator@V?$_Vector_val@U?$_Simple_types@V?$_List_unchecked_iterator@V?$_List_val@U?$_List_simple_types@U?$pair@$$CBUParseItemSet@build_tables@tree_sitter@@_K@std@@@std@@@std@@@std@@@std@@@std@@@2@_KAEBV?$_List_unchecked_iterator@V?$_List_val@U?$_List_simple_types@U?$pair@$$CBUParseItemSet@build_tables@tree_sitter@@_K@std@@@std@@@std@@@2@@Z 0000000180010a90 f i compiler:parse_table_builder.obj
 0001:0000fa90       ?_Insert_n@?$vector@V?$_List_unchecked_const_iterator@V?$_List_val@U?$_List_simple_types@VLexItem@build_tables@tree_sitter@@@std@@@std@@U_Iterator_base0@2@@std@@U?$_Wrap_alloc@V?$allocator@V?$_List_unchecked_const_iterator@V?$_List_val@U?$_List_simple_types@VLexItem@build_tables@tree_sitter@@@std@@@std@@U_Iterator_base0@2@@std@@@std@@@2@@std@@IEAA?AV?$_Vector_iterator@V?$_Vector_val@U?$_Simple_types@V?$_List_unchecked_const_iterator@V?$_List_val@U?$_List_simple_types@VLexItem@build_tables@tree_sitter@@@std@@@std@@U_Iterator_base0@2@@std@@@std@@@std@@@2@V?$_Vector_const_iterator@V?$_Vector_val@U?$_Simple_types@V?$_List_unchecked_const_iterator@V?$_List_val@U?$_List_simple_types@VLexItem@build_tables@tree_sitter@@@std@@@std@@U_Iterator_base0@2@@std@@@std@@@std@@@2@_KAEBV?$_List_unchecked_const_iterator@V?$_List_val@U?$_List_simple_types@VLexItem@build_tables@tree_sitter@@@std@@@std@@U_Iterator_base0@2@@2@@Z 0000000180010a90 f i compiler:lex_table_builder.obj
 0001:0000fa90       ?_Insert_n@?$vector@V?$_List_unchecked_const_iterator@V?$_List_val@U?$_List_simple_types@V?$basic_string@DU?$char_traits@D@std@@V?$allocator@D@2@@std@@@std@@@std@@U_Iterator_base0@2@@std@@U?$_Wrap_alloc@V?$allocator@V?$_List_unchecked_const_iterator@V?$_List_val@U?$_List_simple_types@V?$basic_string@DU?$char_traits@D@std@@V?$allocator@D@2@@std@@@std@@@std@@U_Iterator_base0@2@@std@@@std@@@2@@std@@IEAA?AV?$_Vector_iterator@V?$_Vector_val@U?$_Simple_types@V?$_List_unchecked_const_iterator@V?$_List_val@U?$_List_simple_types@V?$basic_string@DU?$char_traits@D@std@@V?$allocator@D@2@@std@@@std@@@std@@U_Iterator_base0@2@@std@@@std@@@std@@@2@V?$_Vector_const_iterator@V?$_Vector_val@U?$_Simple_types@V?$_List_unchecked_const_iterator@V?$_List_val@U?$_List_simple_types@V?$basic_string@DU?$char_traits@D@std@@V?$allocator@D@2@@std@@@std@@@std@@U_Iterator_base0@2@@std@@@std@@@std@@@2@_KAEBV?$_List_unchecked_const_iterator@V?$_List_val@U?$_List_simple_types@V?$basic_string@DU?$char_traits@D@std@@V?$allocator@D@2@@std@@@std@@@std@@U_Iterator_base0@2@@2@@Z 0000000180010a90 f i compiler:c_code.obj
 0001:0000fa90       ?_Insert_n@?$vector@V?$_List_unchecked_iterator@V?$_List_val@U?$_List_simple_types@U?$pair@$$CBVLexItemSet@build_tables@tree_sitter@@_J@std@@@std@@@std@@@std@@U?$_Wrap_alloc@V?$allocator@V?$_List_unchecked_iterator@V?$_List_val@U?$_List_simple_types@U?$pair@$$CBVLexItemSet@build_tables@tree_sitter@@_J@std@@@std@@@std@@@std@@@std@@@2@@std@@IEAA?AV?$_Vector_iterator@V?$_Vector_val@U?$_Simple_types@V?$_List_unchecked_iterator@V?$_List_val@U?$_List_simple_types@U?$pair@$$CBVLexItemSet@build_tables@tree_sitter@@_J@std@@@std@@@std@@@std@@@std@@@std@@@2@V?$_Vector_const_iterator@V?$_Vector_val@U?$_Simple_types@V?$_List_unchecked_iterator@V?$_List_val@U?$_List_simple_types@U?$pair@$$CBVLexItemSet@build_tables@tree_sitter@@_J@std@@@std@@@std@@@std@@@std@@@std@@@2@_KAEBV?$_List_unchecked_iterator@V?$_List_val@U?$_List_simple_types@U?$pair@$$CBVLexItemSet@build_tables@tree_sitter@@_J@std@@@std@@@std@@@2@@Z 0000000180010a90 f i compiler:lex_table_builder.obj
 0001:0000fa90       ?_Insert_n@?$vector@V?$_List_unchecked_iterator@V?$_List_val@U?$_List_simple_types@U?$pair@$$CBHUFollowSetInfo@build_tables@tree_sitter@@@std@@@std@@@std@@@std@@U?$_Wrap_alloc@V?$allocator@V?$_List_unchecked_iterator@V?$_List_val@U?$_List_simple_types@U?$pair@$$CBHUFollowSetInfo@build_tables@tree_sitter@@@std@@@std@@@std@@@std@@@std@@@2@@std@@IEAA?AV?$_Vector_iterator@V?$_Vector_val@U?$_Simple_types@V?$_List_unchecked_iterator@V?$_List_val@U?$_List_simple_types@U?$pair@$$CBHUFollowSetInfo@build_tables@tree_sitter@@@std@@@std@@@std@@@std@@@std@@@std@@@2@V?$_Vector_const_iterator@V?$_Vector_val@U?$_Simple_types@V?$_List_unchecked_iterator@V?$_List_val@U?$_List_simple_types@U?$pair@$$CBHUFollowSetInfo@build_tables@tree_sitter@@@std@@@std@@@std@@@std@@@std@@@std@@@2@_KAEBV?$_List_unchecked_iterator@V?$_List_val@U?$_List_simple_types@U?$pair@$$CBHUFollowSetInfo@build_tables@tree_sitter@@@std@@@std@@@std@@@2@@Z 0000000180010a90 f i compiler:parse_item_set_builder.obj
 0001:0000fa90       ?_Insert_n@?$vector@V?$_List_unchecked_iterator@V?$_List_val@U?$_List_simple_types@U?$pair@$$CBU?$pair@HH@std@@V?$unordered_set@_KU?$hash@_K@std@@U?$equal_to@_K@2@V?$allocator@_K@2@@2@@std@@@std@@@std@@@std@@U?$_Wrap_alloc@V?$allocator@V?$_List_unchecked_iterator@V?$_List_val@U?$_List_simple_types@U?$pair@$$CBU?$pair@HH@std@@V?$unordered_set@_KU?$hash@_K@std@@U?$equal_to@_K@2@V?$allocator@_K@2@@2@@std@@@std@@@std@@@std@@@std@@@2@@std@@IEAA?AV?$_Vector_iterator@V?$_Vector_val@U?$_Simple_types@V?$_List_unchecked_iterator@V?$_List_val@U?$_List_simple_types@U?$pair@$$CBU?$pair@HH@std@@V?$unordered_set@_KU?$hash@_K@std@@U?$equal_to@_K@2@V?$allocator@_K@2@@2@@std@@@std@@@std@@@std@@@std@@@std@@@2@V?$_Vector_const_iterator@V?$_Vector_val@U?$_Simple_types@V?$_List_unchecked_iterator@V?$_List_val@U?$_List_simple_types@U?$pair@$$CBU?$pair@HH@std@@V?$unordered_set@_KU?$hash@_K@std@@U?$equal_to@_K@2@V?$allocator@_K@2@@2@@std@@@std@@@std@@@std@@@std@@@std@@@2@_KAEBV?$_List_unchecked_iterator@V?$_List_val@U?$_List_simple_types@U?$pair@$$CBU?$pair@HH@std@@V?$unordered_set@_KU?$hash@_K@std@@U?$equal_to@_K@2@V?$allocator@_K@2@@2@@std@@@std@@@std@@@2@@Z 0000000180010a90 f i compiler:parse_table_builder.obj
 0001:0000fa90       ?_Insert_n@?$vector@V?$_List_unchecked_iterator@V?$_List_val@U?$_List_simple_types@U?$pair@$$CB_KH@std@@@std@@@std@@@std@@U?$_Wrap_alloc@V?$allocator@V?$_List_unchecked_iterator@V?$_List_val@U?$_List_simple_types@U?$pair@$$CB_KH@std@@@std@@@std@@@std@@@std@@@2@@std@@IEAA?AV?$_Vector_iterator@V?$_Vector_val@U?$_Simple_types@V?$_List_unchecked_iterator@V?$_List_val@U?$_List_simple_types@U?$pair@$$CB_KH@std@@@std@@@std@@@std@@@std@@@std@@@2@V?$_Vector_const_iterator@V?$_Vector_val@U?$_Simple_types@V?$_List_unchecked_iterator@V?$_List_val@U?$_List_simple_types@U?$pair@$$CB_KH@std@@@std@@@std@@@std@@@std@@@std@@@2@_KAEBV?$_List_unchecked_iterator@V?$_List_val@U?$_List_simple_types@U?$pair@$$CB_KH@std@@@std@@@std@@@2@@Z 0000000180010a90 f i compiler:parse_table_builder.obj
 0001:0000fa90       ?_Insert_n@?$vector@V?$_List_unchecked_const_iterator@V?$_List_val@U?$_List_simple_types@UNamedSymbol@rules@tree_sitter@@@std@@@std@@U_Iterator_base0@2@@std@@U?$_Wrap_alloc@V?$allocator@V?$_List_unchecked_const_iterator@V?$_List_val@U?$_List_simple_types@UNamedSymbol@rules@tree_sitter@@@std@@@std@@U_Iterator_base0@2@@std@@@std@@@2@@std@@IEAA?AV?$_Vector_iterator@V?$_Vector_val@U?$_Simple_types@V?$_List_unchecked_const_iterator@V?$_List_val@U?$_List_simple_types@UNamedSymbol@rules@tree_sitter@@@std@@@std@@U_Iterator_base0@2@@std@@@std@@@std@@@2@V?$_Vector_const_iterator@V?$_Vector_val@U?$_Simple_types@V?$_List_unchecked_const_iterator@V?$_List_val@U?$_List_simple_types@UNamedSymbol@rules@tree_sitter@@@std@@@std@@U_Iterator_base0@2@@std@@@std@@@std@@@2@_KAEBV?$_List_unchecked_const_iterator@V?$_List_val@U?$_List_simple_types@UNamedSymbol@rules@tree_sitter@@@std@@@std@@U_Iterator_base0@2@@2@@Z 0000000180010a90 f i compiler:parse_grammar.obj
 0001:0000fa90       ?_Insert_n@?$vector@V?$_List_unchecked_const_iterator@V?$_List_val@U?$_List_simple_types@_K@std@@@std@@U_Iterator_base0@2@@std@@U?$_Wrap_alloc@V?$allocator@V?$_List_unchecked_const_iterator@V?$_List_val@U?$_List_simple_types@_K@std@@@std@@U_Iterator_base0@2@@std@@@std@@@2@@std@@IEAA?AV?$_Vector_iterator@V?$_Vector_val@U?$_Simple_types@V?$_List_unchecked_const_iterator@V?$_List_val@U?$_List_simple_types@_K@std@@@std@@U_Iterator_base0@2@@std@@@std@@@std@@@2@V?$_Vector_const_iterator@V?$_Vector_val@U?$_Simple_types@V?$_List_unchecked_const_iterator@V?$_List_val@U?$_List_simple_types@_K@std@@@std@@U_Iterator_base0@2@@std@@@std@@@std@@@2@_KAEBV?$_List_unchecked_const_iterator@V?$_List_val@U?$_List_simple_types@_K@std@@@std@@U_Iterator_base0@2@@2@@Z 0000000180010a90 f i compiler:parse_table_builder.obj
 0001:0000fd80       ??$_Integral_to_string@D_K@std@@YA?AV?$basic_string@DU?$char_traits@D@std@@V?$allocator@D@2@@0@_K@Z 0000000180010d80 f i compiler:parse_table_builder.obj
 0001:0000fe20       ??$for_each@V<lambda_7502a5e269492955e4f7f4e5ea32ad24>@@@LookaheadSet@build_tables@tree_sitter@@QEBAXAEBV<lambda_7502a5e269492955e4f7f4e5ea32ad24>@@@Z 0000000180010e20 f i compiler:parse_table_builder.obj
 0001:00010020       ??$for_each@V<lambda_a5d3337339997a398bcef3d988c1a2d8>@@@LookaheadSet@build_tables@tree_sitter@@QEBAXAEBV<lambda_a5d3337339997a398bcef3d988c1a2d8>@@@Z 0000000180011020 f i compiler:parse_table_builder.obj
 0001:00010220       ??$?8UParseAction@tree_sitter@@V?$allocator@UParseAction@tree_sitter@@@std@@@std@@YA_NAEBV?$vector@UParseAction@tree_sitter@@V?$allocator@UParseAction@tree_sitter@@@std@@@0@0@Z 0000000180011220 f i compiler:parse_table_builder.obj
 0001:000102a0       ??$?HDU?$char_traits@D@std@@V?$allocator@D@1@@std@@YA?AV?$basic_string@DU?$char_traits@D@std@@V?$allocator@D@2@@0@PEBD$$QEAV10@@Z 00000001800112a0 f i compiler:parse_table_builder.obj
 0001:00010300       ??$?HDU?$char_traits@D@std@@V?$allocator@D@1@@std@@YA?AV?$basic_string@DU?$char_traits@D@std@@V?$allocator@D@2@@0@$$QEAV10@AEBV10@@Z 0000000180011300 f i compiler:parse_table_builder.obj
 0001:00010350       ??$?HDU?$char_traits@D@std@@V?$allocator@D@1@@std@@YA?AV?$basic_string@DU?$char_traits@D@std@@V?$allocator@D@2@@0@$$QEAV10@0@Z 0000000180011350 f i compiler:parse_table_builder.obj
 0001:000103e0       ??$for_each@V<lambda_b8bf3f008e6128ed58c6ad65adbc1004>@@@LookaheadSet@build_tables@tree_sitter@@QEBAXAEBV<lambda_b8bf3f008e6128ed58c6ad65adbc1004>@@@Z 00000001800113e0 f i compiler:parse_table_builder.obj
 0001:00010600       ??$for_each@V<lambda_9c99ff47f9291b79b61333a78daefe0d>@@@LookaheadSet@build_tables@tree_sitter@@QEBAXAEBV<lambda_9c99ff47f9291b79b61333a78daefe0d>@@@Z 0000000180011600 f i compiler:parse_table_builder.obj
 0001:000107a0       ??$?0U?$_Wrap_alloc@V?$allocator@U?$_Tree_node@_KPEAX@std@@@std@@@std@@@?$_Tree@V?$_Tset_traits@_KU?$less@_K@std@@V?$allocator@_K@2@$0A@@std@@@std@@QEAA@AEBV01@$$QEAU?$_Wrap_alloc@V?$allocator@U?$_Tree_node@_KPEAX@std@@@std@@@1@@Z 00000001800117a0 f i compiler:parse_table_builder.obj
 0001:000108a0       ??$?0U?$_Wrap_alloc@V?$allocator@U?$_Tree_node@U?$pair@$$CBUParseItem@build_tables@tree_sitter@@VLookaheadSet@23@@std@@PEAX@std@@@std@@@std@@@?$_Tree@V?$_Tmap_traits@UParseItem@build_tables@tree_sitter@@VLookaheadSet@23@U?$less@UParseItem@build_tables@tree_sitter@@@std@@V?$allocator@U?$pair@$$CBUParseItem@build_tables@tree_sitter@@VLookaheadSet@23@@std@@@6@$0A@@std@@@std@@QEAA@AEBV01@$$QEAU?$_Wrap_alloc@V?$allocator@U?$_Tree_node@U?$pair@$$CBUParseItem@build_tables@tree_sitter@@VLookaheadSet@23@@std@@PEAX@std@@@std@@@1@@Z 00000001800118a0 f i compiler:parse_table_builder.obj
 0001:000109a0       ??$insert@PEBU?$pair@$$CBUParseItem@build_tables@tree_sitter@@VLookaheadSet@23@@std@@@?$_Tree@V?$_Tmap_traits@UParseItem@build_tables@tree_sitter@@VLookaheadSet@23@U?$less@UParseItem@build_tables@tree_sitter@@@std@@V?$allocator@U?$pair@$$CBUParseItem@build_tables@tree_sitter@@VLookaheadSet@23@@std@@@6@$0A@@std@@@std@@QEAAXPEBU?$pair@$$CBUParseItem@build_tables@tree_sitter@@VLookaheadSet@23@@1@0@Z 00000001800119a0 f i compiler:parse_table_builder.obj
 0001:00010a60       ??$_Eqrange@USymbol@rules@tree_sitter@@@?$_Tree@V?$_Tmap_traits@USymbol@rules@tree_sitter@@UParseTableEntry@3@U?$less@USymbol@rules@tree_sitter@@@std@@V?$allocator@U?$pair@$$CBUSymbol@rules@tree_sitter@@UParseTableEntry@3@@std@@@6@$0A@@std@@@std@@IEBA?AU?$pair@V?$_Tree_const_iterator@V?$_Tree_val@U?$_Tree_simple_types@U?$pair@$$CBUSymbol@rules@tree_sitter@@UParseTableEntry@3@@std@@@std@@@std@@@std@@V12@@1@AEBUSymbol@rules@tree_sitter@@@Z 0000000180011a60 f i compiler:parse_table_builder.obj
 0001:00010b20       ??$_Eqrange@USymbol@rules@tree_sitter@@@?$_Tree@V?$_Tset_traits@USymbol@rules@tree_sitter@@U?$less@USymbol@rules@tree_sitter@@@std@@V?$allocator@USymbol@rules@tree_sitter@@@5@$0A@@std@@@std@@IEBA?AU?$pair@V?$_Tree_const_iterator@V?$_Tree_val@U?$_Tree_simple_types@USymbol@rules@tree_sitter@@@std@@@std@@@std@@V12@@1@AEBUSymbol@rules@tree_sitter@@@Z 0000000180011b20 f i compiler:parse_table_builder.obj
 0001:00010be0       ??$_Umove@PEAV?$_List_unchecked_iterator@V?$_List_val@U?$_List_simple_types@U?$pair@$$CBUSymbol@rules@tree_sitter@@VLookaheadSet@build_tables@3@@std@@@std@@@std@@@std@@@?$vector@V?$_List_unchecked_iterator@V?$_List_val@U?$_List_simple_types@U?$pair@$$CBUSymbol@rules@tree_sitter@@VLookaheadSet@build_tables@3@@std@@@std@@@std@@@std@@U?$_Wrap_alloc@V?$allocator@V?$_List_unchecked_iterator@V?$_List_val@U?$_List_simple_types@U?$pair@$$CBUSymbol@rules@tree_sitter@@VLookaheadSet@build_tables@3@@std@@@std@@@std@@@std@@@std@@@2@@std@@IEAAPEAV?$_List_unchecked_iterator@V?$_List_val@U?$_List_simple_types@U?$pair@$$CBUSymbol@rules@tree_sitter@@VLookaheadSet@build_tables@3@@std@@@std@@@std@@@1@PEAV21@00@Z 0000000180011be0 f i compiler:parse_table_builder.obj
 0001:00010be0       ??$_Umove@PEAV?$_List_unchecked_iterator@V?$_List_val@U?$_List_simple_types@U?$pair@$$CBVLexItemSet@build_tables@tree_sitter@@_J@std@@@std@@@std@@@std@@@?$vector@V?$_List_unchecked_iterator@V?$_List_val@U?$_List_simple_types@U?$pair@$$CBVLexItemSet@build_tables@tree_sitter@@_J@std@@@std@@@std@@@std@@U?$_Wrap_alloc@V?$allocator@V?$_List_unchecked_iterator@V?$_List_val@U?$_List_simple_types@U?$pair@$$CBVLexItemSet@build_tables@tree_sitter@@_J@std@@@std@@@std@@@std@@@std@@@2@@std@@IEAAPEAV?$_List_unchecked_iterator@V?$_List_val@U?$_List_simple_types@U?$pair@$$CBVLexItemSet@build_tables@tree_sitter@@_J@std@@@std@@@std@@@1@PEAV21@00@Z 0000000180011be0 f i compiler:lex_table_builder.obj
 0001:00010be0       ??$_Umove@PEAV?$_List_unchecked_const_iterator@V?$_List_val@U?$_List_simple_types@VLexItem@build_tables@tree_sitter@@@std@@@std@@U_Iterator_base0@2@@std@@@?$vector@V?$_List_unchecked_const_iterator@V?$_List_val@U?$_List_simple_types@VLexItem@build_tables@tree_sitter@@@std@@@std@@U_Iterator_base0@2@@std@@U?$_Wrap_alloc@V?$allocator@V?$_List_unchecked_const_iterator@V?$_List_val@U?$_List_simple_types@VLexItem@build_tables@tree_sitter@@@std@@@std@@U_Iterator_base0@2@@std@@@std@@@2@@std@@IEAAPEAV?$_List_unchecked_const_iterator@V?$_List_val@U?$_List_simple_types@VLexItem@build_tables@tree_sitter@@@std@@@std@@U_Iterator_base0@2@@1@PEAV21@00@Z 0000000180011be0 f i compiler:lex_table_builder.obj
 0001:00010be0       ??$_Umove@PEAV?$_List_unchecked_const_iterator@V?$_List_val@U?$_List_simple_types@UNamedSymbol@rules@tree_sitter@@@std@@@std@@U_Iterator_base0@2@@std@@@?$vector@V?$_List_unchecked_const_iterator@V?$_List_val@U?$_List_simple_types@UNamedSymbol@rules@tree_sitter@@@std@@@std@@U_Iterator_base0@2@@std@@U?$_Wrap_alloc@V?$allocator@V?$_List_unchecked_const_iterator@V?$_List_val@U?$_List_simple_types@UNamedSymbol@rules@tree_sitter@@@std@@@std@@U_Iterator_base0@2@@std@@@std@@@2@@std@@IEAAPEAV?$_List_unchecked_const_iterator@V?$_List_val@U?$_List_simple_types@UNamedSymbol@rules@tree_sitter@@@std@@@std@@U_Iterator_base0@2@@1@PEAV21@00@Z 0000000180011be0 f i compiler:parse_grammar.obj
 0001:00010be0       ??$_Umove@PEAV?$_List_unchecked_const_iterator@V?$_List_val@U?$_List_simple_types@V?$basic_string@DU?$char_traits@D@std@@V?$allocator@D@2@@std@@@std@@@std@@U_Iterator_base0@2@@std@@@?$vector@V?$_List_unchecked_const_iterator@V?$_List_val@U?$_List_simple_types@V?$basic_string@DU?$char_traits@D@std@@V?$allocator@D@2@@std@@@std@@@std@@U_Iterator_base0@2@@std@@U?$_Wrap_alloc@V?$allocator@V?$_List_unchecked_const_iterator@V?$_List_val@U?$_List_simple_types@V?$basic_string@DU?$char_traits@D@std@@V?$allocator@D@2@@std@@@std@@@std@@U_Iterator_base0@2@@std@@@std@@@2@@std@@IEAAPEAV?$_List_unchecked_const_iterator@V?$_List_val@U?$_List_simple_types@V?$basic_string@DU?$char_traits@D@std@@V?$allocator@D@2@@std@@@std@@@std@@U_Iterator_base0@2@@1@PEAV21@00@Z 0000000180011be0 f i compiler:c_code.obj
 0001:00010be0       ??$_Umove@PEAV?$_List_unchecked_iterator@V?$_List_val@U?$_List_simple_types@U?$pair@$$CBUSymbol@rules@tree_sitter@@UAlias@23@@std@@@std@@@std@@@std@@@?$vector@V?$_List_unchecked_iterator@V?$_List_val@U?$_List_simple_types@U?$pair@$$CBUSymbol@rules@tree_sitter@@UAlias@23@@std@@@std@@@std@@@std@@U?$_Wrap_alloc@V?$allocator@V?$_List_unchecked_iterator@V?$_List_val@U?$_List_simple_types@U?$pair@$$CBUSymbol@rules@tree_sitter@@UAlias@23@@std@@@std@@@std@@@std@@@std@@@2@@std@@IEAAPEAV?$_List_unchecked_iterator@V?$_List_val@U?$_List_simple_types@U?$pair@$$CBUSymbol@rules@tree_sitter@@UAlias@23@@std@@@std@@@std@@@1@PEAV21@00@Z 0000000180011be0 f i compiler:c_code.obj
 0001:00010be0       ??$_Umove@PEAV?$_List_unchecked_iterator@V?$_List_val@U?$_List_simple_types@U?$pair@$$CBUParseItemSet@build_tables@tree_sitter@@_K@std@@@std@@@std@@@std@@@?$vector@V?$_List_unchecked_iterator@V?$_List_val@U?$_List_simple_types@U?$pair@$$CBUParseItemSet@build_tables@tree_sitter@@_K@std@@@std@@@std@@@std@@U?$_Wrap_alloc@V?$allocator@V?$_List_unchecked_iterator@V?$_List_val@U?$_List_simple_types@U?$pair@$$CBUParseItemSet@build_tables@tree_sitter@@_K@std@@@std@@@std@@@std@@@std@@@2@@std@@IEAAPEAV?$_List_unchecked_iterator@V?$_List_val@U?$_List_simple_types@U?$pair@$$CBUParseItemSet@build_tables@tree_sitter@@_K@std@@@std@@@std@@@1@PEAV21@00@Z 0000000180011be0 f i compiler:parse_table_builder.obj
 0001:00010be0       ??$_Umove@PEAV?$_List_unchecked_iterator@V?$_List_val@U?$_List_simple_types@U?$pair@$$CBHUFollowSetInfo@build_tables@tree_sitter@@@std@@@std@@@std@@@std@@@?$vector@V?$_List_unchecked_iterator@V?$_List_val@U?$_List_simple_types@U?$pair@$$CBHUFollowSetInfo@build_tables@tree_sitter@@@std@@@std@@@std@@@std@@U?$_Wrap_alloc@V?$allocator@V?$_List_unchecked_iterator@V?$_List_val@U?$_List_simple_types@U?$pair@$$CBHUFollowSetInfo@build_tables@tree_sitter@@@std@@@std@@@std@@@std@@@std@@@2@@std@@IEAAPEAV?$_List_unchecked_iterator@V?$_List_val@U?$_List_simple_types@U?$pair@$$CBHUFollowSetInfo@build_tables@tree_sitter@@@std@@@std@@@std@@@1@PEAV21@00@Z 0000000180011be0 f i compiler:parse_item_set_builder.obj
 0001:00010be0       ??$_Umove@PEAV?$_List_unchecked_const_iterator@V?$_List_val@U?$_List_simple_types@_K@std@@@std@@U_Iterator_base0@2@@std@@@?$vector@V?$_List_unchecked_const_iterator@V?$_List_val@U?$_List_simple_types@_K@std@@@std@@U_Iterator_base0@2@@std@@U?$_Wrap_alloc@V?$allocator@V?$_List_unchecked_const_iterator@V?$_List_val@U?$_List_simple_types@_K@std@@@std@@U_Iterator_base0@2@@std@@@std@@@2@@std@@IEAAPEAV?$_List_unchecked_const_iterator@V?$_List_val@U?$_List_simple_types@_K@std@@@std@@U_Iterator_base0@2@@1@PEAV21@00@Z 0000000180011be0 f i compiler:parse_table_builder.obj
 0001:00010be0       ??$_Umove@PEAV?$_List_unchecked_iterator@V?$_List_val@U?$_List_simple_types@U?$pair@$$CBU?$pair@HH@std@@V?$unordered_set@_KU?$hash@_K@std@@U?$equal_to@_K@2@V?$allocator@_K@2@@2@@std@@@std@@@std@@@std@@@?$vector@V?$_List_unchecked_iterator@V?$_List_val@U?$_List_simple_types@U?$pair@$$CBU?$pair@HH@std@@V?$unordered_set@_KU?$hash@_K@std@@U?$equal_to@_K@2@V?$allocator@_K@2@@2@@std@@@std@@@std@@@std@@U?$_Wrap_alloc@V?$allocator@V?$_List_unchecked_iterator@V?$_List_val@U?$_List_simple_types@U?$pair@$$CBU?$pair@HH@std@@V?$unordered_set@_KU?$hash@_K@std@@U?$equal_to@_K@2@V?$allocator@_K@2@@2@@std@@@std@@@std@@@std@@@std@@@2@@std@@IEAAPEAV?$_List_unchecked_iterator@V?$_List_val@U?$_List_simple_types@U?$pair@$$CBU?$pair@HH@std@@V?$unordered_set@_KU?$hash@_K@std@@U?$equal_to@_K@2@V?$allocator@_K@2@@2@@std@@@std@@@std@@@1@PEAV21@00@Z 0000000180011be0 f i compiler:parse_table_builder.obj
 0001:00010be0       ??$_Umove@PEAV?$_List_unchecked_iterator@V?$_List_val@U?$_List_simple_types@U?$pair@$$CB_KV?$set@_KU?$less@_K@std@@V?$allocator@_K@2@@std@@@std@@@std@@@std@@@std@@@?$vector@V?$_List_unchecked_iterator@V?$_List_val@U?$_List_simple_types@U?$pair@$$CB_KV?$set@_KU?$less@_K@std@@V?$allocator@_K@2@@std@@@std@@@std@@@std@@@std@@U?$_Wrap_alloc@V?$allocator@V?$_List_unchecked_iterator@V?$_List_val@U?$_List_simple_types@U?$pair@$$CB_KV?$set@_KU?$less@_K@std@@V?$allocator@_K@2@@std@@@std@@@std@@@std@@@std@@@std@@@2@@std@@IEAAPEAV?$_List_unchecked_iterator@V?$_List_val@U?$_List_simple_types@U?$pair@$$CB_KV?$set@_KU?$less@_K@std@@V?$allocator@_K@2@@std@@@std@@@std@@@std@@@1@PEAV21@00@Z 0000000180011be0 f i compiler:parse_table_builder.obj
 0001:00010be0       ??$_Umove@PEAV?$_List_unchecked_iterator@V?$_List_val@U?$_List_simple_types@U?$pair@$$CB_KH@std@@@std@@@std@@@std@@@?$vector@V?$_List_unchecked_iterator@V?$_List_val@U?$_List_simple_types@U?$pair@$$CB_KH@std@@@std@@@std@@@std@@U?$_Wrap_alloc@V?$allocator@V?$_List_unchecked_iterator@V?$_List_val@U?$_List_simple_types@U?$pair@$$CB_KH@std@@@std@@@std@@@std@@@std@@@2@@std@@IEAAPEAV?$_List_unchecked_iterator@V?$_List_val@U?$_List_simple_types@U?$pair@$$CB_KH@std@@@std@@@std@@@1@PEAV21@00@Z 0000000180011be0 f i compiler:parse_table_builder.obj
 0001:00010c20       ??0LookaheadSet@build_tables@tree_sitter@@QEAA@$$QEAV012@@Z 0000000180011c20 f i compiler:parse_table_builder.obj
 0001:00010cb0       ?insert@?$basic_string@DU?$char_traits@D@std@@V?$allocator@D@2@@std@@QEAAAEAV12@_KPEBD0@Z 0000000180011cb0 f i compiler:parse_table_builder.obj
 0001:00010e30       ?insert@?$basic_string@DU?$char_traits@D@std@@V?$allocator@D@2@@std@@QEAAAEAV12@_KAEBV12@00@Z 0000000180011e30 f i compiler:parse_table_builder.obj
 0001:00011000       ??$_Insert@U?$pair@$$CBUParseItemSet@build_tables@tree_sitter@@_K@std@@U_Nil@2@@?$_Hash@V?$_Umap_traits@UParseItemSet@build_tables@tree_sitter@@_KV?$_Uhash_compare@UParseItemSet@build_tables@tree_sitter@@U?$hash@UParseItemSet@build_tables@tree_sitter@@@std@@U?$equal_to@UParseItemSet@build_tables@tree_sitter@@@5@@std@@V?$allocator@U?$pair@$$CBUParseItemSet@build_tables@tree_sitter@@_K@std@@@5@$0A@@std@@@std@@IEAA?AU?$pair@V?$_List_iterator@V?$_List_val@U?$_List_simple_types@U?$pair@$$CBUParseItemSet@build_tables@tree_sitter@@_K@std@@@std@@@std@@@std@@_N@1@$$QEAU?$pair@$$CBUParseItemSet@build_tables@tree_sitter@@_K@1@U_Nil@1@@Z 0000000180012000 f i compiler:parse_table_builder.obj
 0001:000111e0       ??$_Insert_nohint@AEBUSymbol@rules@tree_sitter@@U_Nil@std@@@?$_Tree@V?$_Tset_traits@USymbol@rules@tree_sitter@@U?$less@USymbol@rules@tree_sitter@@@std@@V?$allocator@USymbol@rules@tree_sitter@@@5@$0A@@std@@@std@@IEAA?AU?$pair@V?$_Tree_const_iterator@V?$_Tree_val@U?$_Tree_simple_types@USymbol@rules@tree_sitter@@@std@@@std@@@std@@_N@1@_NAEBUSymbol@rules@tree_sitter@@U_Nil@1@@Z 00000001800121e0 f i compiler:parse_table_builder.obj
 0001:000111e0       ??$_Insert_nohint@USymbol@rules@tree_sitter@@U_Nil@std@@@?$_Tree@V?$_Tset_traits@USymbol@rules@tree_sitter@@U?$less@USymbol@rules@tree_sitter@@@std@@V?$allocator@USymbol@rules@tree_sitter@@@5@$0A@@std@@@std@@IEAA?AU?$pair@V?$_Tree_const_iterator@V?$_Tree_val@U?$_Tree_simple_types@USymbol@rules@tree_sitter@@@std@@@std@@@std@@_N@1@_N$$QEAUSymbol@rules@tree_sitter@@U_Nil@1@@Z 00000001800121e0 f i compiler:parse_table_builder.obj
 0001:00011330       ??$_Insert@AEB_KU_Nil@std@@@?$_Hash@V?$_Uset_traits@_KV?$_Uhash_compare@_KU?$hash@_K@std@@U?$equal_to@_K@2@@std@@V?$allocator@_K@2@$0A@@std@@@std@@IEAA?AU?$pair@V?$_List_const_iterator@V?$_List_val@U?$_List_simple_types@_K@std@@@std@@@std@@_N@1@AEB_KU_Nil@1@@Z 0000000180012330 f i compiler:parse_table_builder.obj
 0001:000114d0       ??$_Insert_nohint@AEB_KU_Nil@std@@@?$_Tree@V?$_Tset_traits@_KU?$less@_K@std@@V?$allocator@_K@2@$0A@@std@@@std@@IEAA?AU?$pair@V?$_Tree_const_iterator@V?$_Tree_val@U?$_Tree_simple_types@_K@std@@@std@@@std@@_N@1@_NAEB_KU_Nil@1@@Z 00000001800124d0 f i compiler:parse_table_builder.obj
 0001:00011620       ??$_Insert_nohint@U?$pair@$$CB_K_K@std@@U_Nil@2@@?$_Tree@V?$_Tmap_traits@_K_KU?$less@_K@std@@V?$allocator@U?$pair@$$CB_K_K@std@@@2@$0A@@std@@@std@@IEAA?AU?$pair@V?$_Tree_iterator@V?$_Tree_val@U?$_Tree_simple_types@U?$pair@$$CB_K_K@std@@@std@@@std@@@std@@_N@1@_N$$QEAU?$pair@$$CB_K_K@1@U_Nil@1@@Z 0000000180012620 f i compiler:parse_table_builder.obj
 0001:00011770       ??$_Insert_nohint@U?$pair@USymbol@rules@tree_sitter@@U123@@std@@U_Nil@2@@?$_Tree@V?$_Tset_traits@U?$pair@USymbol@rules@tree_sitter@@U123@@std@@U?$less@U?$pair@USymbol@rules@tree_sitter@@U123@@std@@@2@V?$allocator@U?$pair@USymbol@rules@tree_sitter@@U123@@std@@@2@$0A@@std@@@std@@IEAA?AU?$pair@V?$_Tree_const_iterator@V?$_Tree_val@U?$_Tree_simple_types@U?$pair@USymbol@rules@tree_sitter@@U123@@std@@@std@@@std@@@std@@_N@1@_N$$QEAU?$pair@USymbol@rules@tree_sitter@@U123@@1@U_Nil@1@@Z 0000000180012770 f i compiler:parse_table_builder.obj
 0001:00011900       ??$_Insert_nohint@AEBUParseItem@build_tables@tree_sitter@@U_Nil@std@@@?$_Tree@V?$_Tset_traits@UParseItem@build_tables@tree_sitter@@U?$less@UParseItem@build_tables@tree_sitter@@@std@@V?$allocator@UParseItem@build_tables@tree_sitter@@@5@$0A@@std@@@std@@IEAA?AU?$pair@V?$_Tree_const_iterator@V?$_Tree_val@U?$_Tree_simple_types@UParseItem@build_tables@tree_sitter@@@std@@@std@@@std@@_N@1@_NAEBUParseItem@build_tables@tree_sitter@@U_Nil@1@@Z 0000000180012900 f i compiler:parse_table_builder.obj
 0001:00011a50       ??$_Assign@V?$_Vector_const_iterator@V?$_Vector_val@U?$_Simple_types@USymbol@rules@tree_sitter@@@std@@@std@@@std@@@?$vector@USymbol@rules@tree_sitter@@V?$allocator@USymbol@rules@tree_sitter@@@std@@@std@@QEAAXV?$_Vector_const_iterator@V?$_Vector_val@U?$_Simple_types@USymbol@rules@tree_sitter@@@std@@@std@@@1@0Uforward_iterator_tag@1@@Z 0000000180012a50 f i compiler:parse_table_builder.obj
 0001:00011b50       ??$_Distance1@V?$_Tree_const_iterator@V?$_Tree_val@U?$_Tree_simple_types@U?$pair@$$CBUSymbol@rules@tree_sitter@@UParseTableEntry@3@@std@@@std@@@std@@@std@@@std@@YA_JV?$_Tree_const_iterator@V?$_Tree_val@U?$_Tree_simple_types@U?$pair@$$CBUSymbol@rules@tree_sitter@@UParseTableEntry@3@@std@@@std@@@std@@@0@0Uinput_iterator_tag@0@@Z 0000000180012b50 f i compiler:parse_table_builder.obj
 0001:00011b50       ??$_Distance1@V?$_Tree_const_iterator@V?$_Tree_val@U?$_Tree_simple_types@I@std@@@std@@@std@@@std@@YA_JV?$_Tree_const_iterator@V?$_Tree_val@U?$_Tree_simple_types@I@std@@@std@@@0@0Uinput_iterator_tag@0@@Z 0000000180012b50 f i compiler:c_code.obj
 0001:00011b50       ??$_Distance1@V?$_Tree_const_iterator@V?$_Tree_val@U?$_Tree_simple_types@USymbol@rules@tree_sitter@@@std@@@std@@@std@@@std@@YA_JV?$_Tree_const_iterator@V?$_Tree_val@U?$_Tree_simple_types@USymbol@rules@tree_sitter@@@std@@@std@@@0@0Uinput_iterator_tag@0@@Z 0000000180012b50 f i compiler:parse_table_builder.obj
 0001:00011b50       ??$_Distance1@V?$_Tree_const_iterator@V?$_Tree_val@U?$_Tree_simple_types@U?$pair@$$CBH_K@std@@@std@@@std@@@std@@@std@@YA_JV?$_Tree_const_iterator@V?$_Tree_val@U?$_Tree_simple_types@U?$pair@$$CBH_K@std@@@std@@@std@@@0@0Uinput_iterator_tag@0@@Z 0000000180012b50 f i compiler:parse_table_builder.obj
 0001:00011b50       ??$_Distance1@V?$_Tree_const_iterator@V?$_Tree_val@U?$_Tree_simple_types@U?$pair@$$CB_K_K@std@@@std@@@std@@@std@@@std@@YA_JV?$_Tree_const_iterator@V?$_Tree_val@U?$_Tree_simple_types@U?$pair@$$CB_K_K@std@@@std@@@std@@@0@0Uinput_iterator_tag@0@@Z 0000000180012b50 f i compiler:parse_table_builder.obj
 0001:00011bd0       ??$_Try_emplace@AEBH$$V@?$map@HUParseItemSet@build_tables@tree_sitter@@U?$less@H@std@@V?$allocator@U?$pair@$$CBHUParseItemSet@build_tables@tree_sitter@@@std@@@5@@std@@QEAA?AU?$pair@V?$_Tree_iterator@V?$_Tree_val@U?$_Tree_simple_types@U?$pair@$$CBHUParseItemSet@build_tables@tree_sitter@@@std@@@std@@@std@@@std@@_N@1@AEBH@Z 0000000180012bd0 f i compiler:parse_table_builder.obj
 0001:00011d10       ??$_Try_emplace@AEBUSymbol@rules@tree_sitter@@$$V@?$map@USymbol@rules@tree_sitter@@UParseItemSet@build_tables@3@U?$less@USymbol@rules@tree_sitter@@@std@@V?$allocator@U?$pair@$$CBUSymbol@rules@tree_sitter@@UParseItemSet@build_tables@3@@std@@@7@@std@@QEAA?AU?$pair@V?$_Tree_iterator@V?$_Tree_val@U?$_Tree_simple_types@U?$pair@$$CBUSymbol@rules@tree_sitter@@UParseItemSet@build_tables@3@@std@@@std@@@std@@@std@@_N@1@AEBUSymbol@rules@tree_sitter@@@Z 0000000180012d10 f i compiler:parse_table_builder.obj
 0001:00011e80       ??$_Try_emplace@AEBUSymbol@rules@tree_sitter@@$$V@?$unordered_map@USymbol@rules@tree_sitter@@VLookaheadSet@build_tables@3@U?$hash@USymbol@rules@tree_sitter@@@std@@U?$equal_to@USymbol@rules@tree_sitter@@@7@V?$allocator@U?$pair@$$CBUSymbol@rules@tree_sitter@@VLookaheadSet@build_tables@3@@std@@@7@@std@@QEAA?AU?$pair@V?$_List_iterator@V?$_List_val@U?$_List_simple_types@U?$pair@$$CBUSymbol@rules@tree_sitter@@VLookaheadSet@build_tables@3@@std@@@std@@@std@@@std@@_N@1@AEBUSymbol@rules@tree_sitter@@@Z 0000000180012e80 f i compiler:parse_table_builder.obj
 0001:00012000       ??$_Try_emplace@U?$pair@HH@std@@$$V@?$unordered_map@U?$pair@HH@std@@V?$unordered_set@_KU?$hash@_K@std@@U?$equal_to@_K@2@V?$allocator@_K@2@@2@U?$hash@U?$pair@HH@std@@@2@U?$equal_to@U?$pair@HH@std@@@2@V?$allocator@U?$pair@$$CBU?$pair@HH@std@@V?$unordered_set@_KU?$hash@_K@std@@U?$equal_to@_K@2@V?$allocator@_K@2@@2@@std@@@2@@std@@QEAA?AU?$pair@V?$_List_iterator@V?$_List_val@U?$_List_simple_types@U?$pair@$$CBU?$pair@HH@std@@V?$unordered_set@_KU?$hash@_K@std@@U?$equal_to@_K@2@V?$allocator@_K@2@@2@@std@@@std@@@std@@@std@@_N@1@$$QEAU?$pair@HH@1@@Z 0000000180013000 f i compiler:parse_table_builder.obj
 0001:00012110       ??$_Try_emplace@AEBUParseItem@build_tables@tree_sitter@@$$V@?$map@UParseItem@build_tables@tree_sitter@@VLookaheadSet@23@U?$less@UParseItem@build_tables@tree_sitter@@@std@@V?$allocator@U?$pair@$$CBUParseItem@build_tables@tree_sitter@@VLookaheadSet@23@@std@@@6@@std@@QEAA?AU?$pair@V?$_Tree_iterator@V?$_Tree_val@U?$_Tree_simple_types@U?$pair@$$CBUParseItem@build_tables@tree_sitter@@VLookaheadSet@23@@std@@@std@@@std@@@std@@_N@1@AEBUParseItem@build_tables@tree_sitter@@@Z 0000000180013110 f i compiler:parse_table_builder.obj
 0001:00012240       ??$_Construct@PEBUSymbol@rules@tree_sitter@@@?$vector@USymbol@rules@tree_sitter@@V?$allocator@USymbol@rules@tree_sitter@@@std@@@std@@QEAAXPEBUSymbol@rules@tree_sitter@@0Uforward_iterator_tag@1@@Z 0000000180013240 f i compiler:parse_table_builder.obj
 0001:00012240       ??$_Construct@PEBQEAUParseState@tree_sitter@@@?$vector@PEAUParseState@tree_sitter@@V?$allocator@PEAUParseState@tree_sitter@@@std@@@std@@QEAAXPEBQEAUParseState@tree_sitter@@0Uforward_iterator_tag@1@@Z 0000000180013240 f i compiler:lex_table_builder.obj
 0001:000122f0       ??$_Move_unchecked1@PEAUParseState@tree_sitter@@PEAU12@@std@@YAPEAUParseState@tree_sitter@@PEAU12@00U_General_ptr_iterator_tag@0@@Z 00000001800132f0 f i compiler:parse_table_builder.obj
 0001:00012440       ??$_Try_emplace@AEBH$$V@?$map@H_KU?$less@H@std@@V?$allocator@U?$pair@$$CBH_K@std@@@2@@std@@QEAA?AU?$pair@V?$_Tree_iterator@V?$_Tree_val@U?$_Tree_simple_types@U?$pair@$$CBH_K@std@@@std@@@std@@@std@@_N@1@AEBH@Z 0000000180013440 f i compiler:parse_table_builder.obj
 0001:00012530       ??$_Try_emplace@USymbol@rules@tree_sitter@@$$V@?$map@USymbol@rules@tree_sitter@@UParseTableEntry@3@U?$less@USymbol@rules@tree_sitter@@@std@@V?$allocator@U?$pair@$$CBUSymbol@rules@tree_sitter@@UParseTableEntry@3@@std@@@6@@std@@QEAA?AU?$pair@V?$_Tree_iterator@V?$_Tree_val@U?$_Tree_simple_types@U?$pair@$$CBUSymbol@rules@tree_sitter@@UParseTableEntry@3@@std@@@std@@@std@@@std@@_N@1@$$QEAUSymbol@rules@tree_sitter@@@Z 0000000180013530 f i compiler:parse_table_builder.obj
 0001:00012530       ??$_Try_emplace@AEBUSymbol@rules@tree_sitter@@$$V@?$map@USymbol@rules@tree_sitter@@UParseTableEntry@3@U?$less@USymbol@rules@tree_sitter@@@std@@V?$allocator@U?$pair@$$CBUSymbol@rules@tree_sitter@@UParseTableEntry@3@@std@@@6@@std@@QEAA?AU?$pair@V?$_Tree_iterator@V?$_Tree_val@U?$_Tree_simple_types@U?$pair@$$CBUSymbol@rules@tree_sitter@@UParseTableEntry@3@@std@@@std@@@std@@@std@@_N@1@AEBUSymbol@rules@tree_sitter@@@Z 0000000180013530 f i compiler:parse_table_builder.obj
 0001:00012650       ??$_Assign@PEBUParseAction@tree_sitter@@@?$vector@UParseAction@tree_sitter@@V?$allocator@UParseAction@tree_sitter@@@std@@@std@@QEAAXPEBUParseAction@tree_sitter@@0Uforward_iterator_tag@1@@Z 0000000180013650 f i compiler:parse_table_builder.obj
 0001:000127a0       ??$_Copy@U_Copy_tag@?$_Tree@V?$_Tset_traits@V?$set@USymbol@rules@tree_sitter@@U?$less@USymbol@rules@tree_sitter@@@std@@V?$allocator@USymbol@rules@tree_sitter@@@5@@std@@U?$less@V?$set@USymbol@rules@tree_sitter@@U?$less@USymbol@rules@tree_sitter@@@std@@V?$allocator@USymbol@rules@tree_sitter@@@5@@std@@@2@V?$allocator@V?$set@USymbol@rules@tree_sitter@@U?$less@USymbol@rules@tree_sitter@@@std@@V?$allocator@USymbol@rules@tree_sitter@@@5@@std@@@2@$0A@@std@@@std@@@?$_Tree@V?$_Tset_traits@V?$set@USymbol@rules@tree_sitter@@U?$less@USymbol@rules@tree_sitter@@@std@@V?$allocator@USymbol@rules@tree_sitter@@@5@@std@@U?$less@V?$set@USymbol@rules@tree_sitter@@U?$less@USymbol@rules@tree_sitter@@@std@@V?$allocator@USymbol@rules@tree_sitter@@@5@@std@@@2@V?$allocator@V?$set@USymbol@rules@tree_sitter@@U?$less@USymbol@rules@tree_sitter@@@std@@V?$allocator@USymbol@rules@tree_sitter@@@5@@std@@@2@$0A@@std@@@std@@IEAAXAEBV01@U_Copy_tag@01@@Z 00000001800137a0 f i compiler:parse_table_builder.obj
 0001:00012850       ??$_Copy@U_Copy_tag@?$_Tree@V?$_Tset_traits@USymbol@rules@tree_sitter@@U?$less@USymbol@rules@tree_sitter@@@std@@V?$allocator@USymbol@rules@tree_sitter@@@5@$0A@@std@@@std@@@?$_Tree@V?$_Tset_traits@USymbol@rules@tree_sitter@@U?$less@USymbol@rules@tree_sitter@@@std@@V?$allocator@USymbol@rules@tree_sitter@@@5@$0A@@std@@@std@@IEAAXAEBV01@U_Copy_tag@01@@Z 0000000180013850 f i compiler:parse_table_builder.obj
 0001:00012900       ??$_Copy@U_Copy_tag@?$_Tree@V?$_Tset_traits@IU?$less@I@std@@V?$allocator@I@2@$0A@@std@@@std@@@?$_Tree@V?$_Tset_traits@IU?$less@I@std@@V?$allocator@I@2@$0A@@std@@@std@@IEAAXAEBV01@U_Copy_tag@01@@Z 0000000180013900 f i compiler:parse_table_builder.obj
 0001:000129b0       ?_Check_size@?$_Hash@V?$_Umap_traits@_KHV?$_Uhash_compare@_KU?$hash@_K@std@@U?$equal_to@_K@2@@std@@V?$allocator@U?$pair@$$CB_KH@std@@@2@$0A@@std@@@std@@IEAAXXZ 00000001800139b0 f i compiler:parse_table_builder.obj
 0001:000129b0       ?_Check_size@?$_Hash@V?$_Uset_traits@_KV?$_Uhash_compare@_KU?$hash@_K@std@@U?$equal_to@_K@2@@std@@V?$allocator@_K@2@$0A@@std@@@std@@IEAAXXZ 00000001800139b0 f i compiler:parse_table_builder.obj
 0001:00012a70       ??R?$less@U?$pair@USymbol@rules@tree_sitter@@U123@@std@@@std@@QEBA_NAEBU?$pair@USymbol@rules@tree_sitter@@U123@@1@0@Z 0000000180013a70 f i compiler:parse_table_builder.obj
 0001:00012ac0       ?_Check_size@?$_Hash@V?$_Umap_traits@UParseItemSet@build_tables@tree_sitter@@_KV?$_Uhash_compare@UParseItemSet@build_tables@tree_sitter@@U?$hash@UParseItemSet@build_tables@tree_sitter@@@std@@U?$equal_to@UParseItemSet@build_tables@tree_sitter@@@5@@std@@V?$allocator@U?$pair@$$CBUParseItemSet@build_tables@tree_sitter@@_K@std@@@5@$0A@@std@@@std@@IEAAXXZ 0000000180013ac0 f i compiler:parse_table_builder.obj
 0001:00012b80       ?lower_bound@?$_Hash@V?$_Umap_traits@U?$pair@HH@std@@V?$unordered_set@_KU?$hash@_K@std@@U?$equal_to@_K@2@V?$allocator@_K@2@@2@V?$_Uhash_compare@U?$pair@HH@std@@U?$hash@U?$pair@HH@std@@@2@U?$equal_to@U?$pair@HH@std@@@2@@2@V?$allocator@U?$pair@$$CBU?$pair@HH@std@@V?$unordered_set@_KU?$hash@_K@std@@U?$equal_to@_K@2@V?$allocator@_K@2@@2@@std@@@2@$0A@@std@@@std@@QEBA?AV?$_List_const_iterator@V?$_List_val@U?$_List_simple_types@U?$pair@$$CBU?$pair@HH@std@@V?$unordered_set@_KU?$hash@_K@std@@U?$equal_to@_K@2@V?$allocator@_K@2@@2@@std@@@std@@@std@@@2@AEBU?$pair@HH@2@@Z 0000000180013b80 f i compiler:lex_table_builder.obj
 0001:00012b80       ?lower_bound@?$_Hash@V?$_Umap_traits@U?$pair@HH@std@@V?$unordered_set@_KU?$hash@_K@std@@U?$equal_to@_K@2@V?$allocator@_K@2@@2@V?$_Uhash_compare@U?$pair@HH@std@@U?$hash@U?$pair@HH@std@@@2@U?$equal_to@U?$pair@HH@std@@@2@@2@V?$allocator@U?$pair@$$CBU?$pair@HH@std@@V?$unordered_set@_KU?$hash@_K@std@@U?$equal_to@_K@2@V?$allocator@_K@2@@2@@std@@@2@$0A@@std@@@std@@QEAA?AV?$_List_iterator@V?$_List_val@U?$_List_simple_types@U?$pair@$$CBU?$pair@HH@std@@V?$unordered_set@_KU?$hash@_K@std@@U?$equal_to@_K@2@V?$allocator@_K@2@@2@@std@@@std@@@std@@@2@AEBU?$pair@HH@2@@Z 0000000180013b80 f i compiler:parse_table_builder.obj
 0001:00012c80       ?allocate@?$_Wrap_alloc@V?$allocator@UProductionStep@tree_sitter@@@std@@@std@@QEAAPEAUProductionStep@tree_sitter@@_K@Z 0000000180013c80 f i compiler:parse_table_builder.obj
 0001:00012cf0       __except_validate_context_record 0000000180013cf0 f i libvcruntime:jbcxrval.obj
 0001:00012cf0       _guard_check_icall_nop     0000000180013cf0 f i LIBCMT:guard_support.obj
 0001:00012cf0       ??$destroy@_K@?$_Wrap_alloc@V?$allocator@U?$_List_node@_KPEAX@std@@@std@@@std@@QEAAXPEA_K@Z 0000000180013cf0 f i compiler:parse_table_builder.obj
 0001:00012cf0       ??$destroy@PEAU?$_Tree_node@U?$pair@$$CBDV?$basic_string@DU?$char_traits@D@std@@V?$allocator@D@2@@std@@@std@@PEAX@std@@@?$_Wrap_alloc@V?$allocator@U?$_Tree_node@U?$pair@$$CBDV?$basic_string@DU?$char_traits@D@std@@V?$allocator@D@2@@std@@@std@@PEAX@std@@@std@@@std@@QEAAXPEAPEAU?$_Tree_node@U?$pair@$$CBDV?$basic_string@DU?$char_traits@D@std@@V?$allocator@D@2@@std@@@std@@PEAX@1@@Z 0000000180013cf0 f i compiler:c_code.obj
 0001:00012cf0       ?_Destroy@?$vector@V?$_List_unchecked_const_iterator@V?$_List_val@U?$_List_simple_types@_K@std@@@std@@U_Iterator_base0@2@@std@@U?$_Wrap_alloc@V?$allocator@V?$_List_unchecked_const_iterator@V?$_List_val@U?$_List_simple_types@_K@std@@@std@@U_Iterator_base0@2@@std@@@std@@@2@@std@@IEAAXPEAV?$_List_unchecked_const_iterator@V?$_List_val@U?$_List_simple_types@_K@std@@@std@@U_Iterator_base0@2@@2@0@Z 0000000180013cf0 f i compiler:parse_table_builder.obj
 0001:00012cf0       ?_Orphan_all@?$_Vector_alloc@U?$_Vec_base_types@V?$_List_unchecked_const_iterator@V?$_List_val@U?$_List_simple_types@_K@std@@@std@@U_Iterator_base0@2@@std@@U?$_Wrap_alloc@V?$allocator@V?$_List_unchecked_const_iterator@V?$_List_val@U?$_List_simple_types@_K@std@@@std@@U_Iterator_base0@2@@std@@@std@@@2@@std@@@std@@QEAAXXZ 0000000180013cf0 f i compiler:parse_table_builder.obj
 0001:00012cf0       ??$destroy@PEAU?$_List_node@_KPEAX@std@@@?$_Wrap_alloc@V?$allocator@U?$_List_node@_KPEAX@std@@@std@@@std@@QEAAXPEAPEAU?$_List_node@_KPEAX@1@@Z 0000000180013cf0 f i compiler:parse_table_builder.obj
 0001:00012d00       ??$_Insert_at@AEBUSymbol@rules@tree_sitter@@U_Nil@std@@@?$_Tree@V?$_Tset_traits@USymbol@rules@tree_sitter@@U?$less@USymbol@rules@tree_sitter@@@std@@V?$allocator@USymbol@rules@tree_sitter@@@5@$0A@@std@@@std@@IEAA?AV?$_Tree_const_iterator@V?$_Tree_val@U?$_Tree_simple_types@USymbol@rules@tree_sitter@@@std@@@std@@@1@_NPEAU?$_Tree_node@USymbol@rules@tree_sitter@@PEAX@1@AEBUSymbol@rules@tree_sitter@@U_Nil@1@@Z 0000000180013d00 f i compiler:parse_table_builder.obj
 0001:00012d00       ??$_Insert_at@U?$pair@$$CBHH@std@@U_Nil@2@@?$_Tree@V?$_Tmap_traits@HHU?$less@H@std@@V?$allocator@U?$pair@$$CBHH@std@@@2@$0A@@std@@@std@@IEAA?AV?$_Tree_iterator@V?$_Tree_val@U?$_Tree_simple_types@U?$pair@$$CBHH@std@@@std@@@std@@@1@_NPEAU?$_Tree_node@U?$pair@$$CBHH@std@@PEAX@1@$$QEAU?$pair@$$CBHH@1@U_Nil@1@@Z 0000000180013d00 f i compiler:c_code.obj
 0001:00012d00       ??$_Insert_at@USymbol@rules@tree_sitter@@U_Nil@std@@@?$_Tree@V?$_Tset_traits@USymbol@rules@tree_sitter@@U?$less@USymbol@rules@tree_sitter@@@std@@V?$allocator@USymbol@rules@tree_sitter@@@5@$0A@@std@@@std@@IEAA?AV?$_Tree_const_iterator@V?$_Tree_val@U?$_Tree_simple_types@USymbol@rules@tree_sitter@@@std@@@std@@@1@_NPEAU?$_Tree_node@USymbol@rules@tree_sitter@@PEAX@1@$$QEAUSymbol@rules@tree_sitter@@U_Nil@1@@Z 0000000180013d00 f i compiler:parse_table_builder.obj
 0001:00013010       ??$_Insert_at@AEB_KU_Nil@std@@@?$_Tree@V?$_Tset_traits@_KU?$less@_K@std@@V?$allocator@_K@2@$0A@@std@@@std@@IEAA?AV?$_Tree_const_iterator@V?$_Tree_val@U?$_Tree_simple_types@_K@std@@@std@@@1@_NPEAU?$_Tree_node@_KPEAX@1@AEB_KU_Nil@1@@Z 0000000180014010 f i compiler:parse_table_builder.obj
 0001:00013320       ??$_Insert_at@U?$pair@$$CB_J_J@std@@U_Nil@2@@?$_Tree@V?$_Tmap_traits@_J_JU?$less@_J@std@@V?$allocator@U?$pair@$$CB_J_J@std@@@2@$0A@@std@@@std@@IEAA?AV?$_Tree_iterator@V?$_Tree_val@U?$_Tree_simple_types@U?$pair@$$CB_J_J@std@@@std@@@std@@@1@_NPEAU?$_Tree_node@U?$pair@$$CB_J_J@std@@PEAX@1@$$QEAU?$pair@$$CB_J_J@1@U_Nil@1@@Z 0000000180014320 f i compiler:lex_table_builder.obj
 0001:00013320       ??$_Insert_at@U?$pair@$$CB_K_K@std@@U_Nil@2@@?$_Tree@V?$_Tmap_traits@_K_KU?$less@_K@std@@V?$allocator@U?$pair@$$CB_K_K@std@@@2@$0A@@std@@@std@@IEAA?AV?$_Tree_iterator@V?$_Tree_val@U?$_Tree_simple_types@U?$pair@$$CB_K_K@std@@@std@@@std@@@1@_NPEAU?$_Tree_node@U?$pair@$$CB_K_K@std@@PEAX@1@$$QEAU?$pair@$$CB_K_K@1@U_Nil@1@@Z 0000000180014320 f i compiler:parse_table_builder.obj
 0001:00013630       ??$equal@V?$_Vector_const_iterator@V?$_Vector_val@U?$_Simple_types@UParseAction@tree_sitter@@@std@@@std@@@std@@V12@U?$equal_to@X@2@@std@@YA_NV?$_Vector_const_iterator@V?$_Vector_val@U?$_Simple_types@UParseAction@tree_sitter@@@std@@@std@@@0@00U?$equal_to@X@0@@Z 0000000180014630 f i compiler:parse_table_builder.obj
 0001:000136e0       ??$_Insert_at@U?$pair@USymbol@rules@tree_sitter@@U123@@std@@U_Nil@2@@?$_Tree@V?$_Tset_traits@U?$pair@USymbol@rules@tree_sitter@@U123@@std@@U?$less@U?$pair@USymbol@rules@tree_sitter@@U123@@std@@@2@V?$allocator@U?$pair@USymbol@rules@tree_sitter@@U123@@std@@@2@$0A@@std@@@std@@IEAA?AV?$_Tree_const_iterator@V?$_Tree_val@U?$_Tree_simple_types@U?$pair@USymbol@rules@tree_sitter@@U123@@std@@@std@@@std@@@1@_NPEAU?$_Tree_node@U?$pair@USymbol@rules@tree_sitter@@U123@@std@@PEAX@1@$$QEAU?$pair@USymbol@rules@tree_sitter@@U123@@1@U_Nil@1@@Z 00000001800146e0 f i compiler:parse_table_builder.obj
 0001:000139f0       ??$_Insert_at@AEBUParseItem@build_tables@tree_sitter@@U_Nil@std@@@?$_Tree@V?$_Tset_traits@UParseItem@build_tables@tree_sitter@@U?$less@UParseItem@build_tables@tree_sitter@@@std@@V?$allocator@UParseItem@build_tables@tree_sitter@@@5@$0A@@std@@@std@@IEAA?AV?$_Tree_const_iterator@V?$_Tree_val@U?$_Tree_simple_types@UParseItem@build_tables@tree_sitter@@@std@@@std@@@1@_NPEAU?$_Tree_node@UParseItem@build_tables@tree_sitter@@PEAX@1@AEBUParseItem@build_tables@tree_sitter@@U_Nil@1@@Z 00000001800149f0 f i compiler:parse_table_builder.obj
 0001:00013d10       ??$_Copy_nodes@U_Copy_tag@?$_Tree@V?$_Tset_traits@_KU?$less@_K@std@@V?$allocator@_K@2@$0A@@std@@@std@@@?$_Tree@V?$_Tset_traits@_KU?$less@_K@std@@V?$allocator@_K@2@$0A@@std@@@std@@IEAAPEAU?$_Tree_node@_KPEAX@1@PEAU21@0U_Copy_tag@01@@Z 0000000180014d10 f i compiler:parse_table_builder.obj
 0001:00013e00       ??$_Copy_nodes@U_Copy_tag@?$_Tree@V?$_Tmap_traits@UParseItem@build_tables@tree_sitter@@VLookaheadSet@23@U?$less@UParseItem@build_tables@tree_sitter@@@std@@V?$allocator@U?$pair@$$CBUParseItem@build_tables@tree_sitter@@VLookaheadSet@23@@std@@@6@$0A@@std@@@std@@@?$_Tree@V?$_Tmap_traits@UParseItem@build_tables@tree_sitter@@VLookaheadSet@23@U?$less@UParseItem@build_tables@tree_sitter@@@std@@V?$allocator@U?$pair@$$CBUParseItem@build_tables@tree_sitter@@VLookaheadSet@23@@std@@@6@$0A@@std@@@std@@IEAAPEAU?$_Tree_node@U?$pair@$$CBUParseItem@build_tables@tree_sitter@@VLookaheadSet@23@@std@@PEAX@1@PEAU21@0U_Copy_tag@01@@Z 0000000180014e00 f i compiler:parse_table_builder.obj
 0001:00013f10       ??$_Uninitialized_copy_al_unchecked@PEBUParseState@tree_sitter@@PEAU12@V?$allocator@UParseState@tree_sitter@@@std@@@std@@YAPEAUParseState@tree_sitter@@PEBU12@0PEAU12@AEAU?$_Wrap_alloc@V?$allocator@UParseState@tree_sitter@@@std@@@0@@Z 0000000180014f10 f i compiler:parse_table_builder.obj
 0001:00013fa0       ??$_Uninitialized_copy_al_unchecked@PEBUExternalToken@tree_sitter@@PEAU12@V?$allocator@UExternalToken@tree_sitter@@@std@@@std@@YAPEAUExternalToken@tree_sitter@@PEBU12@0PEAU12@AEAU?$_Wrap_alloc@V?$allocator@UExternalToken@tree_sitter@@@std@@@0@@Z 0000000180014fa0 f i compiler:parse_table_builder.obj
 0001:00013fa0       ??$_Uninitialized_copy_al_unchecked@PEAUExternalToken@tree_sitter@@PEAU12@V?$allocator@UExternalToken@tree_sitter@@@std@@@std@@YAPEAUExternalToken@tree_sitter@@PEAU12@00AEAU?$_Wrap_alloc@V?$allocator@UExternalToken@tree_sitter@@@std@@@0@@Z 0000000180014fa0 f i compiler:flatten_grammar.obj
 0001:00014040       ??$_Copy_nodes@U_Copy_tag@?$_Tree@V?$_Tset_traits@V?$set@USymbol@rules@tree_sitter@@U?$less@USymbol@rules@tree_sitter@@@std@@V?$allocator@USymbol@rules@tree_sitter@@@5@@std@@U?$less@V?$set@USymbol@rules@tree_sitter@@U?$less@USymbol@rules@tree_sitter@@@std@@V?$allocator@USymbol@rules@tree_sitter@@@5@@std@@@2@V?$allocator@V?$set@USymbol@rules@tree_sitter@@U?$less@USymbol@rules@tree_sitter@@@std@@V?$allocator@USymbol@rules@tree_sitter@@@5@@std@@@2@$0A@@std@@@std@@@?$_Tree@V?$_Tset_traits@V?$set@USymbol@rules@tree_sitter@@U?$less@USymbol@rules@tree_sitter@@@std@@V?$allocator@USymbol@rules@tree_sitter@@@5@@std@@U?$less@V?$set@USymbol@rules@tree_sitter@@U?$less@USymbol@rules@tree_sitter@@@std@@V?$allocator@USymbol@rules@tree_sitter@@@5@@std@@@2@V?$allocator@V?$set@USymbol@rules@tree_sitter@@U?$less@USymbol@rules@tree_sitter@@@std@@V?$allocator@USymbol@rules@tree_sitter@@@5@@std@@@2@$0A@@std@@@std@@IEAAPEAU?$_Tree_node@V?$set@USymbol@rules@tree_sitter@@U?$less@USymbol@rules@tree_sitter@@@std@@V?$allocator@USymbol@rules@tree_sitter@@@5@@std@@PEAX@1@PEAU21@0U_Copy_tag@01@@Z 0000000180015040 f i compiler:parse_table_builder.obj
 0001:00014150       ??$_Copy_nodes@U_Copy_tag@?$_Tree@V?$_Tset_traits@USymbol@rules@tree_sitter@@U?$less@USymbol@rules@tree_sitter@@@std@@V?$allocator@USymbol@rules@tree_sitter@@@5@$0A@@std@@@std@@@?$_Tree@V?$_Tset_traits@USymbol@rules@tree_sitter@@U?$less@USymbol@rules@tree_sitter@@@std@@V?$allocator@USymbol@rules@tree_sitter@@@5@$0A@@std@@@std@@IEAAPEAU?$_Tree_node@USymbol@rules@tree_sitter@@PEAX@1@PEAU21@0U_Copy_tag@01@@Z 0000000180015150 f i compiler:parse_table_builder.obj
 0001:00014240       ??$_Uninitialized_copy_al_unchecked@PEBUSyntaxVariable@tree_sitter@@PEAU12@V?$allocator@USyntaxVariable@tree_sitter@@@std@@@std@@YAPEAUSyntaxVariable@tree_sitter@@PEBU12@0PEAU12@AEAU?$_Wrap_alloc@V?$allocator@USyntaxVariable@tree_sitter@@@std@@@0@@Z 0000000180015240 f i compiler:parse_table_builder.obj
 0001:000142e0       ??$_Uninitialized_copy_al_unchecked@PEBURule@rules@tree_sitter@@PEAU123@V?$allocator@URule@rules@tree_sitter@@@std@@@std@@YAPEAURule@rules@tree_sitter@@PEBU123@0PEAU123@AEAU?$_Wrap_alloc@V?$allocator@URule@rules@tree_sitter@@@std@@@0@@Z 00000001800152e0 f i compiler:parse_table_builder.obj
 0001:00014350       ??$_Copy_nodes@U_Copy_tag@?$_Tree@V?$_Tset_traits@IU?$less@I@std@@V?$allocator@I@2@$0A@@std@@@std@@@?$_Tree@V?$_Tset_traits@IU?$less@I@std@@V?$allocator@I@2@$0A@@std@@@std@@IEAAPEAU?$_Tree_node@IPEAX@1@PEAU21@0U_Copy_tag@01@@Z 0000000180015350 f i compiler:parse_table_builder.obj
 0001:00014350       ??$_Copy_nodes@U_Copy_tag@?$_Tree@V?$_Tset_traits@HU?$less@H@std@@V?$allocator@H@2@$0A@@std@@@std@@@?$_Tree@V?$_Tset_traits@HU?$less@H@std@@V?$allocator@H@2@$0A@@std@@@std@@IEAAPEAU?$_Tree_node@HPEAX@1@PEAU21@0U_Copy_tag@01@@Z 0000000180015350 f i compiler:c_code.obj
 0001:00014440       ??$_Insert_hint@AEAU?$pair@$$CBUParseItem@build_tables@tree_sitter@@VLookaheadSet@23@@std@@PEAU?$_Tree_node@U?$pair@$$CBUParseItem@build_tables@tree_sitter@@VLookaheadSet@23@@std@@PEAX@2@@?$_Tree@V?$_Tmap_traits@UParseItem@build_tables@tree_sitter@@VLookaheadSet@23@U?$less@UParseItem@build_tables@tree_sitter@@@std@@V?$allocator@U?$pair@$$CBUParseItem@build_tables@tree_sitter@@VLookaheadSet@23@@std@@@6@$0A@@std@@@std@@IEAA?AV?$_Tree_iterator@V?$_Tree_val@U?$_Tree_simple_types@U?$pair@$$CBUParseItem@build_tables@tree_sitter@@VLookaheadSet@23@@std@@@std@@@std@@@1@V?$_Tree_const_iterator@V?$_Tree_val@U?$_Tree_simple_types@U?$pair@$$CBUParseItem@build_tables@tree_sitter@@VLookaheadSet@23@@std@@@std@@@std@@@1@AEAU?$pair@$$CBUParseItem@build_tables@tree_sitter@@VLookaheadSet@23@@1@PEAU?$_Tree_node@U?$pair@$$CBUParseItem@build_tables@tree_sitter@@VLookaheadSet@23@@std@@PEAX@1@@Z 0000000180015440 f i compiler:parse_table_builder.obj
 0001:000146d0       ??$_Insert@AEB_KV?$_List_unchecked_const_iterator@V?$_List_val@U?$_List_simple_types@_K@std@@@std@@U_Iterator_base0@2@@std@@@?$_Hash@V?$_Uset_traits@_KV?$_Uhash_compare@_KU?$hash@_K@std@@U?$equal_to@_K@2@@std@@V?$allocator@_K@2@$0A@@std@@@std@@IEAA?AU?$pair@V?$_List_const_iterator@V?$_List_val@U?$_List_simple_types@_K@std@@@std@@@std@@_N@1@AEB_KV?$_List_unchecked_const_iterator@V?$_List_val@U?$_List_simple_types@_K@std@@@std@@U_Iterator_base0@2@@1@@Z 00000001800156d0 f i compiler:parse_table_builder.obj
 0001:000146d0       ??$_Insert@AEAU?$pair@$$CB_KH@std@@V?$_List_unchecked_iterator@V?$_List_val@U?$_List_simple_types@U?$pair@$$CB_KH@std@@@std@@@std@@@2@@?$_Hash@V?$_Umap_traits@_KHV?$_Uhash_compare@_KU?$hash@_K@std@@U?$equal_to@_K@2@@std@@V?$allocator@U?$pair@$$CB_KH@std@@@2@$0A@@std@@@std@@IEAA?AU?$pair@V?$_List_iterator@V?$_List_val@U?$_List_simple_types@U?$pair@$$CB_KH@std@@@std@@@std@@@std@@_N@1@AEAU?$pair@$$CB_KH@1@V?$_List_unchecked_iterator@V?$_List_val@U?$_List_simple_types@U?$pair@$$CB_KH@std@@@std@@@std@@@1@@Z 00000001800156d0 f i compiler:parse_table_builder.obj
 0001:00014880       ??$_Insert@AEAU?$pair@$$CBUParseItemSet@build_tables@tree_sitter@@_K@std@@V?$_List_unchecked_iterator@V?$_List_val@U?$_List_simple_types@U?$pair@$$CBUParseItemSet@build_tables@tree_sitter@@_K@std@@@std@@@std@@@2@@?$_Hash@V?$_Umap_traits@UParseItemSet@build_tables@tree_sitter@@_KV?$_Uhash_compare@UParseItemSet@build_tables@tree_sitter@@U?$hash@UParseItemSet@build_tables@tree_sitter@@@std@@U?$equal_to@UParseItemSet@build_tables@tree_sitter@@@5@@std@@V?$allocator@U?$pair@$$CBUParseItemSet@build_tables@tree_sitter@@_K@std@@@5@$0A@@std@@@std@@IEAA?AU?$pair@V?$_List_iterator@V?$_List_val@U?$_List_simple_types@U?$pair@$$CBUParseItemSet@build_tables@tree_sitter@@_K@std@@@std@@@std@@@std@@_N@1@AEAU?$pair@$$CBUParseItemSet@build_tables@tree_sitter@@_K@1@V?$_List_unchecked_iterator@V?$_List_val@U?$_List_simple_types@U?$pair@$$CBUParseItemSet@build_tables@tree_sitter@@_K@std@@@std@@@std@@@1@@Z 0000000180015880 f i compiler:parse_table_builder.obj
 0001:00014a10       ??0ParseState@tree_sitter@@QEAA@$$QEAU01@@Z 0000000180015a10 f i compiler:parse_table_builder.obj
 0001:00014af0       ?_Delete_this@?$_Func_impl@V<lambda_4c3586285957a0b796e110dfb3c002ee>@@V?$allocator@H@std@@URule@rules@tree_sitter@@AEBU456@@std@@EEAAX_N@Z 0000000180015af0 f i compiler:lex_item_transitions.obj
 0001:00014af0       ?_Delete_this@?$_Func_impl@V<lambda_cd3008fe69255ec2f79bb23111359c12>@@V?$allocator@H@std@@X$$V@std@@EEAAX_N@Z 0000000180015af0 f i compiler:c_code.obj
 0001:00014af0       ?_Delete_this@?$_Func_impl@V<lambda_cff6fe89b5db7ac61035d5839802610d>@@V?$allocator@H@std@@X$$V@std@@EEAAX_N@Z 0000000180015af0 f i compiler:c_code.obj
 0001:00014af0       ?_Delete_this@?$_Func_impl@V<lambda_543a3cd59435f8f7e46d40cc21e4a607>@@V?$allocator@H@std@@X$$V@std@@EEAAX_N@Z 0000000180015af0 f i compiler:c_code.obj
 0001:00014af0       ?_Delete_this@?$_Func_impl@V<lambda_86a36b9cd94214787c22f3f728a255d0>@@V?$allocator@H@std@@X$$V@std@@EEAAX_N@Z 0000000180015af0 f i compiler:c_code.obj
 0001:00014af0       ?_Delete_this@?$_Func_impl@V<lambda_d01b871ed20d662e3cec20e2c4f99d7c>@@V?$allocator@H@std@@X$$V@std@@EEAAX_N@Z 0000000180015af0 f i compiler:c_code.obj
 0001:00014af0       ?_Delete_this@?$_Func_impl@V<lambda_8fc2fb5829b488fb2e4126ec5a2f7c43>@@V?$allocator@H@std@@X$$V@std@@EEAAX_N@Z 0000000180015af0 f i compiler:c_code.obj
 0001:00014af0       ?_Delete_this@?$_Func_impl@V<lambda_c33cece44b018f6c3b4844a3a33d6589>@@V?$allocator@H@std@@XPEA_K@std@@EEAAX_N@Z 0000000180015af0 f i compiler:parse_table_builder.obj
 0001:00014af0       ?_Delete_this@?$_Func_impl@V<lambda_c9cb3a766ef66ff55afbb57af21fa53a>@@V?$allocator@H@std@@URule@rules@tree_sitter@@AEBU456@@std@@EEAAX_N@Z 0000000180015af0 f i compiler:lex_item_transitions.obj
 0001:00014af0       ?_Delete_this@?$_Func_impl@V<lambda_c93f6730e31b7ff46b07372ef2fe5f39>@@V?$allocator@H@std@@URule@rules@tree_sitter@@AEBU456@@std@@EEAAX_N@Z 0000000180015af0 f i compiler:lex_item_transitions.obj
 0001:00014af0       ?_Delete_this@?$_Func_impl@V<lambda_90a833c5dfeba0b12c9fa835744c8b3a>@@V?$allocator@H@std@@X$$V@std@@EEAAX_N@Z 0000000180015af0 f i compiler:c_code.obj
 0001:00014af0       ?_Delete_this@?$_Func_impl@V<lambda_bbd927756f78d9f295cd6617be8c9ecb>@@V?$allocator@H@std@@X$$V@std@@EEAAX_N@Z 0000000180015af0 f i compiler:c_code.obj
 0001:00014af0       ?_Delete_this@?$_Func_impl@V<lambda_1b21efb5e47011ba1902b4c70534ceb8>@@V?$allocator@H@std@@X$$V@std@@EEAAX_N@Z 0000000180015af0 f i compiler:c_code.obj
 0001:00014af0       ?_Delete_this@?$_Func_impl@V<lambda_d820b37d2817dc684e92a98a214ec7f4>@@V?$allocator@H@std@@X$$V@std@@EEAAX_N@Z 0000000180015af0 f i compiler:c_code.obj
 0001:00014af0       ?_Delete_this@?$_Func_impl@V<lambda_843ed54f51bca7fde6ba83675e21baea>@@V?$allocator@H@std@@X$$V@std@@EEAAX_N@Z 0000000180015af0 f i compiler:c_code.obj
 0001:00014af0       ?_Delete_this@?$_Func_impl@V<lambda_1b0f755794997253e1cc710cf6f3519c>@@V?$allocator@H@std@@XPEA_K@std@@EEAAX_N@Z 0000000180015af0 f i compiler:parse_table_builder.obj
 0001:00014af0       ?_Delete_this@?$_Func_impl@V<lambda_f66e46d37b0f7d9bb7de75525058a5d0>@@V?$allocator@H@std@@X$$V@std@@EEAAX_N@Z 0000000180015af0 f i compiler:c_code.obj
 0001:00014af0       ?_Delete_this@?$_Func_impl@V<lambda_d89122670b023232ee03e21923b79c05>@@V?$allocator@H@std@@X$$V@std@@EEAAX_N@Z 0000000180015af0 f i compiler:c_code.obj
 0001:00014af0       ?_Delete_this@?$_Func_impl@V<lambda_00be77449250f181ede7251f6ce71797>@@V?$allocator@H@std@@X$$V@std@@EEAAX_N@Z 0000000180015af0 f i compiler:c_code.obj
 0001:00014af0       ?_Delete_this@?$_Func_impl@V<lambda_c89cc469a930828ef027df7561d551d8>@@V?$allocator@H@std@@X$$V@std@@EEAAX_N@Z 0000000180015af0 f i compiler:c_code.obj
 0001:00014af0       ?_Delete_this@?$_Func_impl@V<lambda_c5b9231ecd9f4e346e739b29cd743fa6>@@V?$allocator@H@std@@X$$V@std@@EEAAX_N@Z 0000000180015af0 f i compiler:c_code.obj
 0001:00014af0       ?_Delete_this@?$_Func_impl@V<lambda_bfb1d8dd53b0aa47ce56e422d4dc9259>@@V?$allocator@H@std@@X$$V@std@@EEAAX_N@Z 0000000180015af0 f i compiler:c_code.obj
 0001:00014af0       ?_Delete_this@?$_Func_impl@V<lambda_210bcb06eae019baddacea6985019db5>@@V?$allocator@H@std@@X$$V@std@@EEAAX_N@Z 0000000180015af0 f i compiler:c_code.obj
 0001:00014af0       ?_Delete_this@?$_Func_impl@V<lambda_f3c88d48d3fc5a697ed8f11ab3329f1c>@@V?$allocator@H@std@@X$$V@std@@EEAAX_N@Z 0000000180015af0 f i compiler:c_code.obj
 0001:00014af0       ?_Delete_this@?$_Func_impl@V<lambda_0a5ae07724bb75fea1a0c2a985e6fe57>@@V?$allocator@H@std@@X$$V@std@@EEAAX_N@Z 0000000180015af0 f i compiler:c_code.obj
 0001:00014af0       ?_Delete_this@?$_Func_impl@V<lambda_e936005ad611d39f0be9758699551e35>@@V?$allocator@H@std@@X$$V@std@@EEAAX_N@Z 0000000180015af0 f i compiler:c_code.obj
 0001:00014af0       ?_Delete_this@?$_Func_impl@V<lambda_cf325b738c9086ed0409bf2d87c226b5>@@V?$allocator@H@std@@X$$V@std@@EEAAX_N@Z 0000000180015af0 f i compiler:c_code.obj
 0001:00014af0       ?_Delete_this@?$_Func_impl@V<lambda_2f8c859855bd76e64bc0f73ed4c1eb41>@@V?$allocator@H@std@@X$$V@std@@EEAAX_N@Z 0000000180015af0 f i compiler:c_code.obj
 0001:00014af0       ?_Delete_this@?$_Func_impl@V<lambda_79c39a9f18d03623e5f0b0c7445e2029>@@V?$allocator@H@std@@XPEA_K@std@@EEAAX_N@Z 0000000180015af0 f i compiler:parse_table_builder.obj
 0001:00014b10       ?_Get@?$_Func_impl@V<lambda_bfb1d8dd53b0aa47ce56e422d4dc9259>@@V?$allocator@H@std@@X$$V@std@@EEBAPEBXXZ 0000000180015b10 f i compiler:c_code.obj
 0001:00014b10       ?_Get@?$_Func_impl@V<lambda_843ed54f51bca7fde6ba83675e21baea>@@V?$allocator@H@std@@X$$V@std@@EEBAPEBXXZ 0000000180015b10 f i compiler:c_code.obj
 0001:00014b10       ?_Get@?$_Func_impl@V<lambda_210bcb06eae019baddacea6985019db5>@@V?$allocator@H@std@@X$$V@std@@EEBAPEBXXZ 0000000180015b10 f i compiler:c_code.obj
 0001:00014b10       ?_Get@?$_Func_impl@V<lambda_c93f6730e31b7ff46b07372ef2fe5f39>@@V?$allocator@H@std@@URule@rules@tree_sitter@@AEBU456@@std@@EEBAPEBXXZ 0000000180015b10 f i compiler:lex_item_transitions.obj
 0001:00014b10       ?_Get@?$_Func_impl@V<lambda_d01b871ed20d662e3cec20e2c4f99d7c>@@V?$allocator@H@std@@X$$V@std@@EEBAPEBXXZ 0000000180015b10 f i compiler:c_code.obj
 0001:00014b10       ?_Get@?$_Func_impl@V<lambda_bbd927756f78d9f295cd6617be8c9ecb>@@V?$allocator@H@std@@X$$V@std@@EEBAPEBXXZ 0000000180015b10 f i compiler:c_code.obj
 0001:00014b10       ?_Get@?$_Func_impl@V<lambda_79c39a9f18d03623e5f0b0c7445e2029>@@V?$allocator@H@std@@XPEA_K@std@@EEBAPEBXXZ 0000000180015b10 f i compiler:parse_table_builder.obj
 0001:00014b10       ?_Get@?$_Func_impl@V<lambda_543a3cd59435f8f7e46d40cc21e4a607>@@V?$allocator@H@std@@X$$V@std@@EEBAPEBXXZ 0000000180015b10 f i compiler:c_code.obj
 0001:00014b10       ?_Get@?$_Func_impl@V<lambda_90a833c5dfeba0b12c9fa835744c8b3a>@@V?$allocator@H@std@@X$$V@std@@EEBAPEBXXZ 0000000180015b10 f i compiler:c_code.obj
 0001:00014b10       ?_Get@?$_Func_impl@V<lambda_8fc2fb5829b488fb2e4126ec5a2f7c43>@@V?$allocator@H@std@@X$$V@std@@EEBAPEBXXZ 0000000180015b10 f i compiler:c_code.obj
 0001:00014b10       ?_Get@?$_Func_impl@V<lambda_c5b9231ecd9f4e346e739b29cd743fa6>@@V?$allocator@H@std@@X$$V@std@@EEBAPEBXXZ 0000000180015b10 f i compiler:c_code.obj
 0001:00014b10       ?_Get@?$_Func_impl@V<lambda_c89cc469a930828ef027df7561d551d8>@@V?$allocator@H@std@@X$$V@std@@EEBAPEBXXZ 0000000180015b10 f i compiler:c_code.obj
 0001:00014b10       ?_Get@?$_Func_impl@V<lambda_0a5ae07724bb75fea1a0c2a985e6fe57>@@V?$allocator@H@std@@X$$V@std@@EEBAPEBXXZ 0000000180015b10 f i compiler:c_code.obj
 0001:00014b10       ?_Get@?$_Func_impl@V<lambda_f66e46d37b0f7d9bb7de75525058a5d0>@@V?$allocator@H@std@@X$$V@std@@EEBAPEBXXZ 0000000180015b10 f i compiler:c_code.obj
 0001:00014b10       ?_Get@?$_Func_impl@V<lambda_cf325b738c9086ed0409bf2d87c226b5>@@V?$allocator@H@std@@X$$V@std@@EEBAPEBXXZ 0000000180015b10 f i compiler:c_code.obj
 0001:00014b10       ?_Get@?$_Func_impl@V<lambda_2f8c859855bd76e64bc0f73ed4c1eb41>@@V?$allocator@H@std@@X$$V@std@@EEBAPEBXXZ 0000000180015b10 f i compiler:c_code.obj
 0001:00014b10       ?_Get@?$_Func_impl@V<lambda_1b21efb5e47011ba1902b4c70534ceb8>@@V?$allocator@H@std@@X$$V@std@@EEBAPEBXXZ 0000000180015b10 f i compiler:c_code.obj
 0001:00014b10       ?_Get@?$_Func_impl@V<lambda_1b0f755794997253e1cc710cf6f3519c>@@V?$allocator@H@std@@XPEA_K@std@@EEBAPEBXXZ 0000000180015b10 f i compiler:parse_table_builder.obj
 0001:00014b10       ?_Get@?$_Func_impl@V<lambda_c33cece44b018f6c3b4844a3a33d6589>@@V?$allocator@H@std@@XPEA_K@std@@EEBAPEBXXZ 0000000180015b10 f i compiler:parse_table_builder.obj
 0001:00014b10       ?_Get@?$_Func_impl@V<lambda_86a36b9cd94214787c22f3f728a255d0>@@V?$allocator@H@std@@X$$V@std@@EEBAPEBXXZ 0000000180015b10 f i compiler:c_code.obj
 0001:00014b10       ?_Get@?$_Func_impl@V<lambda_cff6fe89b5db7ac61035d5839802610d>@@V?$allocator@H@std@@X$$V@std@@EEBAPEBXXZ 0000000180015b10 f i compiler:c_code.obj
 0001:00014b10       ?_Get@?$_Func_impl@V<lambda_4c3586285957a0b796e110dfb3c002ee>@@V?$allocator@H@std@@URule@rules@tree_sitter@@AEBU456@@std@@EEBAPEBXXZ 0000000180015b10 f i compiler:lex_item_transitions.obj
 0001:00014b10       ?_Get@?$_Func_impl@V<lambda_f3c88d48d3fc5a697ed8f11ab3329f1c>@@V?$allocator@H@std@@X$$V@std@@EEBAPEBXXZ 0000000180015b10 f i compiler:c_code.obj
 0001:00014b10       ?_Get@?$_Func_impl@V<lambda_e936005ad611d39f0be9758699551e35>@@V?$allocator@H@std@@X$$V@std@@EEBAPEBXXZ 0000000180015b10 f i compiler:c_code.obj
 0001:00014b10       ?_Get@?$_Func_impl@V<lambda_00be77449250f181ede7251f6ce71797>@@V?$allocator@H@std@@X$$V@std@@EEBAPEBXXZ 0000000180015b10 f i compiler:c_code.obj
 0001:00014b10       ?_Get@?$_Func_impl@V<lambda_d820b37d2817dc684e92a98a214ec7f4>@@V?$allocator@H@std@@X$$V@std@@EEBAPEBXXZ 0000000180015b10 f i compiler:c_code.obj
 0001:00014b10       ?_Get@?$_Func_impl@V<lambda_c9cb3a766ef66ff55afbb57af21fa53a>@@V?$allocator@H@std@@URule@rules@tree_sitter@@AEBU456@@std@@EEBAPEBXXZ 0000000180015b10 f i compiler:lex_item_transitions.obj
 0001:00014b10       ?_Get@?$_Func_impl@V<lambda_cd3008fe69255ec2f79bb23111359c12>@@V?$allocator@H@std@@X$$V@std@@EEBAPEBXXZ 0000000180015b10 f i compiler:c_code.obj
 0001:00014b10       ?_Get@?$_Func_impl@V<lambda_d89122670b023232ee03e21923b79c05>@@V?$allocator@H@std@@X$$V@std@@EEBAPEBXXZ 0000000180015b10 f i compiler:c_code.obj
 0001:00014b20       ?_Target_type@?$_Func_impl@V<lambda_c33cece44b018f6c3b4844a3a33d6589>@@V?$allocator@H@std@@XPEA_K@std@@EEBAAEBVtype_info@@XZ 0000000180015b20 f i compiler:parse_table_builder.obj
 0001:00014b30       ?_Do_call@?$_Func_impl@V<lambda_c33cece44b018f6c3b4844a3a33d6589>@@V?$allocator@H@std@@XPEA_K@std@@EEAAX$$QEAPEA_K@Z 0000000180015b30 f i compiler:parse_table_builder.obj
 0001:00014b50       ?_Copy@?$_Func_impl@V<lambda_c33cece44b018f6c3b4844a3a33d6589>@@V?$allocator@H@std@@XPEA_K@std@@EEBAPEAV?$_Func_base@XPEA_K@2@PEAX@Z 0000000180015b50 f i compiler:parse_table_builder.obj
 0001:00014b50       ?_Move@?$_Func_impl@V<lambda_c33cece44b018f6c3b4844a3a33d6589>@@V?$allocator@H@std@@XPEA_K@std@@EEAAPEAV?$_Func_base@XPEA_K@2@PEAX@Z 0000000180015b50 f i compiler:parse_table_builder.obj
 0001:00014b70       ?_Target_type@?$_Func_impl@V<lambda_1b0f755794997253e1cc710cf6f3519c>@@V?$allocator@H@std@@XPEA_K@std@@EEBAAEBVtype_info@@XZ 0000000180015b70 f i compiler:parse_table_builder.obj
 0001:00014b80       ?_Do_call@?$_Func_impl@V<lambda_1b0f755794997253e1cc710cf6f3519c>@@V?$allocator@H@std@@XPEA_K@std@@EEAAX$$QEAPEA_K@Z 0000000180015b80 f i compiler:parse_table_builder.obj
 0001:00014b90       ?_Move@?$_Func_impl@V<lambda_1b0f755794997253e1cc710cf6f3519c>@@V?$allocator@H@std@@XPEA_K@std@@EEAAPEAV?$_Func_base@XPEA_K@2@PEAX@Z 0000000180015b90 f i compiler:parse_table_builder.obj
 0001:00014b90       ?_Copy@?$_Func_impl@V<lambda_1b0f755794997253e1cc710cf6f3519c>@@V?$allocator@H@std@@XPEA_K@std@@EEBAPEAV?$_Func_base@XPEA_K@2@PEAX@Z 0000000180015b90 f i compiler:parse_table_builder.obj
 0001:00014bc0       ?_Target_type@?$_Func_impl@V<lambda_79c39a9f18d03623e5f0b0c7445e2029>@@V?$allocator@H@std@@XPEA_K@std@@EEBAAEBVtype_info@@XZ 0000000180015bc0 f i compiler:parse_table_builder.obj
 0001:00014bd0       ?_Do_call@?$_Func_impl@V<lambda_79c39a9f18d03623e5f0b0c7445e2029>@@V?$allocator@H@std@@XPEA_K@std@@EEAAX$$QEAPEA_K@Z 0000000180015bd0 f i compiler:parse_table_builder.obj
 0001:00014c30       ?_Copy@?$_Func_impl@V<lambda_79c39a9f18d03623e5f0b0c7445e2029>@@V?$allocator@H@std@@XPEA_K@std@@EEBAPEAV?$_Func_base@XPEA_K@2@PEAX@Z 0000000180015c30 f i compiler:parse_table_builder.obj
 0001:00014c30       ?_Move@?$_Func_impl@V<lambda_79c39a9f18d03623e5f0b0c7445e2029>@@V?$allocator@H@std@@XPEA_K@std@@EEAAPEAV?$_Func_base@XPEA_K@2@PEAX@Z 0000000180015c30 f i compiler:parse_table_builder.obj
 0001:00014c50       ?deallocate@?$_Wrap_alloc@V?$allocator@UParseItemSetComponent@ParseItemSetBuilder@build_tables@tree_sitter@@@std@@@std@@QEAAXPEAUParseItemSetComponent@ParseItemSetBuilder@build_tables@tree_sitter@@_K@Z 0000000180015c50 f i compiler:parse_table_builder.obj
 0001:00014cc0       ??$_Insert@AEAU?$pair@$$CB_KV?$set@_KU?$less@_K@std@@V?$allocator@_K@2@@std@@@std@@V?$_List_unchecked_iterator@V?$_List_val@U?$_List_simple_types@U?$pair@$$CB_KV?$set@_KU?$less@_K@std@@V?$allocator@_K@2@@std@@@std@@@std@@@std@@@2@@?$_Hash@V?$_Umap_traits@_KV?$set@_KU?$less@_K@std@@V?$allocator@_K@2@@std@@V?$_Uhash_compare@_KU?$hash@_K@std@@U?$equal_to@_K@2@@2@V?$allocator@U?$pair@$$CB_KV?$set@_KU?$less@_K@std@@V?$allocator@_K@2@@std@@@std@@@2@$0A@@std@@@std@@IEAA?AU?$pair@V?$_List_iterator@V?$_List_val@U?$_List_simple_types@U?$pair@$$CB_KV?$set@_KU?$less@_K@std@@V?$allocator@_K@2@@std@@@std@@@std@@@std@@@std@@_N@1@AEAU?$pair@$$CB_KV?$set@_KU?$less@_K@std@@V?$allocator@_K@2@@std@@@1@V?$_List_unchecked_iterator@V?$_List_val@U?$_List_simple_types@U?$pair@$$CB_KV?$set@_KU?$less@_K@std@@V?$allocator@_K@2@@std@@@std@@@std@@@std@@@1@@Z 0000000180015cc0 f i compiler:parse_table_builder.obj
 0001:00014ea0       ??$_Insert_hint@AEAU?$pair@$$CBHUParseItemSet@build_tables@tree_sitter@@@std@@PEAU?$_Tree_node@U?$pair@$$CBHUParseItemSet@build_tables@tree_sitter@@@std@@PEAX@2@@?$_Tree@V?$_Tmap_traits@HUParseItemSet@build_tables@tree_sitter@@U?$less@H@std@@V?$allocator@U?$pair@$$CBHUParseItemSet@build_tables@tree_sitter@@@std@@@5@$0A@@std@@@std@@IEAA?AV?$_Tree_iterator@V?$_Tree_val@U?$_Tree_simple_types@U?$pair@$$CBHUParseItemSet@build_tables@tree_sitter@@@std@@@std@@@std@@@1@V?$_Tree_const_iterator@V?$_Tree_val@U?$_Tree_simple_types@U?$pair@$$CBHUParseItemSet@build_tables@tree_sitter@@@std@@@std@@@std@@@1@AEAU?$pair@$$CBHUParseItemSet@build_tables@tree_sitter@@@1@PEAU?$_Tree_node@U?$pair@$$CBHUParseItemSet@build_tables@tree_sitter@@@std@@PEAX@1@@Z 0000000180015ea0 f i compiler:parse_table_builder.obj
 0001:000150f0       ??$_Insert_hint@AEAU?$pair@$$CBUSymbol@rules@tree_sitter@@UParseItemSet@build_tables@3@@std@@PEAU?$_Tree_node@U?$pair@$$CBUSymbol@rules@tree_sitter@@UParseItemSet@build_tables@3@@std@@PEAX@2@@?$_Tree@V?$_Tmap_traits@USymbol@rules@tree_sitter@@UParseItemSet@build_tables@3@U?$less@USymbol@rules@tree_sitter@@@std@@V?$allocator@U?$pair@$$CBUSymbol@rules@tree_sitter@@UParseItemSet@build_tables@3@@std@@@7@$0A@@std@@@std@@IEAA?AV?$_Tree_iterator@V?$_Tree_val@U?$_Tree_simple_types@U?$pair@$$CBUSymbol@rules@tree_sitter@@UParseItemSet@build_tables@3@@std@@@std@@@std@@@1@V?$_Tree_const_iterator@V?$_Tree_val@U?$_Tree_simple_types@U?$pair@$$CBUSymbol@rules@tree_sitter@@UParseItemSet@build_tables@3@@std@@@std@@@std@@@1@AEAU?$pair@$$CBUSymbol@rules@tree_sitter@@UParseItemSet@build_tables@3@@1@PEAU?$_Tree_node@U?$pair@$$CBUSymbol@rules@tree_sitter@@UParseItemSet@build_tables@3@@std@@PEAX@1@@Z 00000001800160f0 f i compiler:parse_table_builder.obj
 0001:00015380       ??$_Insert@AEAU?$pair@$$CBUSymbol@rules@tree_sitter@@VLookaheadSet@build_tables@3@@std@@V?$_List_unchecked_iterator@V?$_List_val@U?$_List_simple_types@U?$pair@$$CBUSymbol@rules@tree_sitter@@VLookaheadSet@build_tables@3@@std@@@std@@@std@@@2@@?$_Hash@V?$_Umap_traits@USymbol@rules@tree_sitter@@VLookaheadSet@build_tables@3@V?$_Uhash_compare@USymbol@rules@tree_sitter@@U?$hash@USymbol@rules@tree_sitter@@@std@@U?$equal_to@USymbol@rules@tree_sitter@@@5@@std@@V?$allocator@U?$pair@$$CBUSymbol@rules@tree_sitter@@VLookaheadSet@build_tables@3@@std@@@7@$0A@@std@@@std@@IEAA?AU?$pair@V?$_List_iterator@V?$_List_val@U?$_List_simple_types@U?$pair@$$CBUSymbol@rules@tree_sitter@@VLookaheadSet@build_tables@3@@std@@@std@@@std@@@std@@_N@1@AEAU?$pair@$$CBUSymbol@rules@tree_sitter@@VLookaheadSet@build_tables@3@@1@V?$_List_unchecked_iterator@V?$_List_val@U?$_List_simple_types@U?$pair@$$CBUSymbol@rules@tree_sitter@@VLookaheadSet@build_tables@3@@std@@@std@@@std@@@1@@Z 0000000180016380 f i compiler:parse_table_builder.obj
 0001:000154d0       ??$_Insert@AEAU?$pair@$$CBU?$pair@HH@std@@V?$unordered_set@_KU?$hash@_K@std@@U?$equal_to@_K@2@V?$allocator@_K@2@@2@@std@@V?$_List_unchecked_iterator@V?$_List_val@U?$_List_simple_types@U?$pair@$$CBU?$pair@HH@std@@V?$unordered_set@_KU?$hash@_K@std@@U?$equal_to@_K@2@V?$allocator@_K@2@@2@@std@@@std@@@std@@@2@@?$_Hash@V?$_Umap_traits@U?$pair@HH@std@@V?$unordered_set@_KU?$hash@_K@std@@U?$equal_to@_K@2@V?$allocator@_K@2@@2@V?$_Uhash_compare@U?$pair@HH@std@@U?$hash@U?$pair@HH@std@@@2@U?$equal_to@U?$pair@HH@std@@@2@@2@V?$allocator@U?$pair@$$CBU?$pair@HH@std@@V?$unordered_set@_KU?$hash@_K@std@@U?$equal_to@_K@2@V?$allocator@_K@2@@2@@std@@@2@$0A@@std@@@std@@IEAA?AU?$pair@V?$_List_iterator@V?$_List_val@U?$_List_simple_types@U?$pair@$$CBU?$pair@HH@std@@V?$unordered_set@_KU?$hash@_K@std@@U?$equal_to@_K@2@V?$allocator@_K@2@@2@@std@@@std@@@std@@@std@@_N@1@AEAU?$pair@$$CBU?$pair@HH@std@@V?$unordered_set@_KU?$hash@_K@std@@U?$equal_to@_K@2@V?$allocator@_K@2@@2@@1@V?$_List_unchecked_iterator@V?$_List_val@U?$_List_simple_types@U?$pair@$$CBU?$pair@HH@std@@V?$unordered_set@_KU?$hash@_K@std@@U?$equal_to@_K@2@V?$allocator@_K@2@@2@@std@@@std@@@std@@@1@@Z 00000001800164d0 f i compiler:parse_table_builder.obj
 0001:00015690       ??$_Uninitialized_copy_al_unchecked1@PEBULexicalVariable@tree_sitter@@PEAU12@V?$allocator@ULexicalVariable@tree_sitter@@@std@@@std@@YAPEAULexicalVariable@tree_sitter@@PEBU12@0PEAU12@AEAU?$_Wrap_alloc@V?$allocator@ULexicalVariable@tree_sitter@@@std@@@0@U_General_ptr_iterator_tag@0@U_Any_tag@0@@Z 0000000180016690 f i compiler:parse_table_builder.obj
 0001:00015730       ??$_Insert_hint@AEAU?$pair@$$CBH_K@std@@PEAU?$_Tree_node@U?$pair@$$CBH_K@std@@PEAX@2@@?$_Tree@V?$_Tmap_traits@H_KU?$less@H@std@@V?$allocator@U?$pair@$$CBH_K@std@@@2@$0A@@std@@@std@@IEAA?AV?$_Tree_iterator@V?$_Tree_val@U?$_Tree_simple_types@U?$pair@$$CBH_K@std@@@std@@@std@@@1@V?$_Tree_const_iterator@V?$_Tree_val@U?$_Tree_simple_types@U?$pair@$$CBH_K@std@@@std@@@std@@@1@AEAU?$pair@$$CBH_K@1@PEAU?$_Tree_node@U?$pair@$$CBH_K@std@@PEAX@1@@Z 0000000180016730 f i compiler:parse_table_builder.obj
 0001:00015980       ??$_Insert_hint@AEAU?$pair@$$CBUSymbol@rules@tree_sitter@@UParseTableEntry@3@@std@@PEAU?$_Tree_node@U?$pair@$$CBUSymbol@rules@tree_sitter@@UParseTableEntry@3@@std@@PEAX@2@@?$_Tree@V?$_Tmap_traits@USymbol@rules@tree_sitter@@UParseTableEntry@3@U?$less@USymbol@rules@tree_sitter@@@std@@V?$allocator@U?$pair@$$CBUSymbol@rules@tree_sitter@@UParseTableEntry@3@@std@@@6@$0A@@std@@@std@@IEAA?AV?$_Tree_iterator@V?$_Tree_val@U?$_Tree_simple_types@U?$pair@$$CBUSymbol@rules@tree_sitter@@UParseTableEntry@3@@std@@@std@@@std@@@1@V?$_Tree_const_iterator@V?$_Tree_val@U?$_Tree_simple_types@U?$pair@$$CBUSymbol@rules@tree_sitter@@UParseTableEntry@3@@std@@@std@@@std@@@1@AEAU?$pair@$$CBUSymbol@rules@tree_sitter@@UParseTableEntry@3@@1@PEAU?$_Tree_node@U?$pair@$$CBUSymbol@rules@tree_sitter@@UParseTableEntry@3@@std@@PEAX@1@@Z 0000000180016980 f i compiler:parse_table_builder.obj
 0001:00015c10       ??$_Insert_at@AEAU?$pair@$$CBUParseItem@build_tables@tree_sitter@@VLookaheadSet@23@@std@@PEAU?$_Tree_node@U?$pair@$$CBUParseItem@build_tables@tree_sitter@@VLookaheadSet@23@@std@@PEAX@2@@?$_Tree@V?$_Tmap_traits@UParseItem@build_tables@tree_sitter@@VLookaheadSet@23@U?$less@UParseItem@build_tables@tree_sitter@@@std@@V?$allocator@U?$pair@$$CBUParseItem@build_tables@tree_sitter@@VLookaheadSet@23@@std@@@6@$0A@@std@@@std@@IEAA?AV?$_Tree_iterator@V?$_Tree_val@U?$_Tree_simple_types@U?$pair@$$CBUParseItem@build_tables@tree_sitter@@VLookaheadSet@23@@std@@@std@@@std@@@1@_NPEAU?$_Tree_node@U?$pair@$$CBUParseItem@build_tables@tree_sitter@@VLookaheadSet@23@@std@@PEAX@1@AEAU?$pair@$$CBUParseItem@build_tables@tree_sitter@@VLookaheadSet@23@@1@1@Z 0000000180016c10 f i compiler:parse_table_builder.obj
 0001:00015ec0       ??$_Insert_nohint@AEAU?$pair@$$CBUParseItem@build_tables@tree_sitter@@VLookaheadSet@23@@std@@PEAU?$_Tree_node@U?$pair@$$CBUParseItem@build_tables@tree_sitter@@VLookaheadSet@23@@std@@PEAX@2@@?$_Tree@V?$_Tmap_traits@UParseItem@build_tables@tree_sitter@@VLookaheadSet@23@U?$less@UParseItem@build_tables@tree_sitter@@@std@@V?$allocator@U?$pair@$$CBUParseItem@build_tables@tree_sitter@@VLookaheadSet@23@@std@@@6@$0A@@std@@@std@@IEAA?AU?$pair@V?$_Tree_iterator@V?$_Tree_val@U?$_Tree_simple_types@U?$pair@$$CBUParseItem@build_tables@tree_sitter@@VLookaheadSet@23@@std@@@std@@@std@@@std@@_N@1@_NAEAU?$pair@$$CBUParseItem@build_tables@tree_sitter@@VLookaheadSet@23@@1@PEAU?$_Tree_node@U?$pair@$$CBUParseItem@build_tables@tree_sitter@@VLookaheadSet@23@@std@@PEAX@1@@Z 0000000180016ec0 f i compiler:parse_table_builder.obj
 0001:00016020       ??$_Insert@AEB_K@?$list@_KV?$allocator@_K@std@@@std@@QEAAXV?$_List_unchecked_const_iterator@V?$_List_val@U?$_List_simple_types@_K@std@@@std@@U_Iterator_base0@2@@1@AEB_K@Z 0000000180017020 f i compiler:parse_table_builder.obj
 0001:000160d0       ?_Check_size@?$_Hash@V?$_Umap_traits@_KV?$set@_KU?$less@_K@std@@V?$allocator@_K@2@@std@@V?$_Uhash_compare@_KU?$hash@_K@std@@U?$equal_to@_K@2@@2@V?$allocator@U?$pair@$$CB_KV?$set@_KU?$less@_K@std@@V?$allocator@_K@2@@std@@@std@@@2@$0A@@std@@@std@@IEAAXXZ 00000001800170d0 f i compiler:parse_table_builder.obj
 0001:00016190       ?_Destroy_if_not_nil@?$_Tree@V?$_Tmap_traits@USymbol@rules@tree_sitter@@UParseItemSet@build_tables@3@U?$less@USymbol@rules@tree_sitter@@@std@@V?$allocator@U?$pair@$$CBUSymbol@rules@tree_sitter@@UParseItemSet@build_tables@3@@std@@@7@$0A@@std@@@std@@IEAAXPEAU?$_Tree_node@U?$pair@$$CBUSymbol@rules@tree_sitter@@UParseItemSet@build_tables@3@@std@@PEAX@2@@Z 0000000180017190 f i compiler:parse_table_builder.obj
 0001:00016190       ?_Destroy_if_not_nil@?$_Tree@V?$_Tmap_traits@HUParseItemSet@build_tables@tree_sitter@@U?$less@H@std@@V?$allocator@U?$pair@$$CBHUParseItemSet@build_tables@tree_sitter@@@std@@@5@$0A@@std@@@std@@IEAAXPEAU?$_Tree_node@U?$pair@$$CBHUParseItemSet@build_tables@tree_sitter@@@std@@PEAX@2@@Z 0000000180017190 f i compiler:parse_table_builder.obj
 0001:000161e0       ?_Check_size@?$_Hash@V?$_Umap_traits@USymbol@rules@tree_sitter@@VLookaheadSet@build_tables@3@V?$_Uhash_compare@USymbol@rules@tree_sitter@@U?$hash@USymbol@rules@tree_sitter@@@std@@U?$equal_to@USymbol@rules@tree_sitter@@@5@@std@@V?$allocator@U?$pair@$$CBUSymbol@rules@tree_sitter@@VLookaheadSet@build_tables@3@@std@@@7@$0A@@std@@@std@@IEAAXXZ 00000001800171e0 f i compiler:parse_table_builder.obj
 0001:000162a0       ?_Check_size@?$_Hash@V?$_Umap_traits@U?$pair@HH@std@@V?$unordered_set@_KU?$hash@_K@std@@U?$equal_to@_K@2@V?$allocator@_K@2@@2@V?$_Uhash_compare@U?$pair@HH@std@@U?$hash@U?$pair@HH@std@@@2@U?$equal_to@U?$pair@HH@std@@@2@@2@V?$allocator@U?$pair@$$CBU?$pair@HH@std@@V?$unordered_set@_KU?$hash@_K@std@@U?$equal_to@_K@2@V?$allocator@_K@2@@2@@std@@@2@$0A@@std@@@std@@IEAAXXZ 00000001800172a0 f i compiler:parse_table_builder.obj
 0001:00016360       ?_Destroy_if_not_nil@?$_Tree@V?$_Tmap_traits@USymbol@rules@tree_sitter@@UParseTableEntry@3@U?$less@USymbol@rules@tree_sitter@@@std@@V?$allocator@U?$pair@$$CBUSymbol@rules@tree_sitter@@UParseTableEntry@3@@std@@@6@$0A@@std@@@std@@IEAAXPEAU?$_Tree_node@U?$pair@$$CBUSymbol@rules@tree_sitter@@UParseTableEntry@3@@std@@PEAX@2@@Z 0000000180017360 f i compiler:parse_table_builder.obj
 0001:000163c0       ??$_Insert_at@AEAU?$pair@$$CBUSymbol@rules@tree_sitter@@UParseItemSet@build_tables@3@@std@@PEAU?$_Tree_node@U?$pair@$$CBUSymbol@rules@tree_sitter@@UParseItemSet@build_tables@3@@std@@PEAX@2@@?$_Tree@V?$_Tmap_traits@USymbol@rules@tree_sitter@@UParseItemSet@build_tables@3@U?$less@USymbol@rules@tree_sitter@@@std@@V?$allocator@U?$pair@$$CBUSymbol@rules@tree_sitter@@UParseItemSet@build_tables@3@@std@@@7@$0A@@std@@@std@@IEAA?AV?$_Tree_iterator@V?$_Tree_val@U?$_Tree_simple_types@U?$pair@$$CBUSymbol@rules@tree_sitter@@UParseItemSet@build_tables@3@@std@@@std@@@std@@@1@_NPEAU?$_Tree_node@U?$pair@$$CBUSymbol@rules@tree_sitter@@UParseItemSet@build_tables@3@@std@@PEAX@1@AEAU?$pair@$$CBUSymbol@rules@tree_sitter@@UParseItemSet@build_tables@3@@1@1@Z 00000001800173c0 f i compiler:parse_table_builder.obj
 0001:000163c0       ??$_Insert_at@AEAU?$pair@$$CBHUParseItemSet@build_tables@tree_sitter@@@std@@PEAU?$_Tree_node@U?$pair@$$CBHUParseItemSet@build_tables@tree_sitter@@@std@@PEAX@2@@?$_Tree@V?$_Tmap_traits@HUParseItemSet@build_tables@tree_sitter@@U?$less@H@std@@V?$allocator@U?$pair@$$CBHUParseItemSet@build_tables@tree_sitter@@@std@@@5@$0A@@std@@@std@@IEAA?AV?$_Tree_iterator@V?$_Tree_val@U?$_Tree_simple_types@U?$pair@$$CBHUParseItemSet@build_tables@tree_sitter@@@std@@@std@@@std@@@1@_NPEAU?$_Tree_node@U?$pair@$$CBHUParseItemSet@build_tables@tree_sitter@@@std@@PEAX@1@AEAU?$pair@$$CBHUParseItemSet@build_tables@tree_sitter@@@1@1@Z 00000001800173c0 f i compiler:parse_table_builder.obj
 0001:00016690       ??$_Insert_nohint@AEAU?$pair@$$CBHUParseItemSet@build_tables@tree_sitter@@@std@@PEAU?$_Tree_node@U?$pair@$$CBHUParseItemSet@build_tables@tree_sitter@@@std@@PEAX@2@@?$_Tree@V?$_Tmap_traits@HUParseItemSet@build_tables@tree_sitter@@U?$less@H@std@@V?$allocator@U?$pair@$$CBHUParseItemSet@build_tables@tree_sitter@@@std@@@5@$0A@@std@@@std@@IEAA?AU?$pair@V?$_Tree_iterator@V?$_Tree_val@U?$_Tree_simple_types@U?$pair@$$CBHUParseItemSet@build_tables@tree_sitter@@@std@@@std@@@std@@@std@@_N@1@_NAEAU?$pair@$$CBHUParseItemSet@build_tables@tree_sitter@@@1@PEAU?$_Tree_node@U?$pair@$$CBHUParseItemSet@build_tables@tree_sitter@@@std@@PEAX@1@@Z 0000000180017690 f i compiler:parse_table_builder.obj
 0001:000167b0       ??$_Insert_nohint@AEAU?$pair@$$CBUSymbol@rules@tree_sitter@@UParseItemSet@build_tables@3@@std@@PEAU?$_Tree_node@U?$pair@$$CBUSymbol@rules@tree_sitter@@UParseItemSet@build_tables@3@@std@@PEAX@2@@?$_Tree@V?$_Tmap_traits@USymbol@rules@tree_sitter@@UParseItemSet@build_tables@3@U?$less@USymbol@rules@tree_sitter@@@std@@V?$allocator@U?$pair@$$CBUSymbol@rules@tree_sitter@@UParseItemSet@build_tables@3@@std@@@7@$0A@@std@@@std@@IEAA?AU?$pair@V?$_Tree_iterator@V?$_Tree_val@U?$_Tree_simple_types@U?$pair@$$CBUSymbol@rules@tree_sitter@@UParseItemSet@build_tables@3@@std@@@std@@@std@@@std@@_N@1@_NAEAU?$pair@$$CBUSymbol@rules@tree_sitter@@UParseItemSet@build_tables@3@@1@PEAU?$_Tree_node@U?$pair@$$CBUSymbol@rules@tree_sitter@@UParseItemSet@build_tables@3@@std@@PEAX@1@@Z 00000001800177b0 f i compiler:parse_table_builder.obj
 0001:00016910       ??$_Insert_at@AEAU?$pair@$$CBH_K@std@@PEAU?$_Tree_node@U?$pair@$$CBH_K@std@@PEAX@2@@?$_Tree@V?$_Tmap_traits@H_KU?$less@H@std@@V?$allocator@U?$pair@$$CBH_K@std@@@2@$0A@@std@@@std@@IEAA?AV?$_Tree_iterator@V?$_Tree_val@U?$_Tree_simple_types@U?$pair@$$CBH_K@std@@@std@@@std@@@1@_NPEAU?$_Tree_node@U?$pair@$$CBH_K@std@@PEAX@1@AEAU?$pair@$$CBH_K@1@1@Z 0000000180017910 f i compiler:parse_table_builder.obj
 0001:00016910       ??$_Insert_at@AEAU?$pair@$$CBUSymbol@rules@tree_sitter@@U123@@std@@PEAU?$_Tree_node@U?$pair@$$CBUSymbol@rules@tree_sitter@@U123@@std@@PEAX@2@@?$_Tree@V?$_Tmap_traits@USymbol@rules@tree_sitter@@U123@U?$less@USymbol@rules@tree_sitter@@@std@@V?$allocator@U?$pair@$$CBUSymbol@rules@tree_sitter@@U123@@std@@@5@$0A@@std@@@std@@IEAA?AV?$_Tree_iterator@V?$_Tree_val@U?$_Tree_simple_types@U?$pair@$$CBUSymbol@rules@tree_sitter@@U123@@std@@@std@@@std@@@1@_NPEAU?$_Tree_node@U?$pair@$$CBUSymbol@rules@tree_sitter@@U123@@std@@PEAX@1@AEAU?$pair@$$CBUSymbol@rules@tree_sitter@@U123@@1@1@Z 0000000180017910 f i compiler:extract_tokens.obj
 0001:00016bb0       ??$_Insert_nohint@AEAU?$pair@$$CBH_K@std@@PEAU?$_Tree_node@U?$pair@$$CBH_K@std@@PEAX@2@@?$_Tree@V?$_Tmap_traits@H_KU?$less@H@std@@V?$allocator@U?$pair@$$CBH_K@std@@@2@$0A@@std@@@std@@IEAA?AU?$pair@V?$_Tree_iterator@V?$_Tree_val@U?$_Tree_simple_types@U?$pair@$$CBH_K@std@@@std@@@std@@@std@@_N@1@_NAEAU?$pair@$$CBH_K@1@PEAU?$_Tree_node@U?$pair@$$CBH_K@std@@PEAX@1@@Z 0000000180017bb0 f i compiler:parse_table_builder.obj
 0001:00016cd0       ??$_Insert_at@AEAU?$pair@$$CBUSymbol@rules@tree_sitter@@UParseTableEntry@3@@std@@PEAU?$_Tree_node@U?$pair@$$CBUSymbol@rules@tree_sitter@@UParseTableEntry@3@@std@@PEAX@2@@?$_Tree@V?$_Tmap_traits@USymbol@rules@tree_sitter@@UParseTableEntry@3@U?$less@USymbol@rules@tree_sitter@@@std@@V?$allocator@U?$pair@$$CBUSymbol@rules@tree_sitter@@UParseTableEntry@3@@std@@@6@$0A@@std@@@std@@IEAA?AV?$_Tree_iterator@V?$_Tree_val@U?$_Tree_simple_types@U?$pair@$$CBUSymbol@rules@tree_sitter@@UParseTableEntry@3@@std@@@std@@@std@@@1@_NPEAU?$_Tree_node@U?$pair@$$CBUSymbol@rules@tree_sitter@@UParseTableEntry@3@@std@@PEAX@1@AEAU?$pair@$$CBUSymbol@rules@tree_sitter@@UParseTableEntry@3@@1@1@Z 0000000180017cd0 f i compiler:parse_table_builder.obj
 0001:00016fd0       ??$_Insert_nohint@AEAU?$pair@$$CBUSymbol@rules@tree_sitter@@UParseTableEntry@3@@std@@PEAU?$_Tree_node@U?$pair@$$CBUSymbol@rules@tree_sitter@@UParseTableEntry@3@@std@@PEAX@2@@?$_Tree@V?$_Tmap_traits@USymbol@rules@tree_sitter@@UParseTableEntry@3@U?$less@USymbol@rules@tree_sitter@@@std@@V?$allocator@U?$pair@$$CBUSymbol@rules@tree_sitter@@UParseTableEntry@3@@std@@@6@$0A@@std@@@std@@IEAA?AU?$pair@V?$_Tree_iterator@V?$_Tree_val@U?$_Tree_simple_types@U?$pair@$$CBUSymbol@rules@tree_sitter@@UParseTableEntry@3@@std@@@std@@@std@@@std@@_N@1@_NAEAU?$pair@$$CBUSymbol@rules@tree_sitter@@UParseTableEntry@3@@1@PEAU?$_Tree_node@U?$pair@$$CBUSymbol@rules@tree_sitter@@UParseTableEntry@3@@std@@PEAX@1@@Z 0000000180017fd0 f i compiler:parse_table_builder.obj
 0001:00017130       ??$_Destroy_range1@V?$allocator@UParseItemSetComponent@ParseItemSetBuilder@build_tables@tree_sitter@@@std@@PEAUParseItemSetComponent@ParseItemSetBuilder@build_tables@tree_sitter@@@std@@YAXPEAUParseItemSetComponent@ParseItemSetBuilder@build_tables@tree_sitter@@0AEAU?$_Wrap_alloc@V?$allocator@UParseItemSetComponent@ParseItemSetBuilder@build_tables@tree_sitter@@@std@@@0@U?$integral_constant@_N$0A@@0@@Z 0000000180018130 f i compiler:parse_table_builder.obj
 0001:00017290       ??$_Uninitialized_copy_al_unchecked1@PEBUProductionStep@tree_sitter@@PEAU12@V?$allocator@UProductionStep@tree_sitter@@@std@@@std@@YAPEAUProductionStep@tree_sitter@@PEBU12@0PEAU12@AEAU?$_Wrap_alloc@V?$allocator@UProductionStep@tree_sitter@@@std@@@0@U_General_ptr_iterator_tag@0@U_Any_tag@0@@Z 0000000180018290 f i compiler:parse_table_builder.obj
 0001:00017340       ??0?$pair@$$CBUParseItem@build_tables@tree_sitter@@VLookaheadSet@23@@std@@QEAA@AEBU01@@Z 0000000180018340 f i compiler:parse_table_builder.obj
 0001:000173c0       ??0LookaheadSet@build_tables@tree_sitter@@QEAA@AEBV012@@Z 00000001800183c0 f i compiler:parse_table_builder.obj
 0001:00017420       ??0?$vector@IV?$allocator@_N@std@@@std@@QEAA@AEBV01@@Z 0000000180018420 f i compiler:parse_table_builder.obj
 0001:000174d0       ??$_Equal_unchecked1@V?$_Tree_unchecked_const_iterator@V?$_Tree_val@U?$_Tree_simple_types@USymbol@rules@tree_sitter@@@std@@@std@@U_Iterator_base0@2@@std@@V12@U?$equal_to@X@2@@std@@YA_NV?$_Tree_unchecked_const_iterator@V?$_Tree_val@U?$_Tree_simple_types@USymbol@rules@tree_sitter@@@std@@@std@@U_Iterator_base0@2@@0@00AEAU?$equal_to@X@0@U?$integral_constant@_N$0A@@0@@Z 00000001800184d0 f i compiler:parse_table_builder.obj
 0001:000175d0       ??0?$vector@UAlias@rules@tree_sitter@@V?$allocator@UAlias@rules@tree_sitter@@@std@@@std@@QEAA@AEBV01@@Z 00000001800185d0 f i compiler:parse_table_builder.obj
 0001:00017690       ??0?$vector@UProduction@tree_sitter@@V?$allocator@UProduction@tree_sitter@@@std@@@std@@QEAA@AEBV01@@Z 0000000180018690 f i compiler:parse_table_builder.obj
 0001:00017770       ??$_Equal_unchecked1@V?$_Tree_unchecked_const_iterator@V?$_Tree_val@U?$_Tree_simple_types@U?$pair@$$CBH_K@std@@@std@@@std@@U_Iterator_base0@2@@std@@V12@U?$equal_to@X@2@@std@@YA_NV?$_Tree_unchecked_const_iterator@V?$_Tree_val@U?$_Tree_simple_types@U?$pair@$$CBH_K@std@@@std@@@std@@U_Iterator_base0@2@@0@00AEAU?$equal_to@X@0@U?$integral_constant@_N$0A@@0@@Z 0000000180018770 f i compiler:parse_table_builder.obj
 0001:00017870       ??$?0U?$_Wrap_alloc@V?$allocator@U?$_Tree_node@U?$pair@$$CBH_K@std@@PEAX@std@@@std@@@std@@@?$_Tree@V?$_Tmap_traits@H_KU?$less@H@std@@V?$allocator@U?$pair@$$CBH_K@std@@@2@$0A@@std@@@std@@QEAA@AEBV01@$$QEAU?$_Wrap_alloc@V?$allocator@U?$_Tree_node@U?$pair@$$CBH_K@std@@PEAX@std@@@std@@@1@@Z 0000000180018870 f i compiler:parse_table_builder.obj
 0001:00017970       ??$?0U?$_Wrap_alloc@V?$allocator@U?$_Tree_node@U?$pair@$$CBUSymbol@rules@tree_sitter@@UParseTableEntry@3@@std@@PEAX@std@@@std@@@std@@@?$_Tree@V?$_Tmap_traits@USymbol@rules@tree_sitter@@UParseTableEntry@3@U?$less@USymbol@rules@tree_sitter@@@std@@V?$allocator@U?$pair@$$CBUSymbol@rules@tree_sitter@@UParseTableEntry@3@@std@@@6@$0A@@std@@@std@@QEAA@AEBV01@$$QEAU?$_Wrap_alloc@V?$allocator@U?$_Tree_node@U?$pair@$$CBUSymbol@rules@tree_sitter@@UParseTableEntry@3@@std@@PEAX@std@@@std@@@1@@Z 0000000180018970 f i compiler:parse_table_builder.obj
 0001:00017a70       ??$?0U?$_Wrap_alloc@V?$allocator@U?$_Tree_node@U?$pair@$$CBUCharacterSet@rules@tree_sitter@@UAdvanceAction@3@@std@@PEAX@std@@@std@@@std@@@?$_Tree@V?$_Tmap_traits@UCharacterSet@rules@tree_sitter@@UAdvanceAction@3@U?$less@UCharacterSet@rules@tree_sitter@@@std@@V?$allocator@U?$pair@$$CBUCharacterSet@rules@tree_sitter@@UAdvanceAction@3@@std@@@6@$0A@@std@@@std@@QEAA@AEBV01@$$QEAU?$_Wrap_alloc@V?$allocator@U?$_Tree_node@U?$pair@$$CBUCharacterSet@rules@tree_sitter@@UAdvanceAction@3@@std@@PEAX@std@@@std@@@1@@Z 0000000180018a70 f i compiler:parse_table_builder.obj
 0001:00017b70       ??0ProductionStep@tree_sitter@@QEAA@AEBU01@@Z 0000000180018b70 f i compiler:parse_table_builder.obj
 0001:00017be0       ??$_Equal_unchecked1@PEBUAlias@rules@tree_sitter@@PEBU123@U?$equal_to@X@std@@@std@@YA_NPEBUAlias@rules@tree_sitter@@00AEAU?$equal_to@X@0@U?$integral_constant@_N$0A@@0@@Z 0000000180018be0 f i compiler:parse_table_builder.obj
 0001:00017ca0       ??$_Uninitialized_copy_al_unchecked@PEBUAlias@rules@tree_sitter@@PEAU123@V?$allocator@UAlias@rules@tree_sitter@@@std@@@std@@YAPEAUAlias@rules@tree_sitter@@PEBU123@0PEAU123@AEAU?$_Wrap_alloc@V?$allocator@UAlias@rules@tree_sitter@@@std@@@0@@Z 0000000180018ca0 f i compiler:parse_table_builder.obj
 0001:00017d20       ??$_Copy_nodes@U_Copy_tag@?$_Tree@V?$_Tmap_traits@H_KU?$less@H@std@@V?$allocator@U?$pair@$$CBH_K@std@@@2@$0A@@std@@@std@@@?$_Tree@V?$_Tmap_traits@H_KU?$less@H@std@@V?$allocator@U?$pair@$$CBH_K@std@@@2@$0A@@std@@@std@@IEAAPEAU?$_Tree_node@U?$pair@$$CBH_K@std@@PEAX@1@PEAU21@0U_Copy_tag@01@@Z 0000000180018d20 f i compiler:parse_table_builder.obj
 0001:00017e10       ??$_Copy_nodes@U_Copy_tag@?$_Tree@V?$_Tmap_traits@USymbol@rules@tree_sitter@@UParseTableEntry@3@U?$less@USymbol@rules@tree_sitter@@@std@@V?$allocator@U?$pair@$$CBUSymbol@rules@tree_sitter@@UParseTableEntry@3@@std@@@6@$0A@@std@@@std@@@?$_Tree@V?$_Tmap_traits@USymbol@rules@tree_sitter@@UParseTableEntry@3@U?$less@USymbol@rules@tree_sitter@@@std@@V?$allocator@U?$pair@$$CBUSymbol@rules@tree_sitter@@UParseTableEntry@3@@std@@@6@$0A@@std@@@std@@IEAAPEAU?$_Tree_node@U?$pair@$$CBUSymbol@rules@tree_sitter@@UParseTableEntry@3@@std@@PEAX@1@PEAU21@0U_Copy_tag@01@@Z 0000000180018e10 f i compiler:parse_table_builder.obj
 0001:00017ea0       ??$_Copy_nodes@U_Copy_tag@?$_Tree@V?$_Tmap_traits@UCharacterSet@rules@tree_sitter@@UAdvanceAction@3@U?$less@UCharacterSet@rules@tree_sitter@@@std@@V?$allocator@U?$pair@$$CBUCharacterSet@rules@tree_sitter@@UAdvanceAction@3@@std@@@6@$0A@@std@@@std@@@?$_Tree@V?$_Tmap_traits@UCharacterSet@rules@tree_sitter@@UAdvanceAction@3@U?$less@UCharacterSet@rules@tree_sitter@@@std@@V?$allocator@U?$pair@$$CBUCharacterSet@rules@tree_sitter@@UAdvanceAction@3@@std@@@6@$0A@@std@@@std@@IEAAPEAU?$_Tree_node@U?$pair@$$CBUCharacterSet@rules@tree_sitter@@UAdvanceAction@3@@std@@PEAX@1@PEAU21@0U_Copy_tag@01@@Z 0000000180018ea0 f i compiler:parse_table_builder.obj
 0001:00017f30       ??0?$unordered_set@_KU?$hash@_K@std@@U?$equal_to@_K@2@V?$allocator@_K@2@@std@@QEAA@XZ 0000000180018f30 f i compiler:parse_table_builder.obj
 0001:00017fa0       ??$_Buynode@AEAU?$pair@$$CBUSymbol@rules@tree_sitter@@UParseTableEntry@3@@std@@@?$_Tree_comp_alloc@V?$_Tmap_traits@USymbol@rules@tree_sitter@@UParseTableEntry@3@U?$less@USymbol@rules@tree_sitter@@@std@@V?$allocator@U?$pair@$$CBUSymbol@rules@tree_sitter@@UParseTableEntry@3@@std@@@6@$0A@@std@@@std@@QEAAPEAU?$_Tree_node@U?$pair@$$CBUSymbol@rules@tree_sitter@@UParseTableEntry@3@@std@@PEAX@1@AEAU?$pair@$$CBUSymbol@rules@tree_sitter@@UParseTableEntry@3@@1@@Z 0000000180018fa0 f i compiler:parse_table_builder.obj
 0001:00018040       ??$_Buynode@AEAU?$pair@$$CBUCharacterSet@rules@tree_sitter@@UAdvanceAction@3@@std@@@?$_Tree_comp_alloc@V?$_Tmap_traits@UCharacterSet@rules@tree_sitter@@UAdvanceAction@3@U?$less@UCharacterSet@rules@tree_sitter@@@std@@V?$allocator@U?$pair@$$CBUCharacterSet@rules@tree_sitter@@UAdvanceAction@3@@std@@@6@$0A@@std@@@std@@QEAAPEAU?$_Tree_node@U?$pair@$$CBUCharacterSet@rules@tree_sitter@@UAdvanceAction@3@@std@@PEAX@1@AEAU?$pair@$$CBUCharacterSet@rules@tree_sitter@@UAdvanceAction@3@@1@@Z 0000000180019040 f i compiler:parse_table_builder.obj
 0001:000180d0       ??0?$vector@UProductionStep@tree_sitter@@V?$allocator@UProductionStep@tree_sitter@@@std@@@std@@QEAA@AEBV01@@Z 00000001800190d0 f i compiler:parse_table_builder.obj
 0001:00018180       ??0?$vector@UParseAction@tree_sitter@@V?$allocator@UParseAction@tree_sitter@@@std@@@std@@QEAA@AEBV01@@Z 0000000180019180 f i compiler:parse_table_builder.obj
 0001:00018260       ??0CCodeGenerator@generate_code@tree_sitter@@QEAA@V?$basic_string@DU?$char_traits@D@std@@V?$allocator@D@2@@std@@$$QEAUParseTable@2@$$QEAULexTable@2@2USymbol@rules@2@$$QEAUSyntaxGrammar@2@$$QEAULexicalGrammar@2@$$QEAV?$unordered_map@USymbol@rules@tree_sitter@@UAlias@23@U?$hash@USymbol@rules@tree_sitter@@@std@@U?$equal_to@USymbol@rules@tree_sitter@@@6@V?$allocator@U?$pair@$$CBUSymbol@rules@tree_sitter@@UAlias@23@@std@@@6@@4@@Z 0000000180019260 f i compiler:c_code.obj
 0001:00018510       ?code@CCodeGenerator@generate_code@tree_sitter@@QEAA?AV?$basic_string@DU?$char_traits@D@std@@V?$allocator@D@2@@std@@XZ 0000000180019510 f i compiler:c_code.obj
 0001:000186a0       ?add_includes@CCodeGenerator@generate_code@tree_sitter@@AEAAXXZ 00000001800196a0 f i compiler:c_code.obj
 0001:00018740       ?add_pragmas@CCodeGenerator@generate_code@tree_sitter@@AEAAXXZ 0000000180019740 f i compiler:c_code.obj
 0001:00018940       ?add_stats@CCodeGenerator@generate_code@tree_sitter@@AEAAXXZ 0000000180019940 f i compiler:c_code.obj
 0001:00019290       ?assign_symbol_id@CCodeGenerator@generate_code@tree_sitter@@AEAAXAEBUSymbol@rules@3@PEAV?$unordered_set@V?$basic_string@DU?$char_traits@D@std@@V?$allocator@D@2@@std@@U?$hash@V?$basic_string@DU?$char_traits@D@std@@V?$allocator@D@2@@std@@@2@U?$equal_to@V?$basic_string@DU?$char_traits@D@std@@V?$allocator@D@2@@std@@@2@V?$allocator@V?$basic_string@DU?$char_traits@D@std@@V?$allocator@D@2@@std@@@2@@std@@@Z 000000018001a290 f i compiler:c_code.obj
 0001:00019890       ?add_symbol_enum@CCodeGenerator@generate_code@tree_sitter@@AEAAXXZ 000000018001a890 f i compiler:c_code.obj
 0001:00019f70       ?add_symbol_names_list@CCodeGenerator@generate_code@tree_sitter@@AEAAXXZ 000000018001af70 f i compiler:c_code.obj
 0001:0001a660       ?add_alias_sequences@CCodeGenerator@generate_code@tree_sitter@@AEAAXXZ 000000018001b660 f i compiler:c_code.obj
 0001:0001b100       ?add_symbol_metadata_list@CCodeGenerator@generate_code@tree_sitter@@AEAAXXZ 000000018001c100 f i compiler:c_code.obj
 0001:0001bb20       ?add_lex_function@CCodeGenerator@generate_code@tree_sitter@@AEAAXV?$basic_string@DU?$char_traits@D@std@@V?$allocator@D@2@@std@@AEBULexTable@3@@Z 000000018001cb20 f i compiler:c_code.obj
 0001:0001bee0       ?add_lex_modes_list@CCodeGenerator@generate_code@tree_sitter@@AEAAXXZ 000000018001cee0 f i compiler:c_code.obj
 0001:0001c990       ?add_external_scanner_state@CCodeGenerator@generate_code@tree_sitter@@AEAA?AV?$basic_string@DU?$char_traits@D@std@@V?$allocator@D@2@@std@@V?$set@HU?$less@H@std@@V?$allocator@H@2@@5@@Z 000000018001d990 f i compiler:c_code.obj
 0001:0001cab0       ?add_external_token_enum@CCodeGenerator@generate_code@tree_sitter@@AEAAXXZ 000000018001dab0 f i compiler:c_code.obj
 0001:0001cd80       ?add_external_scanner_symbol_map@CCodeGenerator@generate_code@tree_sitter@@AEAAXXZ 000000018001dd80 f i compiler:c_code.obj
 0001:0001d230       ?add_external_scanner_states_list@CCodeGenerator@generate_code@tree_sitter@@AEAAXXZ 000000018001e230 f i compiler:c_code.obj
 0001:0001d9f0       ?add_parse_table@CCodeGenerator@generate_code@tree_sitter@@AEAAXXZ 000000018001e9f0 f i compiler:c_code.obj
 0001:0001e590       ?add_parser_export@CCodeGenerator@generate_code@tree_sitter@@AEAAXXZ 000000018001f590 f i compiler:c_code.obj
 0001:0001f4b0       ?add_lex_state@CCodeGenerator@generate_code@tree_sitter@@AEAAXAEBULexState@3@@Z 00000001800204b0 f i compiler:c_code.obj
 0001:0001f800       ?add_character_range_conditions@CCodeGenerator@generate_code@tree_sitter@@AEAA_NAEBV?$vector@UCharacterRange@rules@tree_sitter@@V?$allocator@UCharacterRange@rules@tree_sitter@@@std@@@std@@AEBV?$set@IU?$less@I@std@@V?$allocator@I@2@@5@_N@Z 0000000180020800 f i compiler:c_code.obj
 0001:0001fbc0       ?add_character_range_condition@CCodeGenerator@generate_code@tree_sitter@@AEAAXAEBUCharacterRange@rules@3@_N@Z 0000000180020bc0 f i compiler:c_code.obj
 0001:00020130       ?add_advance_action@CCodeGenerator@generate_code@tree_sitter@@AEAAXAEBUAdvanceAction@3@@Z 0000000180021130 f i compiler:c_code.obj
 0001:000204d0       ?add_accept_token_action@CCodeGenerator@generate_code@tree_sitter@@AEAAXAEBUAcceptTokenAction@3@@Z 00000001800214d0 f i compiler:c_code.obj
 0001:000206f0       ?add_parse_action_list@CCodeGenerator@generate_code@tree_sitter@@AEAAXXZ 00000001800216f0 f i compiler:c_code.obj
 0001:000211c0       ?add_parse_action_list_id@CCodeGenerator@generate_code@tree_sitter@@AEAA_KAEBUParseTableEntry@3@@Z 00000001800221c0 f i compiler:c_code.obj
 0001:00021390       ?external_token_id@CCodeGenerator@generate_code@tree_sitter@@AEAA?AV?$basic_string@DU?$char_traits@D@std@@V?$allocator@D@2@@std@@H@Z 0000000180022390 f i compiler:c_code.obj
 0001:00021470       ?symbol_id@CCodeGenerator@generate_code@tree_sitter@@AEAA?AV?$basic_string@DU?$char_traits@D@std@@V?$allocator@D@2@@std@@AEBUSymbol@rules@3@@Z 0000000180022470 f i compiler:c_code.obj
 0001:000214c0       ?alias_id@CCodeGenerator@generate_code@tree_sitter@@AEAA?AV?$basic_string@DU?$char_traits@D@std@@V?$allocator@D@2@@std@@AEBUAlias@rules@3@@Z 00000001800224c0 f i compiler:c_code.obj
 0001:00021630       ?symbol_name@CCodeGenerator@generate_code@tree_sitter@@AEAA?AV?$basic_string@DU?$char_traits@D@std@@V?$allocator@D@2@@std@@AEBUSymbol@rules@3@@Z 0000000180022630 f i compiler:c_code.obj
 0001:000217f0       ?symbol_type@CCodeGenerator@generate_code@tree_sitter@@AEAA?AW4VariableType@3@AEBUSymbol@rules@3@@Z 00000001800227f0 f i compiler:c_code.obj
 0001:00021950       ?_switch@CCodeGenerator@generate_code@tree_sitter@@AEAAXV?$basic_string@DU?$char_traits@D@std@@V?$allocator@D@2@@std@@V?$function@$$A6AXXZ@5@@Z 0000000180022950 f i compiler:c_code.obj
 0001:00021b30       ?_case@CCodeGenerator@generate_code@tree_sitter@@AEAAXV?$basic_string@DU?$char_traits@D@std@@V?$allocator@D@2@@std@@V?$function@$$A6AXXZ@5@@Z 0000000180022b30 f i compiler:c_code.obj
 0001:00021d00       ?_default@CCodeGenerator@generate_code@tree_sitter@@AEAAXV?$function@$$A6AXXZ@std@@@Z 0000000180022d00 f i compiler:c_code.obj
 0001:00021dd0       ?sanitize_name_for_string@CCodeGenerator@generate_code@tree_sitter@@AEAA?AV?$basic_string@DU?$char_traits@D@std@@V?$allocator@D@2@@std@@V45@@Z 0000000180022dd0 f i compiler:c_code.obj
 0001:00022480       ?sanitize_name@CCodeGenerator@generate_code@tree_sitter@@AEAA?AV?$basic_string@DU?$char_traits@D@std@@V?$allocator@D@2@@std@@AEBV45@@Z 0000000180023480 f i compiler:c_code.obj
 0001:00022690       ?line@CCodeGenerator@generate_code@tree_sitter@@AEAAXXZ 0000000180023690 f i compiler:c_code.obj
 0001:000226e0       ?line@CCodeGenerator@generate_code@tree_sitter@@AEAAXV?$basic_string@DU?$char_traits@D@std@@V?$allocator@D@2@@std@@@Z 00000001800236e0 f i compiler:c_code.obj
 0001:000227b0       ?add_padding@CCodeGenerator@generate_code@tree_sitter@@AEAAXXZ 00000001800237b0 f i compiler:c_code.obj
 0001:00022890       ?indent@CCodeGenerator@generate_code@tree_sitter@@AEAAXV?$function@$$A6AXXZ@std@@@Z 0000000180023890 f i compiler:c_code.obj
 0001:000228f0       ??0ParseTable@tree_sitter@@QEAA@$$QEAU01@@Z 00000001800238f0 f i compiler:c_code.obj
 0001:00022990       ??0SyntaxGrammar@tree_sitter@@QEAA@$$QEAU01@@Z 0000000180023990 f i compiler:c_code.obj
 0001:00022a50       ??1CCodeGenerator@generate_code@tree_sitter@@QEAA@XZ 0000000180023a50 f i compiler:c_code.obj
 0001:00022c30       ?push_back@?$vector@U?$pair@_KUParseTableEntry@tree_sitter@@@std@@V?$allocator@U?$pair@_KUParseTableEntry@tree_sitter@@@std@@@2@@std@@QEAAX$$QEAU?$pair@_KUParseTableEntry@tree_sitter@@@2@@Z 0000000180023c30 f i compiler:c_code.obj
 0001:00022d60       ??0?$map@DV?$basic_string@DU?$char_traits@D@std@@V?$allocator@D@2@@std@@U?$less@D@2@V?$allocator@U?$pair@$$CBDV?$basic_string@DU?$char_traits@D@std@@V?$allocator@D@2@@std@@@std@@@2@@std@@QEAA@V?$initializer_list@U?$pair@$$CBDV?$basic_string@DU?$char_traits@D@std@@V?$allocator@D@2@@std@@@std@@@1@@Z 0000000180023d60 f i compiler:c_code.obj
 0001:00022de0       ??0?$set@V?$set@USymbol@rules@tree_sitter@@U?$less@USymbol@rules@tree_sitter@@@std@@V?$allocator@USymbol@rules@tree_sitter@@@5@@std@@U?$less@V?$set@USymbol@rules@tree_sitter@@U?$less@USymbol@rules@tree_sitter@@@std@@V?$allocator@USymbol@rules@tree_sitter@@@5@@std@@@2@V?$allocator@V?$set@USymbol@rules@tree_sitter@@U?$less@USymbol@rules@tree_sitter@@@std@@V?$allocator@USymbol@rules@tree_sitter@@@5@@std@@@2@@std@@QEAA@$$QEAV01@@Z 0000000180023de0 f i compiler:c_code.obj
 0001:00022e60       ??0?$set@USymbol@rules@tree_sitter@@U?$less@USymbol@rules@tree_sitter@@@std@@V?$allocator@USymbol@rules@tree_sitter@@@5@@std@@QEAA@$$QEAV01@@Z 0000000180023e60 f i compiler:c_code.obj
 0001:00022ee0       ?compare@?$basic_string@DU?$char_traits@D@std@@V?$allocator@D@2@@std@@QEBAHAEBV12@@Z 0000000180023ee0 f i compiler:c_code.obj
 0001:00022f60       ??4?$basic_string@DU?$char_traits@D@std@@V?$allocator@D@2@@std@@QEAAAEAV01@$$QEAV01@@Z 0000000180023f60 f i compiler:c_code.obj
 0001:00023000       ?equal_range@?$_Hash@V?$_Uset_traits@V?$basic_string@DU?$char_traits@D@std@@V?$allocator@D@2@@std@@V?$_Uhash_compare@V?$basic_string@DU?$char_traits@D@std@@V?$allocator@D@2@@std@@U?$hash@V?$basic_string@DU?$char_traits@D@std@@V?$allocator@D@2@@std@@@2@U?$equal_to@V?$basic_string@DU?$char_traits@D@std@@V?$allocator@D@2@@std@@@2@@2@V?$allocator@V?$basic_string@DU?$char_traits@D@std@@V?$allocator@D@2@@std@@@2@$0A@@std@@@std@@QEBA?AU?$pair@V?$_List_const_iterator@V?$_List_val@U?$_List_simple_types@V?$basic_string@DU?$char_traits@D@std@@V?$allocator@D@2@@std@@@std@@@std@@@std@@V12@@2@AEBV?$basic_string@DU?$char_traits@D@std@@V?$allocator@D@2@@2@@Z 0000000180024000 f i compiler:c_code.obj
 0001:000231a0       ?_Tidy@?$vector@V?$set@HU?$less@H@std@@V?$allocator@H@2@@std@@V?$allocator@V?$set@HU?$less@H@std@@V?$allocator@H@2@@std@@@2@@std@@IEAAXXZ 00000001800241a0 f i compiler:c_code.obj
 0001:00023230       ?_Reserve@?$vector@V?$set@HU?$less@H@std@@V?$allocator@H@2@@std@@V?$allocator@V?$set@HU?$less@H@std@@V?$allocator@H@2@@std@@@2@@std@@IEAAX_K@Z 0000000180024230 f i compiler:c_code.obj
 0001:000232c0       ?_Reserve@?$vector@U?$pair@_KUParseTableEntry@tree_sitter@@@std@@V?$allocator@U?$pair@_KUParseTableEntry@tree_sitter@@@std@@@2@@std@@IEAAX_K@Z 00000001800242c0 f i compiler:c_code.obj
 0001:00023390       ??0?$_Hash@V?$_Umap_traits@USymbol@rules@tree_sitter@@UAlias@23@V?$_Uhash_compare@USymbol@rules@tree_sitter@@U?$hash@USymbol@rules@tree_sitter@@@std@@U?$equal_to@USymbol@rules@tree_sitter@@@5@@std@@V?$allocator@U?$pair@$$CBUSymbol@rules@tree_sitter@@UAlias@23@@std@@@6@$0A@@std@@@std@@QEAA@$$QEAV01@@Z 0000000180024390 f i compiler:c_code.obj
 0001:00023470       ?append@?$basic_string@DU?$char_traits@D@std@@V?$allocator@D@2@@std@@QEAAAEAV12@_KD@Z 0000000180024470 f i compiler:c_code.obj
 0001:00023580       ?erase@?$_Tree@V?$_Tset_traits@UAlias@rules@tree_sitter@@U?$less@UAlias@rules@tree_sitter@@@std@@V?$allocator@UAlias@rules@tree_sitter@@@5@$0A@@std@@@std@@QEAA?AV?$_Tree_const_iterator@V?$_Tree_val@U?$_Tree_simple_types@UAlias@rules@tree_sitter@@@std@@@std@@@2@V32@0@Z 0000000180024580 f i compiler:c_code.obj
 0001:00023680       ?deallocate@?$_Wrap_alloc@V?$allocator@V?$set@HU?$less@H@std@@V?$allocator@H@2@@std@@@std@@@std@@QEAAXPEAV?$set@HU?$less@H@std@@V?$allocator@H@2@@2@_K@Z 0000000180024680 f i compiler:c_code.obj
 0001:000236f0       ?_Reallocate@?$vector@V?$set@HU?$less@H@std@@V?$allocator@H@2@@std@@V?$allocator@V?$set@HU?$less@H@std@@V?$allocator@H@2@@std@@@2@@std@@IEAAX_K@Z 00000001800246f0 f i compiler:c_code.obj
 0001:00023810       ?_Reallocate@?$vector@U?$pair@_KUParseTableEntry@tree_sitter@@@std@@V?$allocator@U?$pair@_KUParseTableEntry@tree_sitter@@@std@@@2@@std@@IEAAX_K@Z 0000000180024810 f i compiler:c_code.obj
 0001:000239a0       ?erase@?$_Tree@V?$_Tmap_traits@USymbol@rules@tree_sitter@@V?$basic_string@DU?$char_traits@D@std@@V?$allocator@D@2@@std@@U?$less@USymbol@rules@tree_sitter@@@5@V?$allocator@U?$pair@$$CBUSymbol@rules@tree_sitter@@V?$basic_string@DU?$char_traits@D@std@@V?$allocator@D@2@@std@@@std@@@5@$0A@@std@@@std@@QEAA?AV?$_Tree_iterator@V?$_Tree_val@U?$_Tree_simple_types@U?$pair@$$CBUSymbol@rules@tree_sitter@@V?$basic_string@DU?$char_traits@D@std@@V?$allocator@D@2@@std@@@std@@@std@@@std@@@2@V?$_Tree_const_iterator@V?$_Tree_val@U?$_Tree_simple_types@U?$pair@$$CBUSymbol@rules@tree_sitter@@V?$basic_string@DU?$char_traits@D@std@@V?$allocator@D@2@@std@@@std@@@std@@@std@@@2@0@Z 00000001800249a0 f i compiler:c_code.obj
 0001:00023aa0       ?erase@?$_Tree@V?$_Tmap_traits@DV?$basic_string@DU?$char_traits@D@std@@V?$allocator@D@2@@std@@U?$less@D@2@V?$allocator@U?$pair@$$CBDV?$basic_string@DU?$char_traits@D@std@@V?$allocator@D@2@@std@@@std@@@2@$0A@@std@@@std@@QEAA?AV?$_Tree_iterator@V?$_Tree_val@U?$_Tree_simple_types@U?$pair@$$CBDV?$basic_string@DU?$char_traits@D@std@@V?$allocator@D@2@@std@@@std@@@std@@@std@@@2@V?$_Tree_const_iterator@V?$_Tree_val@U?$_Tree_simple_types@U?$pair@$$CBDV?$basic_string@DU?$char_traits@D@std@@V?$allocator@D@2@@std@@@std@@@std@@@std@@@2@0@Z 0000000180024aa0 f i compiler:c_code.obj
 0001:00023bb0       ?erase@?$_Tree@V?$_Tset_traits@UAlias@rules@tree_sitter@@U?$less@UAlias@rules@tree_sitter@@@std@@V?$allocator@UAlias@rules@tree_sitter@@@5@$0A@@std@@@std@@QEAA?AV?$_Tree_const_iterator@V?$_Tree_val@U?$_Tree_simple_types@UAlias@rules@tree_sitter@@@std@@@std@@@2@V32@@Z 0000000180024bb0 f i compiler:c_code.obj
 0001:00023fc0       ?erase@?$_Tree@V?$_Tmap_traits@USymbol@rules@tree_sitter@@V?$basic_string@DU?$char_traits@D@std@@V?$allocator@D@2@@std@@U?$less@USymbol@rules@tree_sitter@@@5@V?$allocator@U?$pair@$$CBUSymbol@rules@tree_sitter@@V?$basic_string@DU?$char_traits@D@std@@V?$allocator@D@2@@std@@@std@@@5@$0A@@std@@@std@@QEAA?AV?$_Tree_iterator@V?$_Tree_val@U?$_Tree_simple_types@U?$pair@$$CBUSymbol@rules@tree_sitter@@V?$basic_string@DU?$char_traits@D@std@@V?$allocator@D@2@@std@@@std@@@std@@@std@@@2@V?$_Tree_const_iterator@V?$_Tree_val@U?$_Tree_simple_types@U?$pair@$$CBUSymbol@rules@tree_sitter@@V?$basic_string@DU?$char_traits@D@std@@V?$allocator@D@2@@std@@@std@@@std@@@std@@@2@@Z 0000000180024fc0 f i compiler:c_code.obj
 0001:000243d0       ?erase@?$_Tree@V?$_Tmap_traits@DV?$basic_string@DU?$char_traits@D@std@@V?$allocator@D@2@@std@@U?$less@D@2@V?$allocator@U?$pair@$$CBDV?$basic_string@DU?$char_traits@D@std@@V?$allocator@D@2@@std@@@std@@@2@$0A@@std@@@std@@QEAA?AV?$_Tree_iterator@V?$_Tree_val@U?$_Tree_simple_types@U?$pair@$$CBDV?$basic_string@DU?$char_traits@D@std@@V?$allocator@D@2@@std@@@std@@@std@@@std@@@2@V?$_Tree_const_iterator@V?$_Tree_val@U?$_Tree_simple_types@U?$pair@$$CBDV?$basic_string@DU?$char_traits@D@std@@V?$allocator@D@2@@std@@@std@@@std@@@std@@@2@@Z 00000001800253d0 f i compiler:c_code.obj
 0001:000247b0       ?_Erase@?$_Tree@V?$_Tset_traits@UAlias@rules@tree_sitter@@U?$less@UAlias@rules@tree_sitter@@@std@@V?$allocator@UAlias@rules@tree_sitter@@@5@$0A@@std@@@std@@IEAAXPEAU?$_Tree_node@UAlias@rules@tree_sitter@@PEAX@2@@Z 00000001800257b0 f i compiler:c_code.obj
 0001:00024890       ?_Erase@?$_Tree@V?$_Tmap_traits@DV?$basic_string@DU?$char_traits@D@std@@V?$allocator@D@2@@std@@U?$less@D@2@V?$allocator@U?$pair@$$CBDV?$basic_string@DU?$char_traits@D@std@@V?$allocator@D@2@@std@@@std@@@2@$0A@@std@@@std@@IEAAXPEAU?$_Tree_node@U?$pair@$$CBDV?$basic_string@DU?$char_traits@D@std@@V?$allocator@D@2@@std@@@std@@PEAX@2@@Z 0000000180025890 f i compiler:c_code.obj
 0001:00024890       ?_Erase@?$_Tree@V?$_Tmap_traits@USymbol@rules@tree_sitter@@V?$basic_string@DU?$char_traits@D@std@@V?$allocator@D@2@@std@@U?$less@USymbol@rules@tree_sitter@@@5@V?$allocator@U?$pair@$$CBUSymbol@rules@tree_sitter@@V?$basic_string@DU?$char_traits@D@std@@V?$allocator@D@2@@std@@@std@@@5@$0A@@std@@@std@@IEAAXPEAU?$_Tree_node@U?$pair@$$CBUSymbol@rules@tree_sitter@@V?$basic_string@DU?$char_traits@D@std@@V?$allocator@D@2@@std@@@std@@PEAX@2@@Z 0000000180025890 f i compiler:c_code.obj
 0001:00024970       ?_Rrotate@?$_Tree@V?$_Tmap_traits@DV?$basic_string@DU?$char_traits@D@std@@V?$allocator@D@2@@std@@U?$less@D@2@V?$allocator@U?$pair@$$CBDV?$basic_string@DU?$char_traits@D@std@@V?$allocator@D@2@@std@@@std@@@2@$0A@@std@@@std@@IEAAXPEAU?$_Tree_node@U?$pair@$$CBDV?$basic_string@DU?$char_traits@D@std@@V?$allocator@D@2@@std@@@std@@PEAX@2@@Z 0000000180025970 f i compiler:c_code.obj
 0001:000249d0       ?_Lrotate@?$_Tree@V?$_Tmap_traits@DV?$basic_string@DU?$char_traits@D@std@@V?$allocator@D@2@@std@@U?$less@D@2@V?$allocator@U?$pair@$$CBDV?$basic_string@DU?$char_traits@D@std@@V?$allocator@D@2@@std@@@std@@@2@$0A@@std@@@std@@IEAAXPEAU?$_Tree_node@U?$pair@$$CBDV?$basic_string@DU?$char_traits@D@std@@V?$allocator@D@2@@std@@@std@@PEAX@2@@Z 00000001800259d0 f i compiler:c_code.obj
 0001:00024a30       ??$_Integral_to_string@DH@std@@YA?AV?$basic_string@DU?$char_traits@D@std@@V?$allocator@D@2@@0@H@Z 0000000180025a30 f i compiler:c_code.obj
 0001:00024b10       ??$_Integral_to_string@DI@std@@YA?AV?$basic_string@DU?$char_traits@D@std@@V?$allocator@D@2@@0@I@Z 0000000180025b10 f i compiler:c_code.obj
 0001:00024ba0       ??$_Integral_to_string@D_J@std@@YA?AV?$basic_string@DU?$char_traits@D@std@@V?$allocator@D@2@@0@_J@Z 0000000180025ba0 f i compiler:c_code.obj
 0001:00024c90       ??$insert@V?$_Tree_const_iterator@V?$_Tree_val@U?$_Tree_simple_types@I@std@@@std@@@std@@@?$_Tree@V?$_Tset_traits@IU?$less@I@std@@V?$allocator@I@2@$0A@@std@@@std@@QEAAXV?$_Tree_const_iterator@V?$_Tree_val@U?$_Tree_simple_types@I@std@@@std@@@1@0@Z 0000000180025c90 f i compiler:c_code.obj
 0001:00024da0       ??$?0U?$_Wrap_alloc@V?$allocator@U?$_Tree_node@HPEAX@std@@@std@@@std@@@?$_Tree@V?$_Tset_traits@HU?$less@H@std@@V?$allocator@H@2@$0A@@std@@@std@@QEAA@AEBV01@$$QEAU?$_Wrap_alloc@V?$allocator@U?$_Tree_node@HPEAX@std@@@std@@@1@@Z 0000000180025da0 f i compiler:c_code.obj
 0001:00024ea0       ??$insert@PEBU?$pair@$$CBDV?$basic_string@DU?$char_traits@D@std@@V?$allocator@D@2@@std@@@std@@@?$_Tree@V?$_Tmap_traits@DV?$basic_string@DU?$char_traits@D@std@@V?$allocator@D@2@@std@@U?$less@D@2@V?$allocator@U?$pair@$$CBDV?$basic_string@DU?$char_traits@D@std@@V?$allocator@D@2@@std@@@std@@@2@$0A@@std@@@std@@QEAAXPEBU?$pair@$$CBDV?$basic_string@DU?$char_traits@D@std@@V?$allocator@D@2@@std@@@1@0@Z 0000000180025ea0 f i compiler:c_code.obj
 0001:00024f90       ??$_Insert_nohint@AEBUAlias@rules@tree_sitter@@U_Nil@std@@@?$_Tree@V?$_Tset_traits@UAlias@rules@tree_sitter@@U?$less@UAlias@rules@tree_sitter@@@std@@V?$allocator@UAlias@rules@tree_sitter@@@5@$0A@@std@@@std@@IEAA?AU?$pair@V?$_Tree_const_iterator@V?$_Tree_val@U?$_Tree_simple_types@UAlias@rules@tree_sitter@@@std@@@std@@@std@@_N@1@_NAEBUAlias@rules@tree_sitter@@U_Nil@1@@Z 0000000180025f90 f i compiler:c_code.obj
 0001:00025170       ??$_Insert@AEBV?$basic_string@DU?$char_traits@D@std@@V?$allocator@D@2@@std@@U_Nil@2@@?$_Hash@V?$_Uset_traits@V?$basic_string@DU?$char_traits@D@std@@V?$allocator@D@2@@std@@V?$_Uhash_compare@V?$basic_string@DU?$char_traits@D@std@@V?$allocator@D@2@@std@@U?$hash@V?$basic_string@DU?$char_traits@D@std@@V?$allocator@D@2@@std@@@2@U?$equal_to@V?$basic_string@DU?$char_traits@D@std@@V?$allocator@D@2@@std@@@2@@2@V?$allocator@V?$basic_string@DU?$char_traits@D@std@@V?$allocator@D@2@@std@@@2@$0A@@std@@@std@@IEAA?AU?$pair@V?$_List_const_iterator@V?$_List_val@U?$_List_simple_types@V?$basic_string@DU?$char_traits@D@std@@V?$allocator@D@2@@std@@@std@@@std@@@std@@_N@1@AEBV?$basic_string@DU?$char_traits@D@std@@V?$allocator@D@2@@1@U_Nil@1@@Z 0000000180026170 f i compiler:c_code.obj
 0001:00025370       ??$_Insert_nohint@AEBHU_Nil@std@@@?$_Tree@V?$_Tset_traits@HU?$less@H@std@@V?$allocator@H@2@$0A@@std@@@std@@IEAA?AU?$pair@V?$_Tree_const_iterator@V?$_Tree_val@U?$_Tree_simple_types@H@std@@@std@@@std@@_N@1@_NAEBHU_Nil@1@@Z 0000000180026370 f i compiler:c_code.obj
 0001:000254c0       ??$_Try_emplace@AEBUSymbol@rules@tree_sitter@@$$V@?$map@USymbol@rules@tree_sitter@@V?$basic_string@DU?$char_traits@D@std@@V?$allocator@D@2@@std@@U?$less@USymbol@rules@tree_sitter@@@5@V?$allocator@U?$pair@$$CBUSymbol@rules@tree_sitter@@V?$basic_string@DU?$char_traits@D@std@@V?$allocator@D@2@@std@@@std@@@5@@std@@QEAA?AU?$pair@V?$_Tree_iterator@V?$_Tree_val@U?$_Tree_simple_types@U?$pair@$$CBUSymbol@rules@tree_sitter@@V?$basic_string@DU?$char_traits@D@std@@V?$allocator@D@2@@std@@@std@@@std@@@std@@@std@@_N@1@AEBUSymbol@rules@tree_sitter@@@Z 00000001800264c0 f i compiler:c_code.obj
 0001:000254c0       ??$_Try_emplace@USymbol@rules@tree_sitter@@$$V@?$map@USymbol@rules@tree_sitter@@V?$basic_string@DU?$char_traits@D@std@@V?$allocator@D@2@@std@@U?$less@USymbol@rules@tree_sitter@@@5@V?$allocator@U?$pair@$$CBUSymbol@rules@tree_sitter@@V?$basic_string@DU?$char_traits@D@std@@V?$allocator@D@2@@std@@@std@@@5@@std@@QEAA?AU?$pair@V?$_Tree_iterator@V?$_Tree_val@U?$_Tree_simple_types@U?$pair@$$CBUSymbol@rules@tree_sitter@@V?$basic_string@DU?$char_traits@D@std@@V?$allocator@D@2@@std@@@std@@@std@@@std@@@std@@_N@1@$$QEAUSymbol@rules@tree_sitter@@@Z 00000001800264c0 f i compiler:c_code.obj
 0001:000255e0       ??$_Destroy_range1@V?$allocator@U?$pair@_KUParseTableEntry@tree_sitter@@@std@@@std@@PEAU?$pair@_KUParseTableEntry@tree_sitter@@@2@@std@@YAXPEAU?$pair@_KUParseTableEntry@tree_sitter@@@0@0AEAU?$_Wrap_alloc@V?$allocator@U?$pair@_KUParseTableEntry@tree_sitter@@@std@@@std@@@0@U?$integral_constant@_N$0A@@0@@Z 00000001800265e0 f i compiler:c_code.obj
 0001:000256d0       ?_Check_size@?$_Hash@V?$_Uset_traits@V?$basic_string@DU?$char_traits@D@std@@V?$allocator@D@2@@std@@V?$_Uhash_compare@V?$basic_string@DU?$char_traits@D@std@@V?$allocator@D@2@@std@@U?$hash@V?$basic_string@DU?$char_traits@D@std@@V?$allocator@D@2@@std@@@2@U?$equal_to@V?$basic_string@DU?$char_traits@D@std@@V?$allocator@D@2@@std@@@2@@2@V?$allocator@V?$basic_string@DU?$char_traits@D@std@@V?$allocator@D@2@@std@@@2@$0A@@std@@@std@@IEAAXXZ 00000001800266d0 f i compiler:c_code.obj
 0001:00025790       ??R?$less@UAlias@rules@tree_sitter@@@std@@QEBA_NAEBUAlias@rules@tree_sitter@@0@Z 0000000180026790 f i compiler:c_code.obj
 0001:000257f0       ??$_Insert_at@AEBUAlias@rules@tree_sitter@@U_Nil@std@@@?$_Tree@V?$_Tset_traits@UAlias@rules@tree_sitter@@U?$less@UAlias@rules@tree_sitter@@@std@@V?$allocator@UAlias@rules@tree_sitter@@@5@$0A@@std@@@std@@IEAA?AV?$_Tree_const_iterator@V?$_Tree_val@U?$_Tree_simple_types@UAlias@rules@tree_sitter@@@std@@@std@@@1@_NPEAU?$_Tree_node@UAlias@rules@tree_sitter@@PEAX@1@AEBUAlias@rules@tree_sitter@@U_Nil@1@@Z 00000001800267f0 f i compiler:c_code.obj
 0001:00025b30       ??$_Insert_at@AEBIU_Nil@std@@@?$_Tree@V?$_Tset_traits@IU?$less@I@std@@V?$allocator@I@2@$0A@@std@@@std@@IEAA?AV?$_Tree_const_iterator@V?$_Tree_val@U?$_Tree_simple_types@I@std@@@std@@@1@_NPEAU?$_Tree_node@IPEAX@1@AEBIU_Nil@1@@Z 0000000180026b30 f i compiler:character_set.obj
 0001:00025b30       ??$_Insert_at@AEBHU_Nil@std@@@?$_Tree@V?$_Tset_traits@HU?$less@H@std@@V?$allocator@H@2@$0A@@std@@@std@@IEAA?AV?$_Tree_const_iterator@V?$_Tree_val@U?$_Tree_simple_types@H@std@@@std@@@1@_NPEAU?$_Tree_node@HPEAX@1@AEBHU_Nil@1@@Z 0000000180026b30 f i compiler:c_code.obj
 0001:00025e40       ??$_Insert_hint@AEAIPEAU?$_Tree_node@IPEAX@std@@@?$_Tree@V?$_Tset_traits@IU?$less@I@std@@V?$allocator@I@2@$0A@@std@@@std@@IEAA?AV?$_Tree_const_iterator@V?$_Tree_val@U?$_Tree_simple_types@I@std@@@std@@@1@V21@AEAIPEAU?$_Tree_node@IPEAX@1@@Z 0000000180026e40 f i compiler:c_code.obj
 0001:00026090       ??$_Insert_hint@AEAU?$pair@$$CBDV?$basic_string@DU?$char_traits@D@std@@V?$allocator@D@2@@std@@@std@@PEAU?$_Tree_node@U?$pair@$$CBDV?$basic_string@DU?$char_traits@D@std@@V?$allocator@D@2@@std@@@std@@PEAX@2@@?$_Tree@V?$_Tmap_traits@DV?$basic_string@DU?$char_traits@D@std@@V?$allocator@D@2@@std@@U?$less@D@2@V?$allocator@U?$pair@$$CBDV?$basic_string@DU?$char_traits@D@std@@V?$allocator@D@2@@std@@@std@@@2@$0A@@std@@@std@@IEAA?AV?$_Tree_iterator@V?$_Tree_val@U?$_Tree_simple_types@U?$pair@$$CBDV?$basic_string@DU?$char_traits@D@std@@V?$allocator@D@2@@std@@@std@@@std@@@std@@@1@V?$_Tree_const_iterator@V?$_Tree_val@U?$_Tree_simple_types@U?$pair@$$CBDV?$basic_string@DU?$char_traits@D@std@@V?$allocator@D@2@@std@@@std@@@std@@@std@@@1@AEAU?$pair@$$CBDV?$basic_string@DU?$char_traits@D@std@@V?$allocator@D@2@@std@@@1@PEAU?$_Tree_node@U?$pair@$$CBDV?$basic_string@DU?$char_traits@D@std@@V?$allocator@D@2@@std@@@std@@PEAX@1@@Z 0000000180027090 f i compiler:c_code.obj
 0001:000262c0       ??$_Insert@AEBV?$basic_string@DU?$char_traits@D@std@@V?$allocator@D@2@@std@@V?$_List_unchecked_const_iterator@V?$_List_val@U?$_List_simple_types@V?$basic_string@DU?$char_traits@D@std@@V?$allocator@D@2@@std@@@std@@@std@@U_Iterator_base0@2@@2@@?$_Hash@V?$_Uset_traits@V?$basic_string@DU?$char_traits@D@std@@V?$allocator@D@2@@std@@V?$_Uhash_compare@V?$basic_string@DU?$char_traits@D@std@@V?$allocator@D@2@@std@@U?$hash@V?$basic_string@DU?$char_traits@D@std@@V?$allocator@D@2@@std@@@2@U?$equal_to@V?$basic_string@DU?$char_traits@D@std@@V?$allocator@D@2@@std@@@2@@2@V?$allocator@V?$basic_string@DU?$char_traits@D@std@@V?$allocator@D@2@@std@@@2@$0A@@std@@@std@@IEAA?AU?$pair@V?$_List_const_iterator@V?$_List_val@U?$_List_simple_types@V?$basic_string@DU?$char_traits@D@std@@V?$allocator@D@2@@std@@@std@@@std@@@std@@_N@1@AEBV?$basic_string@DU?$char_traits@D@std@@V?$allocator@D@2@@1@V?$_List_unchecked_const_iterator@V?$_List_val@U?$_List_simple_types@V?$basic_string@DU?$char_traits@D@std@@V?$allocator@D@2@@std@@@std@@@std@@U_Iterator_base0@2@@1@@Z 00000001800272c0 f i compiler:c_code.obj
 0001:000264b0       ?_Target_type@?$_Func_impl@V<lambda_bfb1d8dd53b0aa47ce56e422d4dc9259>@@V?$allocator@H@std@@X$$V@std@@EEBAAEBVtype_info@@XZ 00000001800274b0 f i compiler:c_code.obj
 0001:000264c0       ?_Do_call@?$_Func_impl@V<lambda_bfb1d8dd53b0aa47ce56e422d4dc9259>@@V?$allocator@H@std@@X$$V@std@@EEAAXXZ 00000001800274c0 f i compiler:c_code.obj
 0001:000264d0       ?_Move@?$_Func_impl@V<lambda_bfb1d8dd53b0aa47ce56e422d4dc9259>@@V?$allocator@H@std@@X$$V@std@@EEAAPEAV?$_Func_base@X$$V@2@PEAX@Z 00000001800274d0 f i compiler:c_code.obj
 0001:000264d0       ?_Copy@?$_Func_impl@V<lambda_bfb1d8dd53b0aa47ce56e422d4dc9259>@@V?$allocator@H@std@@X$$V@std@@EEBAPEAV?$_Func_base@X$$V@2@PEAX@Z 00000001800274d0 f i compiler:c_code.obj
 0001:000264f0       ?_Target_type@?$_Func_impl@V<lambda_d01b871ed20d662e3cec20e2c4f99d7c>@@V?$allocator@H@std@@X$$V@std@@EEBAAEBVtype_info@@XZ 00000001800274f0 f i compiler:c_code.obj
 0001:00026500       ?_Do_call@?$_Func_impl@V<lambda_d01b871ed20d662e3cec20e2c4f99d7c>@@V?$allocator@H@std@@X$$V@std@@EEAAXXZ 0000000180027500 f i compiler:c_code.obj
 0001:00026520       ?_Move@?$_Func_impl@V<lambda_d01b871ed20d662e3cec20e2c4f99d7c>@@V?$allocator@H@std@@X$$V@std@@EEAAPEAV?$_Func_base@X$$V@2@PEAX@Z 0000000180027520 f i compiler:c_code.obj
 0001:00026520       ?_Copy@?$_Func_impl@V<lambda_d01b871ed20d662e3cec20e2c4f99d7c>@@V?$allocator@H@std@@X$$V@std@@EEBAPEAV?$_Func_base@X$$V@2@PEAX@Z 0000000180027520 f i compiler:c_code.obj
 0001:00026540       ?_Target_type@?$_Func_impl@V<lambda_d820b37d2817dc684e92a98a214ec7f4>@@V?$allocator@H@std@@X$$V@std@@EEBAAEBVtype_info@@XZ 0000000180027540 f i compiler:c_code.obj
 0001:00026550       ?_Do_call@?$_Func_impl@V<lambda_d820b37d2817dc684e92a98a214ec7f4>@@V?$allocator@H@std@@X$$V@std@@EEAAXXZ 0000000180027550 f i compiler:c_code.obj
 0001:00026560       ?_Move@?$_Func_impl@V<lambda_d820b37d2817dc684e92a98a214ec7f4>@@V?$allocator@H@std@@X$$V@std@@EEAAPEAV?$_Func_base@X$$V@2@PEAX@Z 0000000180027560 f i compiler:c_code.obj
 0001:00026560       ?_Copy@?$_Func_impl@V<lambda_d820b37d2817dc684e92a98a214ec7f4>@@V?$allocator@H@std@@X$$V@std@@EEBAPEAV?$_Func_base@X$$V@2@PEAX@Z 0000000180027560 f i compiler:c_code.obj
 0001:00026580       ?_Target_type@?$_Func_impl@V<lambda_8fc2fb5829b488fb2e4126ec5a2f7c43>@@V?$allocator@H@std@@X$$V@std@@EEBAAEBVtype_info@@XZ 0000000180027580 f i compiler:c_code.obj
 0001:00026590       ?_Do_call@?$_Func_impl@V<lambda_8fc2fb5829b488fb2e4126ec5a2f7c43>@@V?$allocator@H@std@@X$$V@std@@EEAAXXZ 0000000180027590 f i compiler:c_code.obj
 0001:000265a0       ?_Move@?$_Func_impl@V<lambda_8fc2fb5829b488fb2e4126ec5a2f7c43>@@V?$allocator@H@std@@X$$V@std@@EEAAPEAV?$_Func_base@X$$V@2@PEAX@Z 00000001800275a0 f i compiler:c_code.obj
 0001:000265a0       ?_Copy@?$_Func_impl@V<lambda_8fc2fb5829b488fb2e4126ec5a2f7c43>@@V?$allocator@H@std@@X$$V@std@@EEBAPEAV?$_Func_base@X$$V@2@PEAX@Z 00000001800275a0 f i compiler:c_code.obj
 0001:000265c0       ?_Target_type@?$_Func_impl@V<lambda_543a3cd59435f8f7e46d40cc21e4a607>@@V?$allocator@H@std@@X$$V@std@@EEBAAEBVtype_info@@XZ 00000001800275c0 f i compiler:c_code.obj
 0001:000265d0       ?_Do_call@?$_Func_impl@V<lambda_543a3cd59435f8f7e46d40cc21e4a607>@@V?$allocator@H@std@@X$$V@std@@EEAAXXZ 00000001800275d0 f i compiler:c_code.obj
 0001:000265e0       ?_Copy@?$_Func_impl@V<lambda_543a3cd59435f8f7e46d40cc21e4a607>@@V?$allocator@H@std@@X$$V@std@@EEBAPEAV?$_Func_base@X$$V@2@PEAX@Z 00000001800275e0 f i compiler:c_code.obj
 0001:000265e0       ?_Move@?$_Func_impl@V<lambda_543a3cd59435f8f7e46d40cc21e4a607>@@V?$allocator@H@std@@X$$V@std@@EEAAPEAV?$_Func_base@X$$V@2@PEAX@Z 00000001800275e0 f i compiler:c_code.obj
 0001:00026600       ?_Target_type@?$_Func_impl@V<lambda_90a833c5dfeba0b12c9fa835744c8b3a>@@V?$allocator@H@std@@X$$V@std@@EEBAAEBVtype_info@@XZ 0000000180027600 f i compiler:c_code.obj
 0001:00026610       ?_Do_call@?$_Func_impl@V<lambda_90a833c5dfeba0b12c9fa835744c8b3a>@@V?$allocator@H@std@@X$$V@std@@EEAAXXZ 0000000180027610 f i compiler:c_code.obj
 0001:00026620       ?_Copy@?$_Func_impl@V<lambda_90a833c5dfeba0b12c9fa835744c8b3a>@@V?$allocator@H@std@@X$$V@std@@EEBAPEAV?$_Func_base@X$$V@2@PEAX@Z 0000000180027620 f i compiler:c_code.obj
 0001:00026620       ?_Move@?$_Func_impl@V<lambda_90a833c5dfeba0b12c9fa835744c8b3a>@@V?$allocator@H@std@@X$$V@std@@EEAAPEAV?$_Func_base@X$$V@2@PEAX@Z 0000000180027620 f i compiler:c_code.obj
 0001:00026640       ?_Target_type@?$_Func_impl@V<lambda_00be77449250f181ede7251f6ce71797>@@V?$allocator@H@std@@X$$V@std@@EEBAAEBVtype_info@@XZ 0000000180027640 f i compiler:c_code.obj
 0001:00026650       ?_Do_call@?$_Func_impl@V<lambda_00be77449250f181ede7251f6ce71797>@@V?$allocator@H@std@@X$$V@std@@EEAAXXZ 0000000180027650 f i compiler:c_code.obj
 0001:00026660       ?_Copy@?$_Func_impl@V<lambda_00be77449250f181ede7251f6ce71797>@@V?$allocator@H@std@@X$$V@std@@EEBAPEAV?$_Func_base@X$$V@2@PEAX@Z 0000000180027660 f i compiler:c_code.obj
 0001:00026660       ?_Move@?$_Func_impl@V<lambda_00be77449250f181ede7251f6ce71797>@@V?$allocator@H@std@@X$$V@std@@EEAAPEAV?$_Func_base@X$$V@2@PEAX@Z 0000000180027660 f i compiler:c_code.obj
 0001:00026680       ?_Target_type@?$_Func_impl@V<lambda_c89cc469a930828ef027df7561d551d8>@@V?$allocator@H@std@@X$$V@std@@EEBAAEBVtype_info@@XZ 0000000180027680 f i compiler:c_code.obj
 0001:00026690       ?_Do_call@?$_Func_impl@V<lambda_c89cc469a930828ef027df7561d551d8>@@V?$allocator@H@std@@X$$V@std@@EEAAXXZ 0000000180027690 f i compiler:c_code.obj
 0001:000266a0       ?_Move@?$_Func_impl@V<lambda_c89cc469a930828ef027df7561d551d8>@@V?$allocator@H@std@@X$$V@std@@EEAAPEAV?$_Func_base@X$$V@2@PEAX@Z 00000001800276a0 f i compiler:c_code.obj
 0001:000266a0       ?_Copy@?$_Func_impl@V<lambda_c89cc469a930828ef027df7561d551d8>@@V?$allocator@H@std@@X$$V@std@@EEBAPEAV?$_Func_base@X$$V@2@PEAX@Z 00000001800276a0 f i compiler:c_code.obj
 0001:000266c0       ?_Target_type@?$_Func_impl@V<lambda_2f8c859855bd76e64bc0f73ed4c1eb41>@@V?$allocator@H@std@@X$$V@std@@EEBAAEBVtype_info@@XZ 00000001800276c0 f i compiler:c_code.obj
 0001:000266d0       ?_Do_call@?$_Func_impl@V<lambda_2f8c859855bd76e64bc0f73ed4c1eb41>@@V?$allocator@H@std@@X$$V@std@@EEAAXXZ 00000001800276d0 f i compiler:c_code.obj
 0001:000266e0       ?_Move@?$_Func_impl@V<lambda_2f8c859855bd76e64bc0f73ed4c1eb41>@@V?$allocator@H@std@@X$$V@std@@EEAAPEAV?$_Func_base@X$$V@2@PEAX@Z 00000001800276e0 f i compiler:c_code.obj
 0001:000266e0       ?_Copy@?$_Func_impl@V<lambda_2f8c859855bd76e64bc0f73ed4c1eb41>@@V?$allocator@H@std@@X$$V@std@@EEBAPEAV?$_Func_base@X$$V@2@PEAX@Z 00000001800276e0 f i compiler:c_code.obj
 0001:00026700       ?_Target_type@?$_Func_impl@V<lambda_cff6fe89b5db7ac61035d5839802610d>@@V?$allocator@H@std@@X$$V@std@@EEBAAEBVtype_info@@XZ 0000000180027700 f i compiler:c_code.obj
 0001:00026710       ?_Do_call@?$_Func_impl@V<lambda_cff6fe89b5db7ac61035d5839802610d>@@V?$allocator@H@std@@X$$V@std@@EEAAXXZ 0000000180027710 f i compiler:c_code.obj
 0001:00026720       ?_Copy@?$_Func_impl@V<lambda_cff6fe89b5db7ac61035d5839802610d>@@V?$allocator@H@std@@X$$V@std@@EEBAPEAV?$_Func_base@X$$V@2@PEAX@Z 0000000180027720 f i compiler:c_code.obj
 0001:00026720       ?_Move@?$_Func_impl@V<lambda_cff6fe89b5db7ac61035d5839802610d>@@V?$allocator@H@std@@X$$V@std@@EEAAPEAV?$_Func_base@X$$V@2@PEAX@Z 0000000180027720 f i compiler:c_code.obj
 0001:00026740       ?_Target_type@?$_Func_impl@V<lambda_843ed54f51bca7fde6ba83675e21baea>@@V?$allocator@H@std@@X$$V@std@@EEBAAEBVtype_info@@XZ 0000000180027740 f i compiler:c_code.obj
 0001:00026750       ?_Do_call@?$_Func_impl@V<lambda_843ed54f51bca7fde6ba83675e21baea>@@V?$allocator@H@std@@X$$V@std@@EEAAXXZ 0000000180027750 f i compiler:c_code.obj
 0001:00026760       ?_Copy@?$_Func_impl@V<lambda_843ed54f51bca7fde6ba83675e21baea>@@V?$allocator@H@std@@X$$V@std@@EEBAPEAV?$_Func_base@X$$V@2@PEAX@Z 0000000180027760 f i compiler:c_code.obj
 0001:00026760       ?_Move@?$_Func_impl@V<lambda_843ed54f51bca7fde6ba83675e21baea>@@V?$allocator@H@std@@X$$V@std@@EEAAPEAV?$_Func_base@X$$V@2@PEAX@Z 0000000180027760 f i compiler:c_code.obj
 0001:00026780       ?_Target_type@?$_Func_impl@V<lambda_cd3008fe69255ec2f79bb23111359c12>@@V?$allocator@H@std@@X$$V@std@@EEBAAEBVtype_info@@XZ 0000000180027780 f i compiler:c_code.obj
 0001:00026790       ?_Do_call@?$_Func_impl@V<lambda_cd3008fe69255ec2f79bb23111359c12>@@V?$allocator@H@std@@X$$V@std@@EEAAXXZ 0000000180027790 f i compiler:c_code.obj
 0001:000267a0       ?_Copy@?$_Func_impl@V<lambda_cd3008fe69255ec2f79bb23111359c12>@@V?$allocator@H@std@@X$$V@std@@EEBAPEAV?$_Func_base@X$$V@2@PEAX@Z 00000001800277a0 f i compiler:c_code.obj
 0001:000267a0       ?_Move@?$_Func_impl@V<lambda_cd3008fe69255ec2f79bb23111359c12>@@V?$allocator@H@std@@X$$V@std@@EEAAPEAV?$_Func_base@X$$V@2@PEAX@Z 00000001800277a0 f i compiler:c_code.obj
 0001:000267c0       ?_Target_type@?$_Func_impl@V<lambda_bbd927756f78d9f295cd6617be8c9ecb>@@V?$allocator@H@std@@X$$V@std@@EEBAAEBVtype_info@@XZ 00000001800277c0 f i compiler:c_code.obj
 0001:000267d0       ?_Do_call@?$_Func_impl@V<lambda_bbd927756f78d9f295cd6617be8c9ecb>@@V?$allocator@H@std@@X$$V@std@@EEAAXXZ 00000001800277d0 f i compiler:c_code.obj
 0001:000267e0       ?_Copy@?$_Func_impl@V<lambda_bbd927756f78d9f295cd6617be8c9ecb>@@V?$allocator@H@std@@X$$V@std@@EEBAPEAV?$_Func_base@X$$V@2@PEAX@Z 00000001800277e0 f i compiler:c_code.obj
 0001:000267e0       ?_Move@?$_Func_impl@V<lambda_bbd927756f78d9f295cd6617be8c9ecb>@@V?$allocator@H@std@@X$$V@std@@EEAAPEAV?$_Func_base@X$$V@2@PEAX@Z 00000001800277e0 f i compiler:c_code.obj
 0001:00026800       ?_Target_type@?$_Func_impl@V<lambda_f3c88d48d3fc5a697ed8f11ab3329f1c>@@V?$allocator@H@std@@X$$V@std@@EEBAAEBVtype_info@@XZ 0000000180027800 f i compiler:c_code.obj
 0001:00026810       ?_Do_call@?$_Func_impl@V<lambda_f3c88d48d3fc5a697ed8f11ab3329f1c>@@V?$allocator@H@std@@X$$V@std@@EEAAXXZ 0000000180027810 f i compiler:c_code.obj
 0001:00026820       ?_Move@?$_Func_impl@V<lambda_f3c88d48d3fc5a697ed8f11ab3329f1c>@@V?$allocator@H@std@@X$$V@std@@EEAAPEAV?$_Func_base@X$$V@2@PEAX@Z 0000000180027820 f i compiler:c_code.obj
 0001:00026820       ?_Copy@?$_Func_impl@V<lambda_f3c88d48d3fc5a697ed8f11ab3329f1c>@@V?$allocator@H@std@@X$$V@std@@EEBAPEAV?$_Func_base@X$$V@2@PEAX@Z 0000000180027820 f i compiler:c_code.obj
 0001:00026840       ?_Target_type@?$_Func_impl@V<lambda_e936005ad611d39f0be9758699551e35>@@V?$allocator@H@std@@X$$V@std@@EEBAAEBVtype_info@@XZ 0000000180027840 f i compiler:c_code.obj
 0001:00026850       ?_Do_call@?$_Func_impl@V<lambda_e936005ad611d39f0be9758699551e35>@@V?$allocator@H@std@@X$$V@std@@EEAAXXZ 0000000180027850 f i compiler:c_code.obj
 0001:000268a0       ?_Move@?$_Func_impl@V<lambda_e936005ad611d39f0be9758699551e35>@@V?$allocator@H@std@@X$$V@std@@EEAAPEAV?$_Func_base@X$$V@2@PEAX@Z 00000001800278a0 f i compiler:c_code.obj
 0001:000268a0       ?_Copy@?$_Func_impl@V<lambda_e936005ad611d39f0be9758699551e35>@@V?$allocator@H@std@@X$$V@std@@EEBAPEAV?$_Func_base@X$$V@2@PEAX@Z 00000001800278a0 f i compiler:c_code.obj
 0001:000268c0       ?_Target_type@?$_Func_impl@V<lambda_210bcb06eae019baddacea6985019db5>@@V?$allocator@H@std@@X$$V@std@@EEBAAEBVtype_info@@XZ 00000001800278c0 f i compiler:c_code.obj
 0001:000268d0       ?_Do_call@?$_Func_impl@V<lambda_210bcb06eae019baddacea6985019db5>@@V?$allocator@H@std@@X$$V@std@@EEAAXXZ 00000001800278d0 f i compiler:c_code.obj
 0001:000268e0       ?_Move@?$_Func_impl@V<lambda_210bcb06eae019baddacea6985019db5>@@V?$allocator@H@std@@X$$V@std@@EEAAPEAV?$_Func_base@X$$V@2@PEAX@Z 00000001800278e0 f i compiler:c_code.obj
 0001:000268e0       ?_Copy@?$_Func_impl@V<lambda_210bcb06eae019baddacea6985019db5>@@V?$allocator@H@std@@X$$V@std@@EEBAPEAV?$_Func_base@X$$V@2@PEAX@Z 00000001800278e0 f i compiler:c_code.obj
 0001:00026900       ?_Target_type@?$_Func_impl@V<lambda_1b21efb5e47011ba1902b4c70534ceb8>@@V?$allocator@H@std@@X$$V@std@@EEBAAEBVtype_info@@XZ 0000000180027900 f i compiler:c_code.obj
 0001:00026910       ?_Do_call@?$_Func_impl@V<lambda_1b21efb5e47011ba1902b4c70534ceb8>@@V?$allocator@H@std@@X$$V@std@@EEAAXXZ 0000000180027910 f i compiler:c_code.obj
 0001:00026920       ?_Move@?$_Func_impl@V<lambda_1b21efb5e47011ba1902b4c70534ceb8>@@V?$allocator@H@std@@X$$V@std@@EEAAPEAV?$_Func_base@X$$V@2@PEAX@Z 0000000180027920 f i compiler:c_code.obj
 0001:00026920       ?_Copy@?$_Func_impl@V<lambda_1b21efb5e47011ba1902b4c70534ceb8>@@V?$allocator@H@std@@X$$V@std@@EEBAPEAV?$_Func_base@X$$V@2@PEAX@Z 0000000180027920 f i compiler:c_code.obj
 0001:00026940       ?_Target_type@?$_Func_impl@V<lambda_cf325b738c9086ed0409bf2d87c226b5>@@V?$allocator@H@std@@X$$V@std@@EEBAAEBVtype_info@@XZ 0000000180027940 f i compiler:c_code.obj
 0001:00026950       ?_Do_call@?$_Func_impl@V<lambda_cf325b738c9086ed0409bf2d87c226b5>@@V?$allocator@H@std@@X$$V@std@@EEAAXXZ 0000000180027950 f i compiler:c_code.obj
 0001:00026960       ?_Copy@?$_Func_impl@V<lambda_cf325b738c9086ed0409bf2d87c226b5>@@V?$allocator@H@std@@X$$V@std@@EEBAPEAV?$_Func_base@X$$V@2@PEAX@Z 0000000180027960 f i compiler:c_code.obj
 0001:00026960       ?_Move@?$_Func_impl@V<lambda_cf325b738c9086ed0409bf2d87c226b5>@@V?$allocator@H@std@@X$$V@std@@EEAAPEAV?$_Func_base@X$$V@2@PEAX@Z 0000000180027960 f i compiler:c_code.obj
 0001:00026980       ?_Target_type@?$_Func_impl@V<lambda_d89122670b023232ee03e21923b79c05>@@V?$allocator@H@std@@X$$V@std@@EEBAAEBVtype_info@@XZ 0000000180027980 f i compiler:c_code.obj
 0001:00026990       ?_Do_call@?$_Func_impl@V<lambda_d89122670b023232ee03e21923b79c05>@@V?$allocator@H@std@@X$$V@std@@EEAAXXZ 0000000180027990 f i compiler:c_code.obj
 0001:000269a0       ?_Copy@?$_Func_impl@V<lambda_d89122670b023232ee03e21923b79c05>@@V?$allocator@H@std@@X$$V@std@@EEBAPEAV?$_Func_base@X$$V@2@PEAX@Z 00000001800279a0 f i compiler:c_code.obj
 0001:000269a0       ?_Move@?$_Func_impl@V<lambda_d89122670b023232ee03e21923b79c05>@@V?$allocator@H@std@@X$$V@std@@EEAAPEAV?$_Func_base@X$$V@2@PEAX@Z 00000001800279a0 f i compiler:c_code.obj
 0001:000269c0       ?_Target_type@?$_Func_impl@V<lambda_0a5ae07724bb75fea1a0c2a985e6fe57>@@V?$allocator@H@std@@X$$V@std@@EEBAAEBVtype_info@@XZ 00000001800279c0 f i compiler:c_code.obj
 0001:000269d0       ?_Do_call@?$_Func_impl@V<lambda_0a5ae07724bb75fea1a0c2a985e6fe57>@@V?$allocator@H@std@@X$$V@std@@EEAAXXZ 00000001800279d0 f i compiler:c_code.obj
 0001:000269e0       ?_Move@?$_Func_impl@V<lambda_0a5ae07724bb75fea1a0c2a985e6fe57>@@V?$allocator@H@std@@X$$V@std@@EEAAPEAV?$_Func_base@X$$V@2@PEAX@Z 00000001800279e0 f i compiler:c_code.obj
 0001:000269e0       ?_Copy@?$_Func_impl@V<lambda_0a5ae07724bb75fea1a0c2a985e6fe57>@@V?$allocator@H@std@@X$$V@std@@EEBAPEAV?$_Func_base@X$$V@2@PEAX@Z 00000001800279e0 f i compiler:c_code.obj
 0001:00026a00       ?_Target_type@?$_Func_impl@V<lambda_c5b9231ecd9f4e346e739b29cd743fa6>@@V?$allocator@H@std@@X$$V@std@@EEBAAEBVtype_info@@XZ 0000000180027a00 f i compiler:c_code.obj
 0001:00026a10       ?_Do_call@?$_Func_impl@V<lambda_c5b9231ecd9f4e346e739b29cd743fa6>@@V?$allocator@H@std@@X$$V@std@@EEAAXXZ 0000000180027a10 f i compiler:c_code.obj
 0001:00026a20       ?_Move@?$_Func_impl@V<lambda_c5b9231ecd9f4e346e739b29cd743fa6>@@V?$allocator@H@std@@X$$V@std@@EEAAPEAV?$_Func_base@X$$V@2@PEAX@Z 0000000180027a20 f i compiler:c_code.obj
 0001:00026a20       ?_Copy@?$_Func_impl@V<lambda_c5b9231ecd9f4e346e739b29cd743fa6>@@V?$allocator@H@std@@X$$V@std@@EEBAPEAV?$_Func_base@X$$V@2@PEAX@Z 0000000180027a20 f i compiler:c_code.obj
 0001:00026a40       ?_Target_type@?$_Func_impl@V<lambda_86a36b9cd94214787c22f3f728a255d0>@@V?$allocator@H@std@@X$$V@std@@EEBAAEBVtype_info@@XZ 0000000180027a40 f i compiler:c_code.obj
 0001:00026a50       ?_Do_call@?$_Func_impl@V<lambda_86a36b9cd94214787c22f3f728a255d0>@@V?$allocator@H@std@@X$$V@std@@EEAAXXZ 0000000180027a50 f i compiler:c_code.obj
 0001:00026a60       ?_Move@?$_Func_impl@V<lambda_86a36b9cd94214787c22f3f728a255d0>@@V?$allocator@H@std@@X$$V@std@@EEAAPEAV?$_Func_base@X$$V@2@PEAX@Z 0000000180027a60 f i compiler:c_code.obj
 0001:00026a60       ?_Copy@?$_Func_impl@V<lambda_86a36b9cd94214787c22f3f728a255d0>@@V?$allocator@H@std@@X$$V@std@@EEBAPEAV?$_Func_base@X$$V@2@PEAX@Z 0000000180027a60 f i compiler:c_code.obj
 0001:00026a80       ?_Target_type@?$_Func_impl@V<lambda_f66e46d37b0f7d9bb7de75525058a5d0>@@V?$allocator@H@std@@X$$V@std@@EEBAAEBVtype_info@@XZ 0000000180027a80 f i compiler:c_code.obj
 0001:00026a90       ?_Do_call@?$_Func_impl@V<lambda_f66e46d37b0f7d9bb7de75525058a5d0>@@V?$allocator@H@std@@X$$V@std@@EEAAXXZ 0000000180027a90 f i compiler:c_code.obj
 0001:00026aa0       ?_Move@?$_Func_impl@V<lambda_f66e46d37b0f7d9bb7de75525058a5d0>@@V?$allocator@H@std@@X$$V@std@@EEAAPEAV?$_Func_base@X$$V@2@PEAX@Z 0000000180027aa0 f i compiler:c_code.obj
 0001:00026aa0       ?_Copy@?$_Func_impl@V<lambda_f66e46d37b0f7d9bb7de75525058a5d0>@@V?$allocator@H@std@@X$$V@std@@EEBAPEAV?$_Func_base@X$$V@2@PEAX@Z 0000000180027aa0 f i compiler:c_code.obj
 0001:00026ac0       ??$_Insert_at@AEAIPEAU?$_Tree_node@IPEAX@std@@@?$_Tree@V?$_Tset_traits@IU?$less@I@std@@V?$allocator@I@2@$0A@@std@@@std@@IEAA?AV?$_Tree_const_iterator@V?$_Tree_val@U?$_Tree_simple_types@I@std@@@std@@@1@_NPEAU?$_Tree_node@IPEAX@1@AEAI1@Z 0000000180027ac0 f i compiler:c_code.obj
 0001:00026d60       ??$_Insert_nohint@AEAIPEAU?$_Tree_node@IPEAX@std@@@?$_Tree@V?$_Tset_traits@IU?$less@I@std@@V?$allocator@I@2@$0A@@std@@@std@@IEAA?AU?$pair@V?$_Tree_const_iterator@V?$_Tree_val@U?$_Tree_simple_types@I@std@@@std@@@std@@_N@1@_NAEAIPEAU?$_Tree_node@IPEAX@1@@Z 0000000180027d60 f i compiler:c_code.obj
 0001:00026e80       ??$_Insert_hint@AEAU?$pair@$$CBUSymbol@rules@tree_sitter@@V?$basic_string@DU?$char_traits@D@std@@V?$allocator@D@2@@std@@@std@@PEAU?$_Tree_node@U?$pair@$$CBUSymbol@rules@tree_sitter@@V?$basic_string@DU?$char_traits@D@std@@V?$allocator@D@2@@std@@@std@@PEAX@2@@?$_Tree@V?$_Tmap_traits@USymbol@rules@tree_sitter@@V?$basic_string@DU?$char_traits@D@std@@V?$allocator@D@2@@std@@U?$less@USymbol@rules@tree_sitter@@@5@V?$allocator@U?$pair@$$CBUSymbol@rules@tree_sitter@@V?$basic_string@DU?$char_traits@D@std@@V?$allocator@D@2@@std@@@std@@@5@$0A@@std@@@std@@IEAA?AV?$_Tree_iterator@V?$_Tree_val@U?$_Tree_simple_types@U?$pair@$$CBUSymbol@rules@tree_sitter@@V?$basic_string@DU?$char_traits@D@std@@V?$allocator@D@2@@std@@@std@@@std@@@std@@@1@V?$_Tree_const_iterator@V?$_Tree_val@U?$_Tree_simple_types@U?$pair@$$CBUSymbol@rules@tree_sitter@@V?$basic_string@DU?$char_traits@D@std@@V?$allocator@D@2@@std@@@std@@@std@@@std@@@1@AEAU?$pair@$$CBUSymbol@rules@tree_sitter@@V?$basic_string@DU?$char_traits@D@std@@V?$allocator@D@2@@std@@@1@PEAU?$_Tree_node@U?$pair@$$CBUSymbol@rules@tree_sitter@@V?$basic_string@DU?$char_traits@D@std@@V?$allocator@D@2@@std@@@std@@PEAX@1@@Z 0000000180027e80 f i compiler:c_code.obj
 0001:00027110       ??$_Insert_at@AEAU?$pair@$$CBDV?$basic_string@DU?$char_traits@D@std@@V?$allocator@D@2@@std@@@std@@PEAU?$_Tree_node@U?$pair@$$CBDV?$basic_string@DU?$char_traits@D@std@@V?$allocator@D@2@@std@@@std@@PEAX@2@@?$_Tree@V?$_Tmap_traits@DV?$basic_string@DU?$char_traits@D@std@@V?$allocator@D@2@@std@@U?$less@D@2@V?$allocator@U?$pair@$$CBDV?$basic_string@DU?$char_traits@D@std@@V?$allocator@D@2@@std@@@std@@@2@$0A@@std@@@std@@IEAA?AV?$_Tree_iterator@V?$_Tree_val@U?$_Tree_simple_types@U?$pair@$$CBDV?$basic_string@DU?$char_traits@D@std@@V?$allocator@D@2@@std@@@std@@@std@@@std@@@1@_NPEAU?$_Tree_node@U?$pair@$$CBDV?$basic_string@DU?$char_traits@D@std@@V?$allocator@D@2@@std@@@std@@PEAX@1@AEAU?$pair@$$CBDV?$basic_string@DU?$char_traits@D@std@@V?$allocator@D@2@@std@@@1@1@Z 0000000180028110 f i compiler:c_code.obj
 0001:00027400       ??$_Insert_nohint@AEAU?$pair@$$CBDV?$basic_string@DU?$char_traits@D@std@@V?$allocator@D@2@@std@@@std@@PEAU?$_Tree_node@U?$pair@$$CBDV?$basic_string@DU?$char_traits@D@std@@V?$allocator@D@2@@std@@@std@@PEAX@2@@?$_Tree@V?$_Tmap_traits@DV?$basic_string@DU?$char_traits@D@std@@V?$allocator@D@2@@std@@U?$less@D@2@V?$allocator@U?$pair@$$CBDV?$basic_string@DU?$char_traits@D@std@@V?$allocator@D@2@@std@@@std@@@2@$0A@@std@@@std@@IEAA?AU?$pair@V?$_Tree_iterator@V?$_Tree_val@U?$_Tree_simple_types@U?$pair@$$CBDV?$basic_string@DU?$char_traits@D@std@@V?$allocator@D@2@@std@@@std@@@std@@@std@@@std@@_N@1@_NAEAU?$pair@$$CBDV?$basic_string@DU?$char_traits@D@std@@V?$allocator@D@2@@std@@@1@PEAU?$_Tree_node@U?$pair@$$CBDV?$basic_string@DU?$char_traits@D@std@@V?$allocator@D@2@@std@@@std@@PEAX@1@@Z 0000000180028400 f i compiler:c_code.obj
 0001:00027530       ??$_Uninitialized_move_al_unchecked1@PEAV?$set@HU?$less@H@std@@V?$allocator@H@2@@std@@PEAV12@V?$allocator@V?$set@HU?$less@H@std@@V?$allocator@H@2@@std@@@2@@std@@YAPEAV?$set@HU?$less@H@std@@V?$allocator@H@2@@0@PEAV10@00AEAU?$_Wrap_alloc@V?$allocator@V?$set@HU?$less@H@std@@V?$allocator@H@2@@std@@@std@@@0@U_General_ptr_iterator_tag@0@U_Any_tag@0@@Z 0000000180028530 f i compiler:c_code.obj
 0001:000275e0       ??$_Insert_at@AEAU?$pair@$$CBUSymbol@rules@tree_sitter@@V?$basic_string@DU?$char_traits@D@std@@V?$allocator@D@2@@std@@@std@@PEAU?$_Tree_node@U?$pair@$$CBUSymbol@rules@tree_sitter@@V?$basic_string@DU?$char_traits@D@std@@V?$allocator@D@2@@std@@@std@@PEAX@2@@?$_Tree@V?$_Tmap_traits@USymbol@rules@tree_sitter@@V?$basic_string@DU?$char_traits@D@std@@V?$allocator@D@2@@std@@U?$less@USymbol@rules@tree_sitter@@@5@V?$allocator@U?$pair@$$CBUSymbol@rules@tree_sitter@@V?$basic_string@DU?$char_traits@D@std@@V?$allocator@D@2@@std@@@std@@@5@$0A@@std@@@std@@IEAA?AV?$_Tree_iterator@V?$_Tree_val@U?$_Tree_simple_types@U?$pair@$$CBUSymbol@rules@tree_sitter@@V?$basic_string@DU?$char_traits@D@std@@V?$allocator@D@2@@std@@@std@@@std@@@std@@@1@_NPEAU?$_Tree_node@U?$pair@$$CBUSymbol@rules@tree_sitter@@V?$basic_string@DU?$char_traits@D@std@@V?$allocator@D@2@@std@@@std@@PEAX@1@AEAU?$pair@$$CBUSymbol@rules@tree_sitter@@V?$basic_string@DU?$char_traits@D@std@@V?$allocator@D@2@@std@@@1@1@Z 00000001800285e0 f i compiler:c_code.obj
 0001:00027890       ??$_Insert_nohint@AEAU?$pair@$$CBUSymbol@rules@tree_sitter@@V?$basic_string@DU?$char_traits@D@std@@V?$allocator@D@2@@std@@@std@@PEAU?$_Tree_node@U?$pair@$$CBUSymbol@rules@tree_sitter@@V?$basic_string@DU?$char_traits@D@std@@V?$allocator@D@2@@std@@@std@@PEAX@2@@?$_Tree@V?$_Tmap_traits@USymbol@rules@tree_sitter@@V?$basic_string@DU?$char_traits@D@std@@V?$allocator@D@2@@std@@U?$less@USymbol@rules@tree_sitter@@@5@V?$allocator@U?$pair@$$CBUSymbol@rules@tree_sitter@@V?$basic_string@DU?$char_traits@D@std@@V?$allocator@D@2@@std@@@std@@@5@$0A@@std@@@std@@IEAA?AU?$pair@V?$_Tree_iterator@V?$_Tree_val@U?$_Tree_simple_types@U?$pair@$$CBUSymbol@rules@tree_sitter@@V?$basic_string@DU?$char_traits@D@std@@V?$allocator@D@2@@std@@@std@@@std@@@std@@@std@@_N@1@_NAEAU?$pair@$$CBUSymbol@rules@tree_sitter@@V?$basic_string@DU?$char_traits@D@std@@V?$allocator@D@2@@std@@@1@PEAU?$_Tree_node@U?$pair@$$CBUSymbol@rules@tree_sitter@@V?$basic_string@DU?$char_traits@D@std@@V?$allocator@D@2@@std@@@std@@PEAX@1@@Z 0000000180028890 f i compiler:c_code.obj
 0001:000279f0       ??$_Buynode@AEBV?$basic_string@DU?$char_traits@D@std@@V?$allocator@D@2@@std@@@?$_List_buy@V?$basic_string@DU?$char_traits@D@std@@V?$allocator@D@2@@std@@V?$allocator@V?$basic_string@DU?$char_traits@D@std@@V?$allocator@D@2@@std@@@2@@std@@QEAAPEAU?$_List_node@V?$basic_string@DU?$char_traits@D@std@@V?$allocator@D@2@@std@@PEAX@1@PEAU21@0AEBV?$basic_string@DU?$char_traits@D@std@@V?$allocator@D@2@@1@@Z 00000001800289f0 f i compiler:c_code.obj
 0001:00027a90       ??$_Equal_unchecked1@V?$_Tree_unchecked_const_iterator@V?$_Tree_val@U?$_Tree_simple_types@H@std@@@std@@U_Iterator_base0@2@@std@@V12@U?$equal_to@X@2@@std@@YA_NV?$_Tree_unchecked_const_iterator@V?$_Tree_val@U?$_Tree_simple_types@H@std@@@std@@U_Iterator_base0@2@@0@00AEAU?$equal_to@X@0@U?$integral_constant@_N$0A@@0@@Z 0000000180028a90 f i compiler:c_code.obj
 0001:00027a90       ??$_Equal_unchecked1@V?$_Tree_unchecked_const_iterator@V?$_Tree_val@U?$_Tree_simple_types@I@std@@@std@@U_Iterator_base0@2@@std@@V12@U?$equal_to@X@2@@std@@YA_NV?$_Tree_unchecked_const_iterator@V?$_Tree_val@U?$_Tree_simple_types@I@std@@@std@@U_Iterator_base0@2@@0@00AEAU?$equal_to@X@0@U?$integral_constant@_N$0A@@0@@Z 0000000180028a90 f i compiler:character_set.obj
 0001:00027b80       ?_Decref@_Ref_count_base@std@@QEAAXXZ 0000000180028b80 f i compiler:rule.obj
 0001:00027c10       ??0Rule@rules@tree_sitter@@QEAA@AEBUString@12@@Z 0000000180028c10 f i compiler:rule.obj
 0001:00027c50       ??0Rule@rules@tree_sitter@@QEAA@AEBUPattern@12@@Z 0000000180028c50 f i compiler:rule.obj
 0001:00027c90       ??0Metadata@rules@tree_sitter@@QEAA@AEBU012@@Z 0000000180028c90 f i compiler:rule.obj
 0001:00027d00       ??0Repeat@rules@tree_sitter@@QEAA@AEBU012@@Z 0000000180028d00 f i compiler:rule.obj
 0001:00027d60       ??0Seq@rules@tree_sitter@@QEAA@AEBU012@@Z 0000000180028d60 f i compiler:rule.obj
 0001:00027e00       ??0MetadataParams@rules@tree_sitter@@QEAA@AEBU012@@Z 0000000180028e00 f i compiler:rule.obj
 0001:00027ea0       ??0Rule@rules@tree_sitter@@QEAA@AEBU012@@Z 0000000180028ea0 f   compiler:rule.obj
 0001:00027f70       ??_GCharacterSet@rules@tree_sitter@@QEAAPEAXI@Z 0000000180028f70 f i compiler:rule.obj
 0001:00027fd0       ??4Rule@rules@tree_sitter@@QEAAAEAU012@AEBU012@@Z 0000000180028fd0 f   compiler:rule.obj
 0001:00028110       ??4Rule@rules@tree_sitter@@QEAAAEAU012@$$QEAU012@@Z 0000000180029110 f   compiler:rule.obj
 0001:00028250       ??0CharacterSet@rules@tree_sitter@@QEAA@$$QEAU012@@Z 0000000180029250 f i compiler:rule.obj
 0001:00028290       ??0Metadata@rules@tree_sitter@@QEAA@$$QEAU012@@Z 0000000180029290 f i compiler:rule.obj
 0001:000282d0       ??0MetadataParams@rules@tree_sitter@@QEAA@$$QEAU012@@Z 00000001800292d0 f i compiler:rule.obj
 0001:00028360       ??8Rule@rules@tree_sitter@@QEBA_NAEBU012@@Z 0000000180029360 f   compiler:rule.obj
 0001:000287e0       ?choice@Rule@rules@tree_sitter@@SA?AU123@AEBV?$vector@URule@rules@tree_sitter@@V?$allocator@URule@rules@tree_sitter@@@std@@@std@@@Z 00000001800297e0 f   compiler:rule.obj
 0001:00028b40       ?repeat@Rule@rules@tree_sitter@@SA?AU123@AEBU123@@Z 0000000180029b40 f   compiler:rule.obj
 0001:00028c50       ?seq@Rule@rules@tree_sitter@@SA?AU123@AEBV?$vector@URule@rules@tree_sitter@@V?$allocator@URule@rules@tree_sitter@@@std@@@std@@@Z 0000000180029c50 f   compiler:rule.obj
 0001:00028e10       ??R?$hash@USymbol@rules@tree_sitter@@@std@@QEBA_KAEBUSymbol@rules@tree_sitter@@@Z 0000000180029e10 f   compiler:rule.obj
 0001:00028f10       ??R?$hash@UCharacterSet@rules@tree_sitter@@@std@@QEBA_KAEBUCharacterSet@rules@tree_sitter@@@Z 0000000180029f10 f   compiler:rule.obj
 0001:000291f0       ??R?$hash@UMetadata@rules@tree_sitter@@@std@@QEBA_KAEBUMetadata@rules@tree_sitter@@@Z 000000018002a1f0 f   compiler:rule.obj
 0001:000293d0       ??R?$hash@URule@rules@tree_sitter@@@std@@QEBA_KAEBURule@rules@tree_sitter@@@Z 000000018002a3d0 f   compiler:rule.obj
 0001:00029650       ?push_back@?$vector@URule@rules@tree_sitter@@V?$allocator@URule@rules@tree_sitter@@@std@@@std@@QEAAX$$QEAURule@rules@tree_sitter@@@Z 000000018002a650 f i compiler:rule.obj
 0001:000296f0       ??0?$set@IU?$less@I@std@@V?$allocator@I@2@@std@@QEAA@$$QEAV01@@Z 000000018002a6f0 f i compiler:rule.obj
 0001:00029770       ?_Reserve@?$vector@URule@rules@tree_sitter@@V?$allocator@URule@rules@tree_sitter@@@std@@@std@@IEAAX_K@Z 000000018002a770 f i compiler:rule.obj
 0001:00029840       ?_Reallocate@?$vector@URule@rules@tree_sitter@@V?$allocator@URule@rules@tree_sitter@@@std@@@std@@IEAAX_K@Z 000000018002a840 f i compiler:rule.obj
 0001:00029920       ??$_Umove@PEAURule@rules@tree_sitter@@@?$vector@URule@rules@tree_sitter@@V?$allocator@URule@rules@tree_sitter@@@std@@@std@@IEAAPEAURule@rules@tree_sitter@@PEAU234@00@Z 000000018002a920 f i compiler:rule.obj
 0001:00029990       ??$accept@U?$visitor@V<lambda_014cbf8413e2466a3b4b8ea991001cac>@@V<lambda_2f2bb7afadd8cac50a4a60caa24e4a82>@@@util@tree_sitter@@@Rule@rules@tree_sitter@@QEBAXU?$visitor@V<lambda_014cbf8413e2466a3b4b8ea991001cac>@@V<lambda_2f2bb7afadd8cac50a4a60caa24e4a82>@@@util@2@@Z 000000018002a990 f i compiler:rule.obj
 0001:0002b1a0       ??$accept@U?$visitor@V<lambda_e0dfbffb5a47a9aed884414b875b0622>@@V<lambda_04b0cfdb8514bf4b1a80bed4de939178>@@V<lambda_aa36111d976bd8efb84ac87393863f8d>@@@util@tree_sitter@@@Rule@rules@tree_sitter@@QEBAXU?$visitor@V<lambda_e0dfbffb5a47a9aed884414b875b0622>@@V<lambda_04b0cfdb8514bf4b1a80bed4de939178>@@V<lambda_aa36111d976bd8efb84ac87393863f8d>@@@util@2@@Z 000000018002c1a0 f i compiler:rule.obj
 0001:0002bac0       ??A_json_value@@QEBAAEBU0@PEBD@Z 000000018002cac0 f i compiler:parse_grammar.obj
 0001:0002bb30       ??0ParseRuleResult@tree_sitter@@QEAA@AEBV?$basic_string@DU?$char_traits@D@std@@V?$allocator@D@2@@std@@@Z 000000018002cb30 f i compiler:parse_grammar.obj
 0001:0002bb70       ??0ParseRuleResult@tree_sitter@@QEAA@PEBD@Z 000000018002cb70 f i compiler:parse_grammar.obj
 0001:0002bbc0       ??0ParseRuleResult@tree_sitter@@QEAA@URule@rules@1@@Z 000000018002cbc0 f i compiler:parse_grammar.obj
 0001:0002bc10       ?parse_rule@tree_sitter@@YA?AUParseRuleResult@1@PEAU_json_value@@@Z 000000018002cc10 f   compiler:parse_grammar.obj
 0001:0002ceb0       ?parse_grammar@tree_sitter@@YA?AUParseGrammarResult@1@AEBV?$basic_string@DU?$char_traits@D@std@@V?$allocator@D@2@@std@@@Z 000000018002deb0 f   compiler:parse_grammar.obj
 0001:0002dd00       ??0InputGrammar@tree_sitter@@QEAA@XZ 000000018002ed00 f i compiler:parse_grammar.obj
 0001:0002dd70       ??0InputGrammar@tree_sitter@@QEAA@AEBU01@@Z 000000018002ed70 f i compiler:parse_grammar.obj
 0001:0002de00       ??0?$vector@V?$unordered_set@UNamedSymbol@rules@tree_sitter@@U?$hash@UNamedSymbol@rules@tree_sitter@@@std@@U?$equal_to@UNamedSymbol@rules@tree_sitter@@@5@V?$allocator@UNamedSymbol@rules@tree_sitter@@@5@@std@@V?$allocator@V?$unordered_set@UNamedSymbol@rules@tree_sitter@@U?$hash@UNamedSymbol@rules@tree_sitter@@@std@@U?$equal_to@UNamedSymbol@rules@tree_sitter@@@5@V?$allocator@UNamedSymbol@rules@tree_sitter@@@5@@std@@@2@@std@@QEAA@AEBV01@@Z 000000018002ee00 f i compiler:parse_grammar.obj
 0001:0002dea0       ??0?$unordered_set@UNamedSymbol@rules@tree_sitter@@U?$hash@UNamedSymbol@rules@tree_sitter@@@std@@U?$equal_to@UNamedSymbol@rules@tree_sitter@@@5@V?$allocator@UNamedSymbol@rules@tree_sitter@@@5@@std@@QEAA@AEBV01@@Z 000000018002eea0 f i compiler:parse_grammar.obj
 0001:0002df10       ??0?$unordered_set@UNamedSymbol@rules@tree_sitter@@U?$hash@UNamedSymbol@rules@tree_sitter@@@std@@U?$equal_to@UNamedSymbol@rules@tree_sitter@@@5@V?$allocator@UNamedSymbol@rules@tree_sitter@@@5@@std@@QEAA@XZ 000000018002ef10 f i compiler:parse_grammar.obj
 0001:0002df80       ?push_back@?$vector@UVariable@tree_sitter@@V?$allocator@UVariable@tree_sitter@@@std@@@std@@QEAAX$$QEAUVariable@tree_sitter@@@Z 000000018002ef80 f i compiler:parse_grammar.obj
 0001:0002e030       ??0?$vector@UVariable@tree_sitter@@V?$allocator@UVariable@tree_sitter@@@std@@@std@@QEAA@AEBV01@@Z 000000018002f030 f i compiler:parse_grammar.obj
 0001:0002e0d0       ?push_back@?$vector@URule@rules@tree_sitter@@V?$allocator@URule@rules@tree_sitter@@@std@@@std@@QEAAXAEBURule@rules@tree_sitter@@@Z 000000018002f0d0 f i compiler:parse_grammar.obj
 0001:0002e170       ?compare@?$basic_string@DU?$char_traits@D@std@@V?$allocator@D@2@@std@@QEBAHPEBD@Z 000000018002f170 f i compiler:parse_grammar.obj
 0001:0002e200       ?_Reserve@?$vector@V?$unordered_set@UNamedSymbol@rules@tree_sitter@@U?$hash@UNamedSymbol@rules@tree_sitter@@@std@@U?$equal_to@UNamedSymbol@rules@tree_sitter@@@5@V?$allocator@UNamedSymbol@rules@tree_sitter@@@5@@std@@V?$allocator@V?$unordered_set@UNamedSymbol@rules@tree_sitter@@U?$hash@UNamedSymbol@rules@tree_sitter@@@std@@U?$equal_to@UNamedSymbol@rules@tree_sitter@@@5@V?$allocator@UNamedSymbol@rules@tree_sitter@@@5@@std@@@2@@std@@IEAAX_K@Z 000000018002f200 f i compiler:parse_grammar.obj
 0001:0002e290       ?_Reserve@?$vector@UVariable@tree_sitter@@V?$allocator@UVariable@tree_sitter@@@std@@@std@@IEAAX_K@Z 000000018002f290 f i compiler:parse_grammar.obj
 0001:0002e320       ?_Buy@?$vector@UVariable@tree_sitter@@V?$allocator@UVariable@tree_sitter@@@std@@@std@@IEAA_N_K@Z 000000018002f320 f i compiler:parse_grammar.obj
 0001:0002e390       ?_Reallocate@?$vector@V?$unordered_set@UNamedSymbol@rules@tree_sitter@@U?$hash@UNamedSymbol@rules@tree_sitter@@@std@@U?$equal_to@UNamedSymbol@rules@tree_sitter@@@5@V?$allocator@UNamedSymbol@rules@tree_sitter@@@5@@std@@V?$allocator@V?$unordered_set@UNamedSymbol@rules@tree_sitter@@U?$hash@UNamedSymbol@rules@tree_sitter@@@std@@U?$equal_to@UNamedSymbol@rules@tree_sitter@@@5@V?$allocator@UNamedSymbol@rules@tree_sitter@@@5@@std@@@2@@std@@IEAAX_K@Z 000000018002f390 f i compiler:parse_grammar.obj
 0001:0002e440       ?allocate@?$_Wrap_alloc@V?$allocator@UVariable@tree_sitter@@@std@@@std@@QEAAPEAUVariable@tree_sitter@@_K@Z 000000018002f440 f i compiler:parse_grammar.obj
 0001:0002e4b0       ?_Reallocate@?$vector@UVariable@tree_sitter@@V?$allocator@UVariable@tree_sitter@@@std@@@std@@IEAAX_K@Z 000000018002f4b0 f i compiler:parse_grammar.obj
 0001:0002e540       ??$construct@UVariable@tree_sitter@@U12@@?$_Wrap_alloc@V?$allocator@UVariable@tree_sitter@@@std@@@std@@QEAAXPEAUVariable@tree_sitter@@$$QEAU23@@Z 000000018002f540 f i compiler:parse_grammar.obj
 0001:0002e5a0       ?_Copy@?$_Hash@V?$_Uset_traits@UNamedSymbol@rules@tree_sitter@@V?$_Uhash_compare@UNamedSymbol@rules@tree_sitter@@U?$hash@UNamedSymbol@rules@tree_sitter@@@std@@U?$equal_to@UNamedSymbol@rules@tree_sitter@@@5@@std@@V?$allocator@UNamedSymbol@rules@tree_sitter@@@5@$0A@@std@@@std@@IEAAXAEBV12@@Z 000000018002f5a0 f i compiler:parse_grammar.obj
 0001:0002e630       ??$_Insert@UNamedSymbol@rules@tree_sitter@@U_Nil@std@@@?$_Hash@V?$_Uset_traits@UNamedSymbol@rules@tree_sitter@@V?$_Uhash_compare@UNamedSymbol@rules@tree_sitter@@U?$hash@UNamedSymbol@rules@tree_sitter@@@std@@U?$equal_to@UNamedSymbol@rules@tree_sitter@@@5@@std@@V?$allocator@UNamedSymbol@rules@tree_sitter@@@5@$0A@@std@@@std@@IEAA?AU?$pair@V?$_List_const_iterator@V?$_List_val@U?$_List_simple_types@UNamedSymbol@rules@tree_sitter@@@std@@@std@@@std@@_N@1@$$QEAUNamedSymbol@rules@tree_sitter@@U_Nil@1@@Z 000000018002f630 f i compiler:parse_grammar.obj
 0001:0002e870       ??$_Construct@PEBURule@rules@tree_sitter@@@?$vector@URule@rules@tree_sitter@@V?$allocator@URule@rules@tree_sitter@@@std@@@std@@QEAAXPEBURule@rules@tree_sitter@@0Uforward_iterator_tag@1@@Z 000000018002f870 f i compiler:parse_grammar.obj
 0001:0002e920       ??$insert@V?$_List_const_iterator@V?$_List_val@U?$_List_simple_types@UNamedSymbol@rules@tree_sitter@@@std@@@std@@@std@@@?$_Hash@V?$_Uset_traits@UNamedSymbol@rules@tree_sitter@@V?$_Uhash_compare@UNamedSymbol@rules@tree_sitter@@U?$hash@UNamedSymbol@rules@tree_sitter@@@std@@U?$equal_to@UNamedSymbol@rules@tree_sitter@@@5@@std@@V?$allocator@UNamedSymbol@rules@tree_sitter@@@5@$0A@@std@@@std@@QEAAXV?$_List_const_iterator@V?$_List_val@U?$_List_simple_types@UNamedSymbol@rules@tree_sitter@@@std@@@std@@@1@0@Z 000000018002f920 f i compiler:parse_grammar.obj
 0001:0002ea60       ?_Check_size@?$_Hash@V?$_Uset_traits@UNamedSymbol@rules@tree_sitter@@V?$_Uhash_compare@UNamedSymbol@rules@tree_sitter@@U?$hash@UNamedSymbol@rules@tree_sitter@@@std@@U?$equal_to@UNamedSymbol@rules@tree_sitter@@@5@@std@@V?$allocator@UNamedSymbol@rules@tree_sitter@@@5@$0A@@std@@@std@@IEAAXXZ 000000018002fa60 f i compiler:parse_grammar.obj
 0001:0002eb20       ??$_Uninitialized_copy_al_unchecked@PEBUVariable@tree_sitter@@PEAU12@V?$allocator@UVariable@tree_sitter@@@std@@@std@@YAPEAUVariable@tree_sitter@@PEBU12@0PEAU12@AEAU?$_Wrap_alloc@V?$allocator@UVariable@tree_sitter@@@std@@@0@@Z 000000018002fb20 f i compiler:parse_grammar.obj
 0001:0002eb20       ??$_Uninitialized_copy_al_unchecked@PEAUVariable@tree_sitter@@PEAU12@V?$allocator@UVariable@tree_sitter@@@std@@@std@@YAPEAUVariable@tree_sitter@@PEAU12@00AEAU?$_Wrap_alloc@V?$allocator@UVariable@tree_sitter@@@std@@@0@@Z 000000018002fb20 f i compiler:expand_repeats.obj
 0001:0002ebe0       ??$_Uninitialized_move_al_unchecked@PEAUVariable@tree_sitter@@PEAU12@V?$allocator@UVariable@tree_sitter@@@std@@@std@@YAPEAUVariable@tree_sitter@@PEAU12@00AEAU?$_Wrap_alloc@V?$allocator@UVariable@tree_sitter@@@std@@@0@@Z 000000018002fbe0 f i compiler:parse_grammar.obj
 0001:0002ec80       ??$_Insert@AEAUNamedSymbol@rules@tree_sitter@@V?$_List_unchecked_const_iterator@V?$_List_val@U?$_List_simple_types@UNamedSymbol@rules@tree_sitter@@@std@@@std@@U_Iterator_base0@2@@std@@@?$_Hash@V?$_Uset_traits@UNamedSymbol@rules@tree_sitter@@V?$_Uhash_compare@UNamedSymbol@rules@tree_sitter@@U?$hash@UNamedSymbol@rules@tree_sitter@@@std@@U?$equal_to@UNamedSymbol@rules@tree_sitter@@@5@@std@@V?$allocator@UNamedSymbol@rules@tree_sitter@@@5@$0A@@std@@@std@@IEAA?AU?$pair@V?$_List_const_iterator@V?$_List_val@U?$_List_simple_types@UNamedSymbol@rules@tree_sitter@@@std@@@std@@@std@@_N@1@AEAUNamedSymbol@rules@tree_sitter@@V?$_List_unchecked_const_iterator@V?$_List_val@U?$_List_simple_types@UNamedSymbol@rules@tree_sitter@@@std@@@std@@U_Iterator_base0@2@@1@@Z 000000018002fc80 f i compiler:parse_grammar.obj
 0001:0002ec80       ??$_Insert@AEBUNamedSymbol@rules@tree_sitter@@V?$_List_unchecked_const_iterator@V?$_List_val@U?$_List_simple_types@UNamedSymbol@rules@tree_sitter@@@std@@@std@@U_Iterator_base0@2@@std@@@?$_Hash@V?$_Uset_traits@UNamedSymbol@rules@tree_sitter@@V?$_Uhash_compare@UNamedSymbol@rules@tree_sitter@@U?$hash@UNamedSymbol@rules@tree_sitter@@@std@@U?$equal_to@UNamedSymbol@rules@tree_sitter@@@5@@std@@V?$allocator@UNamedSymbol@rules@tree_sitter@@@5@$0A@@std@@@std@@IEAA?AU?$pair@V?$_List_const_iterator@V?$_List_val@U?$_List_simple_types@UNamedSymbol@rules@tree_sitter@@@std@@@std@@@std@@_N@1@AEBUNamedSymbol@rules@tree_sitter@@V?$_List_unchecked_const_iterator@V?$_List_val@U?$_List_simple_types@UNamedSymbol@rules@tree_sitter@@@std@@@std@@U_Iterator_base0@2@@1@@Z 000000018002fc80 f i compiler:parse_grammar.obj
 0001:0002ee70       ??$_Uninitialized_copy_al_unchecked1@PEBV?$unordered_set@UNamedSymbol@rules@tree_sitter@@U?$hash@UNamedSymbol@rules@tree_sitter@@@std@@U?$equal_to@UNamedSymbol@rules@tree_sitter@@@5@V?$allocator@UNamedSymbol@rules@tree_sitter@@@5@@std@@PEAV12@V?$allocator@V?$unordered_set@UNamedSymbol@rules@tree_sitter@@U?$hash@UNamedSymbol@rules@tree_sitter@@@std@@U?$equal_to@UNamedSymbol@rules@tree_sitter@@@5@V?$allocator@UNamedSymbol@rules@tree_sitter@@@5@@std@@@2@@std@@YAPEAV?$unordered_set@UNamedSymbol@rules@tree_sitter@@U?$hash@UNamedSymbol@rules@tree_sitter@@@std@@U?$equal_to@UNamedSymbol@rules@tree_sitter@@@5@V?$allocator@UNamedSymbol@rules@tree_sitter@@@5@@0@PEBV10@0PEAV10@AEAU?$_Wrap_alloc@V?$allocator@V?$unordered_set@UNamedSymbol@rules@tree_sitter@@U?$hash@UNamedSymbol@rules@tree_sitter@@@std@@U?$equal_to@UNamedSymbol@rules@tree_sitter@@@5@V?$allocator@UNamedSymbol@rules@tree_sitter@@@5@@std@@@std@@@0@U_General_ptr_iterator_tag@0@U_Any_tag@0@@Z 000000018002fe70 f i compiler:parse_grammar.obj
 0001:0002ef20       ??0?$_Hash@V?$_Uset_traits@UNamedSymbol@rules@tree_sitter@@V?$_Uhash_compare@UNamedSymbol@rules@tree_sitter@@U?$hash@UNamedSymbol@rules@tree_sitter@@@std@@U?$equal_to@UNamedSymbol@rules@tree_sitter@@@5@@std@@V?$allocator@UNamedSymbol@rules@tree_sitter@@@5@$0A@@std@@@std@@QEAA@$$QEAV01@@Z 000000018002ff20 f i compiler:parse_grammar.obj
 0001:0002f000       ?_print_indent@tree_sitter@@YAXXZ 0000000180030000 f   compiler:log.obj
 0001:0002f040       ?prepare_grammar@0tree_sitter@@YA?AUPrepareGrammarResult@01@AEBUInputGrammar@1@@Z 0000000180030040 f   compiler:prepare_grammar.obj
 0001:0002f530       ??0PrepareGrammarResult@prepare_grammar@tree_sitter@@QEAA@$$QEAU012@@Z 0000000180030530 f i compiler:prepare_grammar.obj
 0001:0002f630       ??1InitialSyntaxGrammar@prepare_grammar@tree_sitter@@QEAA@XZ 0000000180030630 f i compiler:prepare_grammar.obj
 0001:0002f730       ??0InitialSyntaxGrammar@prepare_grammar@tree_sitter@@QEAA@XZ 0000000180030730 f i compiler:extract_tokens.obj
 0001:0002f730       ??0SyntaxGrammar@tree_sitter@@QEAA@XZ 0000000180030730 f i compiler:prepare_grammar.obj
 0001:0002f820       ??1InternedGrammar@prepare_grammar@tree_sitter@@QEAA@XZ 0000000180030820 f i compiler:prepare_grammar.obj
 0001:0002f8f0       ??0?$unordered_map@USymbol@rules@tree_sitter@@UAlias@23@U?$hash@USymbol@rules@tree_sitter@@@std@@U?$equal_to@USymbol@rules@tree_sitter@@@6@V?$allocator@U?$pair@$$CBUSymbol@rules@tree_sitter@@UAlias@23@@std@@@6@@std@@QEAA@XZ 00000001800308f0 f i compiler:prepare_grammar.obj
 0001:0002f960       ?states_with@CoincidentTokenIndex@build_tables@tree_sitter@@QEBAAEBV?$unordered_set@_KU?$hash@_K@std@@U?$equal_to@_K@2@V?$allocator@_K@2@@std@@USymbol@rules@3@0@Z 0000000180030960 f   compiler:lex_table_builder.obj
 0001:0002fae0       ??0LexTableBuilderImpl@build_tables@tree_sitter@@QEAA@AEBUSyntaxGrammar@2@AEBULexicalGrammar@2@AEBV?$unordered_map@USymbol@rules@tree_sitter@@VLookaheadSet@build_tables@3@U?$hash@USymbol@rules@tree_sitter@@@std@@U?$equal_to@USymbol@rules@tree_sitter@@@7@V?$allocator@U?$pair@$$CBUSymbol@rules@tree_sitter@@VLookaheadSet@build_tables@3@@std@@@7@@std@@AEBUCoincidentTokenIndex@12@PEAUParseTable@2@@Z 0000000180030ae0 f i compiler:lex_table_builder.obj
 0001:00030570       ?identify_keywords@LexTableBuilderImpl@build_tables@tree_sitter@@QEAAXXZ 0000000180031570 f i compiler:lex_table_builder.obj
 0001:00031470       ?build@LexTableBuilderImpl@build_tables@tree_sitter@@QEAA?AUBuildResult@LexTableBuilder@23@XZ 0000000180032470 f i compiler:lex_table_builder.obj
 0001:00031e80       ?does_token_shadow_other@LexTableBuilderImpl@build_tables@tree_sitter@@QEBA_NUSymbol@rules@3@0@Z 0000000180032e80 f i compiler:lex_table_builder.obj
 0001:00031fe0       ?does_token_match_same_string_as_other@LexTableBuilderImpl@build_tables@tree_sitter@@QEBA_NUSymbol@rules@3@0@Z 0000000180032fe0 f i compiler:lex_table_builder.obj
 0001:000320c0       ?record_conflict@LexTableBuilderImpl@build_tables@tree_sitter@@AEAA_NUSymbol@rules@3@0W4ConflictStatus@123@@Z 00000001800330c0 f i compiler:lex_table_builder.obj
 0001:00032120       ?add_lex_state@LexTableBuilderImpl@build_tables@tree_sitter@@AEAA_JAEAULexTable@3@AEBVLexItemSet@23@@Z 0000000180033120 f i compiler:lex_table_builder.obj
 0001:00032340       ?add_advance_actions@LexTableBuilderImpl@build_tables@tree_sitter@@AEAAXAEAULexTable@3@AEBVLexItemSet@23@_J@Z 0000000180033340 f i compiler:lex_table_builder.obj
 0001:00032a80       ?add_accept_token_actions@LexTableBuilderImpl@build_tables@tree_sitter@@AEAAXAEAULexTable@3@AEBVLexItemSet@23@_J@Z 0000000180033a80 f i compiler:lex_table_builder.obj
 0001:00032fe0       ?mark_fragile_tokens@LexTableBuilderImpl@build_tables@tree_sitter@@AEAAXXZ 0000000180033fe0 f i compiler:lex_table_builder.obj
 0001:00033340       ?remove_duplicate_lex_states@LexTableBuilderImpl@build_tables@tree_sitter@@AEAAXAEAULexTable@3@@Z 0000000180034340 f i compiler:lex_table_builder.obj
 0001:00034340       ?add_starting_characters@LexTableBuilderImpl@build_tables@tree_sitter@@CAXPEAUCharacterSet@rules@3@AEBURule@53@@Z 0000000180035340 f i compiler:lex_table_builder.obj
 0001:000343a0       ?rules_for_symbol@LexTableBuilderImpl@build_tables@tree_sitter@@AEAA?AV?$vector@URule@rules@tree_sitter@@V?$allocator@URule@rules@tree_sitter@@@std@@@std@@AEBUSymbol@rules@3@@Z 00000001800353a0 f i compiler:lex_table_builder.obj
 0001:00034560       ?token_name@LexTableBuilderImpl@build_tables@tree_sitter@@AEAA?AV?$basic_string@DU?$char_traits@D@std@@V?$allocator@D@2@@std@@AEBUSymbol@rules@3@@Z 0000000180035560 f i compiler:lex_table_builder.obj
 0001:000346c0       ??4CharacterSet@rules@tree_sitter@@QEAAAEAU012@$$QEAU012@@Z 00000001800356c0 f i compiler:lex_table_builder.obj
 0001:00034760       ??0?$vector@UCharacterSet@rules@tree_sitter@@V?$allocator@UCharacterSet@rules@tree_sitter@@@std@@@std@@QEAA@_K@Z 0000000180035760 f i compiler:lex_table_builder.obj
 0001:000347e0       ??0?$unordered_map@VLexItemSet@build_tables@tree_sitter@@_JU?$hash@VLexItemSet@build_tables@tree_sitter@@@std@@U?$equal_to@VLexItemSet@build_tables@tree_sitter@@@5@V?$allocator@U?$pair@$$CBVLexItemSet@build_tables@tree_sitter@@_J@std@@@5@@std@@QEAA@XZ 00000001800357e0 f i compiler:lex_table_builder.obj
 0001:00034850       ?clear@?$vector@ULexState@tree_sitter@@V?$allocator@ULexState@tree_sitter@@@std@@@std@@QEAAXXZ 0000000180035850 f i compiler:lex_table_builder.obj
 0001:000348d0       ??4?$set@IU?$less@I@std@@V?$allocator@I@2@@std@@QEAAAEAV01@$$QEAV01@@Z 00000001800358d0 f i compiler:lex_table_builder.obj
 0001:00034920       ?_Reserve@?$vector@U?$pair@VLookaheadSet@build_tables@tree_sitter@@V?$vector@PEAUParseState@tree_sitter@@V?$allocator@PEAUParseState@tree_sitter@@@std@@@std@@@std@@V?$allocator@U?$pair@VLookaheadSet@build_tables@tree_sitter@@V?$vector@PEAUParseState@tree_sitter@@V?$allocator@PEAUParseState@tree_sitter@@@std@@@std@@@std@@@2@@std@@IEAAX_K@Z 0000000180035920 f i compiler:lex_table_builder.obj
 0001:000349f0       ?_Buy@?$vector@UCharacterSet@rules@tree_sitter@@V?$allocator@UCharacterSet@rules@tree_sitter@@@std@@@std@@IEAA_N_K@Z 00000001800359f0 f i compiler:lex_table_builder.obj
 0001:00034a90       ?clear@?$list@U?$pair@$$CBVLexItemSet@build_tables@tree_sitter@@_J@std@@V?$allocator@U?$pair@$$CBVLexItemSet@build_tables@tree_sitter@@_J@std@@@2@@std@@QEAAXXZ 0000000180035a90 f i compiler:lex_table_builder.obj
 0001:00034bf0       ?lower_bound@?$_Hash@V?$_Umap_traits@VLexItemSet@build_tables@tree_sitter@@_JV?$_Uhash_compare@VLexItemSet@build_tables@tree_sitter@@U?$hash@VLexItemSet@build_tables@tree_sitter@@@std@@U?$equal_to@VLexItemSet@build_tables@tree_sitter@@@5@@std@@V?$allocator@U?$pair@$$CBVLexItemSet@build_tables@tree_sitter@@_J@std@@@5@$0A@@std@@@std@@QEAA?AV?$_List_iterator@V?$_List_val@U?$_List_simple_types@U?$pair@$$CBVLexItemSet@build_tables@tree_sitter@@_J@std@@@std@@@std@@@2@AEBVLexItemSet@build_tables@tree_sitter@@@Z 0000000180035bf0 f i compiler:lex_table_builder.obj
 0001:00034d20       ??1?$list@VLexItem@build_tables@tree_sitter@@V?$allocator@VLexItem@build_tables@tree_sitter@@@std@@@std@@QEAA@XZ 0000000180035d20 f i compiler:lex_table_builder.obj
 0001:00034d90       ??0?$_Hash@V?$_Uset_traits@VLexItem@build_tables@tree_sitter@@V?$_Uhash_compare@VLexItem@build_tables@tree_sitter@@U?$hash@VLexItem@build_tables@tree_sitter@@@std@@U?$equal_to@VLexItem@build_tables@tree_sitter@@@5@@std@@V?$allocator@VLexItem@build_tables@tree_sitter@@@5@$0A@@std@@@std@@QEAA@$$QEAV01@@Z 0000000180035d90 f i compiler:lex_table_builder.obj
 0001:00034e50       ?_Reserve@?$vector@ULexState@tree_sitter@@V?$allocator@ULexState@tree_sitter@@@std@@@std@@IEAAX_K@Z 0000000180035e50 f i compiler:lex_table_builder.obj
 0001:00034ee0       ?erase@?$_Tree@V?$_Tmap_traits@UCharacterSet@rules@tree_sitter@@UTransition@LexItemSet@build_tables@3@U?$less@UCharacterSet@rules@tree_sitter@@@std@@V?$allocator@U?$pair@$$CBUCharacterSet@rules@tree_sitter@@UTransition@LexItemSet@build_tables@3@@std@@@8@$0A@@std@@@std@@QEAA?AV?$_Tree_iterator@V?$_Tree_val@U?$_Tree_simple_types@U?$pair@$$CBUCharacterSet@rules@tree_sitter@@UTransition@LexItemSet@build_tables@3@@std@@@std@@@std@@@2@V?$_Tree_const_iterator@V?$_Tree_val@U?$_Tree_simple_types@U?$pair@$$CBUCharacterSet@rules@tree_sitter@@UTransition@LexItemSet@build_tables@3@@std@@@std@@@std@@@2@0@Z 0000000180035ee0 f i compiler:lex_table_builder.obj
 0001:00034fc0       ?deallocate@?$_Wrap_alloc@V?$allocator@U?$pair@URule@rules@tree_sitter@@USymbol@23@@std@@@std@@@std@@QEAAXPEAU?$pair@URule@rules@tree_sitter@@USymbol@23@@2@_K@Z 0000000180035fc0 f i compiler:expand_repeats.obj
 0001:00034fc0       ?deallocate@?$_Wrap_alloc@V?$allocator@U?$pair@VLookaheadSet@build_tables@tree_sitter@@V?$vector@PEAUParseState@tree_sitter@@V?$allocator@PEAUParseState@tree_sitter@@@std@@@std@@@std@@@std@@@std@@QEAAXPEAU?$pair@VLookaheadSet@build_tables@tree_sitter@@V?$vector@PEAUParseState@tree_sitter@@V?$allocator@PEAUParseState@tree_sitter@@@std@@@std@@@2@_K@Z 0000000180035fc0 f i compiler:lex_table_builder.obj
 0001:00035030       ?_Reallocate@?$vector@U?$pair@VLookaheadSet@build_tables@tree_sitter@@V?$vector@PEAUParseState@tree_sitter@@V?$allocator@PEAUParseState@tree_sitter@@@std@@@std@@@std@@V?$allocator@U?$pair@VLookaheadSet@build_tables@tree_sitter@@V?$vector@PEAUParseState@tree_sitter@@V?$allocator@PEAUParseState@tree_sitter@@@std@@@std@@@std@@@2@@std@@IEAAX_K@Z 0000000180036030 f i compiler:lex_table_builder.obj
 0001:00035160       ?_Buy@?$vector@W4ConflictStatus@LexTableBuilderImpl@build_tables@tree_sitter@@V?$allocator@W4ConflictStatus@LexTableBuilderImpl@build_tables@tree_sitter@@@std@@@std@@IEAA_N_K@Z 0000000180036160 f i compiler:lex_table_builder.obj
 0001:00035200       ?clear@?$_Hash@V?$_Uset_traits@VLexItem@build_tables@tree_sitter@@V?$_Uhash_compare@VLexItem@build_tables@tree_sitter@@U?$hash@VLexItem@build_tables@tree_sitter@@@std@@U?$equal_to@VLexItem@build_tables@tree_sitter@@@5@@std@@V?$allocator@VLexItem@build_tables@tree_sitter@@@5@$0A@@std@@@std@@QEAAXXZ 0000000180036200 f i compiler:lex_table_builder.obj
 0001:00035270       ?_Reallocate@?$vector@ULexState@tree_sitter@@V?$allocator@ULexState@tree_sitter@@@std@@@std@@IEAAX_K@Z 0000000180036270 f i compiler:lex_table_builder.obj
 0001:00035350       ??F?$_Tree_unchecked_const_iterator@V?$_Tree_val@U?$_Tree_simple_types@U?$pair@$$CB_J_J@std@@@std@@@std@@U_Iterator_base0@2@@std@@QEAAAEAV01@XZ 0000000180036350 f i compiler:lex_table_builder.obj
 0001:000353d0       ?clear@?$_Tree@V?$_Tmap_traits@UCharacterSet@rules@tree_sitter@@UTransition@LexItemSet@build_tables@3@U?$less@UCharacterSet@rules@tree_sitter@@@std@@V?$allocator@U?$pair@$$CBUCharacterSet@rules@tree_sitter@@UTransition@LexItemSet@build_tables@3@@std@@@8@$0A@@std@@@std@@QEAAXXZ 00000001800363d0 f i compiler:lex_table_builder.obj
 0001:00035450       ?erase@?$_Tree@V?$_Tmap_traits@UCharacterSet@rules@tree_sitter@@UTransition@LexItemSet@build_tables@3@U?$less@UCharacterSet@rules@tree_sitter@@@std@@V?$allocator@U?$pair@$$CBUCharacterSet@rules@tree_sitter@@UTransition@LexItemSet@build_tables@3@@std@@@8@$0A@@std@@@std@@QEAA?AV?$_Tree_iterator@V?$_Tree_val@U?$_Tree_simple_types@U?$pair@$$CBUCharacterSet@rules@tree_sitter@@UTransition@LexItemSet@build_tables@3@@std@@@std@@@std@@@2@V?$_Tree_const_iterator@V?$_Tree_val@U?$_Tree_simple_types@U?$pair@$$CBUCharacterSet@rules@tree_sitter@@UTransition@LexItemSet@build_tables@3@@std@@@std@@@std@@@2@@Z 0000000180036450 f i compiler:lex_table_builder.obj
 0001:00035800       ?_Erase@?$_Tree@V?$_Tmap_traits@UCharacterSet@rules@tree_sitter@@UTransition@LexItemSet@build_tables@3@U?$less@UCharacterSet@rules@tree_sitter@@@std@@V?$allocator@U?$pair@$$CBUCharacterSet@rules@tree_sitter@@UTransition@LexItemSet@build_tables@3@@std@@@8@$0A@@std@@@std@@IEAAXPEAU?$_Tree_node@U?$pair@$$CBUCharacterSet@rules@tree_sitter@@UTransition@LexItemSet@build_tables@3@@std@@PEAX@2@@Z 0000000180036800 f i compiler:lex_table_builder.obj
 0001:00035860       ??$for_each@V<lambda_61ce94baf870df4a2d6b877539861f12>@@@LookaheadSet@build_tables@tree_sitter@@QEBAXAEBV<lambda_61ce94baf870df4a2d6b877539861f12>@@@Z 0000000180036860 f i compiler:lex_table_builder.obj
 0001:00035b50       ??$for_each@V<lambda_c2a36143ad30a3234258bc3638becfed>@@@LookaheadSet@build_tables@tree_sitter@@QEBAXAEBV<lambda_c2a36143ad30a3234258bc3638becfed>@@@Z 0000000180036b50 f i compiler:lex_table_builder.obj
 0001:00035d50       ??$for_each@V<lambda_382f227c8ccc3a5c99de5d81d8376c00>@@@LookaheadSet@build_tables@tree_sitter@@QEBAXAEBV<lambda_382f227c8ccc3a5c99de5d81d8376c00>@@@Z 0000000180036d50 f i compiler:lex_table_builder.obj
 0001:00035f80       ??$for_each@V<lambda_c40f5e24931545bd79b471ed1ed4f084>@@@LookaheadSet@build_tables@tree_sitter@@QEBAXAEBV<lambda_c40f5e24931545bd79b471ed1ed4f084>@@@Z 0000000180036f80 f i compiler:lex_table_builder.obj
 0001:00036180       ??$for_each@V<lambda_c98081d2f7fc385e2e1e313da5c472bf>@@@LookaheadSet@build_tables@tree_sitter@@QEBAXAEBV<lambda_c98081d2f7fc385e2e1e313da5c472bf>@@@Z 0000000180037180 f i compiler:lex_table_builder.obj
 0001:00036380       ??$for_each@V<lambda_b1bdce1061a03dc15714f0fd385061d8>@@@LookaheadSet@build_tables@tree_sitter@@QEBAXAEBV<lambda_b1bdce1061a03dc15714f0fd385061d8>@@@Z 0000000180037380 f i compiler:lex_table_builder.obj
 0001:00036580       ??$for_each_difference@V<lambda_c749866bff1d48314b33f10c06676c66>@@@LookaheadSet@build_tables@tree_sitter@@QEBAXAEBV012@AEBV<lambda_c749866bff1d48314b33f10c06676c66>@@@Z 0000000180037580 f i compiler:lex_table_builder.obj
 0001:00036b20       ??$for_each@V<lambda_8fdcd645aa540658373b383064754c13>@@@LookaheadSet@build_tables@tree_sitter@@QEBAXAEBV<lambda_8fdcd645aa540658373b383064754c13>@@@Z 0000000180037b20 f i compiler:lex_table_builder.obj
 0001:00036d20       ??$accept@U?$visitor@V<lambda_1fd4b9e1556768a9def984cd98f00a33>@@V<lambda_3a2eb85755216d9ca08d4adbf14f380b>@@@util@tree_sitter@@@Rule@rules@tree_sitter@@QEBA_NU?$visitor@V<lambda_1fd4b9e1556768a9def984cd98f00a33>@@V<lambda_3a2eb85755216d9ca08d4adbf14f380b>@@@util@2@@Z 0000000180037d20 f i compiler:lex_table_builder.obj
 0001:00036e90       ??$accept@U?$visitor@V<lambda_eba8ff8a1bc8d5421dee0ee8c5f9a30d>@@V<lambda_e5c89ebdd2898f59d2750891e3974593>@@V<lambda_b3cf9a904764f932a8cb3564ed7c545e>@@V<lambda_6525e3063164b597c45a0f7fc82c9376>@@V<lambda_56fab9bb08c6108eaa6bfd5eb31c98f1>@@V<lambda_583545d39b928a1eda34a6bc2703dd09>@@@util@tree_sitter@@@Rule@rules@tree_sitter@@QEBAXU?$visitor@V<lambda_eba8ff8a1bc8d5421dee0ee8c5f9a30d>@@V<lambda_e5c89ebdd2898f59d2750891e3974593>@@V<lambda_b3cf9a904764f932a8cb3564ed7c545e>@@V<lambda_6525e3063164b597c45a0f7fc82c9376>@@V<lambda_56fab9bb08c6108eaa6bfd5eb31c98f1>@@V<lambda_583545d39b928a1eda34a6bc2703dd09>@@@util@2@@Z 0000000180037e90 f i compiler:lex_table_builder.obj
 0001:00036fc0       ??$accept@U?$visitor@V<lambda_e3c9da7cd16189013db52cf04c546018>@@V<lambda_c15db53bba62d8d87b0433566272191f>@@@util@tree_sitter@@@Rule@rules@tree_sitter@@QEBA?AV?$vector@URule@rules@tree_sitter@@V?$allocator@URule@rules@tree_sitter@@@std@@@std@@U?$visitor@V<lambda_e3c9da7cd16189013db52cf04c546018>@@V<lambda_c15db53bba62d8d87b0433566272191f>@@@util@2@@Z 0000000180037fc0 f i compiler:lex_table_builder.obj
 0001:000375b0       ??$_Insert_nohint@U?$pair@$$CB_J_J@std@@U_Nil@2@@?$_Tree@V?$_Tmap_traits@_J_JU?$less@_J@std@@V?$allocator@U?$pair@$$CB_J_J@std@@@2@$0A@@std@@@std@@IEAA?AU?$pair@V?$_Tree_iterator@V?$_Tree_val@U?$_Tree_simple_types@U?$pair@$$CB_J_J@std@@@std@@@std@@@std@@_N@1@_N$$QEAU?$pair@$$CB_J_J@1@U_Nil@1@@Z 00000001800385b0 f i compiler:lex_table_builder.obj
 0001:00037700       ??$_Insert@VLexItem@build_tables@tree_sitter@@U_Nil@std@@@?$_Hash@V?$_Uset_traits@VLexItem@build_tables@tree_sitter@@V?$_Uhash_compare@VLexItem@build_tables@tree_sitter@@U?$hash@VLexItem@build_tables@tree_sitter@@@std@@U?$equal_to@VLexItem@build_tables@tree_sitter@@@5@@std@@V?$allocator@VLexItem@build_tables@tree_sitter@@@5@$0A@@std@@@std@@IEAA?AU?$pair@V?$_List_const_iterator@V?$_List_val@U?$_List_simple_types@VLexItem@build_tables@tree_sitter@@@std@@@std@@@std@@_N@1@$$QEAVLexItem@build_tables@tree_sitter@@U_Nil@1@@Z 0000000180038700 f i compiler:lex_table_builder.obj
 0001:000378f0       ??$_Try_emplace@AEBVLexItemSet@build_tables@tree_sitter@@$$V@?$unordered_map@VLexItemSet@build_tables@tree_sitter@@_JU?$hash@VLexItemSet@build_tables@tree_sitter@@@std@@U?$equal_to@VLexItemSet@build_tables@tree_sitter@@@5@V?$allocator@U?$pair@$$CBVLexItemSet@build_tables@tree_sitter@@_J@std@@@5@@std@@QEAA?AU?$pair@V?$_List_iterator@V?$_List_val@U?$_List_simple_types@U?$pair@$$CBVLexItemSet@build_tables@tree_sitter@@_J@std@@@std@@@std@@@std@@_N@1@AEBVLexItemSet@build_tables@tree_sitter@@@Z 00000001800388f0 f i compiler:lex_table_builder.obj
 0001:00037a00       ??$_Move_unchecked1@PEAULexState@tree_sitter@@PEAU12@@std@@YAPEAULexState@tree_sitter@@PEAU12@00U_General_ptr_iterator_tag@0@@Z 0000000180038a00 f i compiler:lex_table_builder.obj
 0001:00037aa0       ??$_Try_emplace@AEBUCharacterSet@rules@tree_sitter@@$$V@?$map@UCharacterSet@rules@tree_sitter@@UAdvanceAction@3@U?$less@UCharacterSet@rules@tree_sitter@@@std@@V?$allocator@U?$pair@$$CBUCharacterSet@rules@tree_sitter@@UAdvanceAction@3@@std@@@6@@std@@QEAA?AU?$pair@V?$_Tree_iterator@V?$_Tree_val@U?$_Tree_simple_types@U?$pair@$$CBUCharacterSet@rules@tree_sitter@@UAdvanceAction@3@@std@@@std@@@std@@@std@@_N@1@AEBUCharacterSet@rules@tree_sitter@@@Z 0000000180038aa0 f i compiler:lex_table_builder.obj
 0001:00037ba0       ??$_Destroy_range1@V?$allocator@U?$pair@VLookaheadSet@build_tables@tree_sitter@@V?$vector@PEAUParseState@tree_sitter@@V?$allocator@PEAUParseState@tree_sitter@@@std@@@std@@@std@@@std@@PEAU?$pair@VLookaheadSet@build_tables@tree_sitter@@V?$vector@PEAUParseState@tree_sitter@@V?$allocator@PEAUParseState@tree_sitter@@@std@@@std@@@2@@std@@YAXPEAU?$pair@VLookaheadSet@build_tables@tree_sitter@@V?$vector@PEAUParseState@tree_sitter@@V?$allocator@PEAUParseState@tree_sitter@@@std@@@std@@@0@0AEAU?$_Wrap_alloc@V?$allocator@U?$pair@VLookaheadSet@build_tables@tree_sitter@@V?$vector@PEAUParseState@tree_sitter@@V?$allocator@PEAUParseState@tree_sitter@@@std@@@std@@@std@@@std@@@0@U?$integral_constant@_N$0A@@0@@Z 0000000180038ba0 f i compiler:lex_table_builder.obj
 0001:00037db0       ?_Check_size@?$_Hash@V?$_Uset_traits@VLexItem@build_tables@tree_sitter@@V?$_Uhash_compare@VLexItem@build_tables@tree_sitter@@U?$hash@VLexItem@build_tables@tree_sitter@@@std@@U?$equal_to@VLexItem@build_tables@tree_sitter@@@5@@std@@V?$allocator@VLexItem@build_tables@tree_sitter@@@5@$0A@@std@@@std@@IEAAXXZ 0000000180038db0 f i compiler:lex_table_builder.obj
 0001:00037e70       ??$construct@U?$pair@VLookaheadSet@build_tables@tree_sitter@@V?$vector@PEAUParseState@tree_sitter@@V?$allocator@PEAUParseState@tree_sitter@@@std@@@std@@@std@@U12@@?$allocator@U?$pair@VLookaheadSet@build_tables@tree_sitter@@V?$vector@PEAUParseState@tree_sitter@@V?$allocator@PEAUParseState@tree_sitter@@@std@@@std@@@std@@@std@@QEAAXPEAU?$pair@VLookaheadSet@build_tables@tree_sitter@@V?$vector@PEAUParseState@tree_sitter@@V?$allocator@PEAUParseState@tree_sitter@@@std@@@std@@@1@$$QEAU21@@Z 0000000180038e70 f i compiler:lex_table_builder.obj
 0001:00037f30       ??$_Lbound@UCharacterSet@rules@tree_sitter@@@?$_Tree@V?$_Tmap_traits@UCharacterSet@rules@tree_sitter@@UAdvanceAction@3@U?$less@UCharacterSet@rules@tree_sitter@@@std@@V?$allocator@U?$pair@$$CBUCharacterSet@rules@tree_sitter@@UAdvanceAction@3@@std@@@6@$0A@@std@@@std@@IEBAPEAU?$_Tree_node@U?$pair@$$CBUCharacterSet@rules@tree_sitter@@UAdvanceAction@3@@std@@PEAX@1@AEBUCharacterSet@rules@tree_sitter@@@Z 0000000180038f30 f i compiler:lex_table_builder.obj
 0001:00037fd0       ??$_Insert@AEBVLexItem@build_tables@tree_sitter@@V?$_List_unchecked_const_iterator@V?$_List_val@U?$_List_simple_types@VLexItem@build_tables@tree_sitter@@@std@@@std@@U_Iterator_base0@2@@std@@@?$_Hash@V?$_Uset_traits@VLexItem@build_tables@tree_sitter@@V?$_Uhash_compare@VLexItem@build_tables@tree_sitter@@U?$hash@VLexItem@build_tables@tree_sitter@@@std@@U?$equal_to@VLexItem@build_tables@tree_sitter@@@5@@std@@V?$allocator@VLexItem@build_tables@tree_sitter@@@5@$0A@@std@@@std@@IEAA?AU?$pair@V?$_List_const_iterator@V?$_List_val@U?$_List_simple_types@VLexItem@build_tables@tree_sitter@@@std@@@std@@@std@@_N@1@AEBVLexItem@build_tables@tree_sitter@@V?$_List_unchecked_const_iterator@V?$_List_val@U?$_List_simple_types@VLexItem@build_tables@tree_sitter@@@std@@@std@@U_Iterator_base0@2@@1@@Z 0000000180038fd0 f i compiler:lex_table_builder.obj
 0001:00037fd0       ??$_Insert@AEAVLexItem@build_tables@tree_sitter@@V?$_List_unchecked_const_iterator@V?$_List_val@U?$_List_simple_types@VLexItem@build_tables@tree_sitter@@@std@@@std@@U_Iterator_base0@2@@std@@@?$_Hash@V?$_Uset_traits@VLexItem@build_tables@tree_sitter@@V?$_Uhash_compare@VLexItem@build_tables@tree_sitter@@U?$hash@VLexItem@build_tables@tree_sitter@@@std@@U?$equal_to@VLexItem@build_tables@tree_sitter@@@5@@std@@V?$allocator@VLexItem@build_tables@tree_sitter@@@5@$0A@@std@@@std@@IEAA?AU?$pair@V?$_List_const_iterator@V?$_List_val@U?$_List_simple_types@VLexItem@build_tables@tree_sitter@@@std@@@std@@@std@@_N@1@AEAVLexItem@build_tables@tree_sitter@@V?$_List_unchecked_const_iterator@V?$_List_val@U?$_List_simple_types@VLexItem@build_tables@tree_sitter@@@std@@@std@@U_Iterator_base0@2@@1@@Z 0000000180038fd0 f i compiler:lex_table_builder.obj
 0001:00038140       ??0LexState@tree_sitter@@QEAA@$$QEAU01@@Z 0000000180039140 f i compiler:lex_table_builder.obj
 0001:000381c0       ??1?$pair@$$CBUCharacterSet@rules@tree_sitter@@UTransition@LexItemSet@build_tables@3@@std@@QEAA@XZ 00000001800391c0 f i compiler:lex_table_builder.obj
 0001:000381c0       ??1?$pair@UCharacterSet@rules@tree_sitter@@UTransition@LexItemSet@build_tables@3@@std@@QEAA@XZ 00000001800391c0 f i compiler:lex_item_transitions.obj
 0001:00038250       ??1Transition@LexItemSet@build_tables@tree_sitter@@QEAA@XZ 0000000180039250 f i compiler:lex_table_builder.obj
 0001:00038290       ??$_Insert@AEAU?$pair@$$CBVLexItemSet@build_tables@tree_sitter@@_J@std@@V?$_List_unchecked_iterator@V?$_List_val@U?$_List_simple_types@U?$pair@$$CBVLexItemSet@build_tables@tree_sitter@@_J@std@@@std@@@std@@@2@@?$_Hash@V?$_Umap_traits@VLexItemSet@build_tables@tree_sitter@@_JV?$_Uhash_compare@VLexItemSet@build_tables@tree_sitter@@U?$hash@VLexItemSet@build_tables@tree_sitter@@@std@@U?$equal_to@VLexItemSet@build_tables@tree_sitter@@@5@@std@@V?$allocator@U?$pair@$$CBVLexItemSet@build_tables@tree_sitter@@_J@std@@@5@$0A@@std@@@std@@IEAA?AU?$pair@V?$_List_iterator@V?$_List_val@U?$_List_simple_types@U?$pair@$$CBVLexItemSet@build_tables@tree_sitter@@_J@std@@@std@@@std@@@std@@_N@1@AEAU?$pair@$$CBVLexItemSet@build_tables@tree_sitter@@_J@1@V?$_List_unchecked_iterator@V?$_List_val@U?$_List_simple_types@U?$pair@$$CBVLexItemSet@build_tables@tree_sitter@@_J@std@@@std@@@std@@@1@@Z 0000000180039290 f i compiler:lex_table_builder.obj
 0001:00038460       ??$_Insert_hint@AEAU?$pair@$$CBUCharacterSet@rules@tree_sitter@@UAdvanceAction@3@@std@@PEAU?$_Tree_node@U?$pair@$$CBUCharacterSet@rules@tree_sitter@@UAdvanceAction@3@@std@@PEAX@2@@?$_Tree@V?$_Tmap_traits@UCharacterSet@rules@tree_sitter@@UAdvanceAction@3@U?$less@UCharacterSet@rules@tree_sitter@@@std@@V?$allocator@U?$pair@$$CBUCharacterSet@rules@tree_sitter@@UAdvanceAction@3@@std@@@6@$0A@@std@@@std@@IEAA?AV?$_Tree_iterator@V?$_Tree_val@U?$_Tree_simple_types@U?$pair@$$CBUCharacterSet@rules@tree_sitter@@UAdvanceAction@3@@std@@@std@@@std@@@1@V?$_Tree_const_iterator@V?$_Tree_val@U?$_Tree_simple_types@U?$pair@$$CBUCharacterSet@rules@tree_sitter@@UAdvanceAction@3@@std@@@std@@@std@@@1@AEAU?$pair@$$CBUCharacterSet@rules@tree_sitter@@UAdvanceAction@3@@1@PEAU?$_Tree_node@U?$pair@$$CBUCharacterSet@rules@tree_sitter@@UAdvanceAction@3@@std@@PEAX@1@@Z 0000000180039460 f i compiler:lex_table_builder.obj
 0001:000386f0       ??$_Uninitialized_move_al_unchecked1@PEAU?$pair@VLookaheadSet@build_tables@tree_sitter@@V?$vector@PEAUParseState@tree_sitter@@V?$allocator@PEAUParseState@tree_sitter@@@std@@@std@@@std@@PEAU12@V?$allocator@U?$pair@VLookaheadSet@build_tables@tree_sitter@@V?$vector@PEAUParseState@tree_sitter@@V?$allocator@PEAUParseState@tree_sitter@@@std@@@std@@@std@@@2@@std@@YAPEAU?$pair@VLookaheadSet@build_tables@tree_sitter@@V?$vector@PEAUParseState@tree_sitter@@V?$allocator@PEAUParseState@tree_sitter@@@std@@@std@@@0@PEAU10@00AEAU?$_Wrap_alloc@V?$allocator@U?$pair@VLookaheadSet@build_tables@tree_sitter@@V?$vector@PEAUParseState@tree_sitter@@V?$allocator@PEAUParseState@tree_sitter@@@std@@@std@@@std@@@std@@@0@U_General_ptr_iterator_tag@0@U_Any_tag@0@@Z 00000001800396f0 f i compiler:lex_table_builder.obj
 0001:000387e0       ?_Check_size@?$_Hash@V?$_Umap_traits@VLexItemSet@build_tables@tree_sitter@@_JV?$_Uhash_compare@VLexItemSet@build_tables@tree_sitter@@U?$hash@VLexItemSet@build_tables@tree_sitter@@@std@@U?$equal_to@VLexItemSet@build_tables@tree_sitter@@@5@@std@@V?$allocator@U?$pair@$$CBVLexItemSet@build_tables@tree_sitter@@_J@std@@@5@$0A@@std@@@std@@IEAAXXZ 00000001800397e0 f i compiler:lex_table_builder.obj
 0001:000388a0       ?_Destroy_if_not_nil@?$_Tree@V?$_Tmap_traits@UCharacterSet@rules@tree_sitter@@UAdvanceAction@3@U?$less@UCharacterSet@rules@tree_sitter@@@std@@V?$allocator@U?$pair@$$CBUCharacterSet@rules@tree_sitter@@UAdvanceAction@3@@std@@@6@$0A@@std@@@std@@IEAAXPEAU?$_Tree_node@U?$pair@$$CBUCharacterSet@rules@tree_sitter@@UAdvanceAction@3@@std@@PEAX@2@@Z 00000001800398a0 f i compiler:lex_table_builder.obj
 0001:00038910       ??$_Insert_at@AEAU?$pair@$$CBUCharacterSet@rules@tree_sitter@@UAdvanceAction@3@@std@@PEAU?$_Tree_node@U?$pair@$$CBUCharacterSet@rules@tree_sitter@@UAdvanceAction@3@@std@@PEAX@2@@?$_Tree@V?$_Tmap_traits@UCharacterSet@rules@tree_sitter@@UAdvanceAction@3@U?$less@UCharacterSet@rules@tree_sitter@@@std@@V?$allocator@U?$pair@$$CBUCharacterSet@rules@tree_sitter@@UAdvanceAction@3@@std@@@6@$0A@@std@@@std@@IEAA?AV?$_Tree_iterator@V?$_Tree_val@U?$_Tree_simple_types@U?$pair@$$CBUCharacterSet@rules@tree_sitter@@UAdvanceAction@3@@std@@@std@@@std@@@1@_NPEAU?$_Tree_node@U?$pair@$$CBUCharacterSet@rules@tree_sitter@@UAdvanceAction@3@@std@@PEAX@1@AEAU?$pair@$$CBUCharacterSet@rules@tree_sitter@@UAdvanceAction@3@@1@1@Z 0000000180039910 f i compiler:lex_table_builder.obj
 0001:00038bb0       ??$_Insert_nohint@AEAU?$pair@$$CBUCharacterSet@rules@tree_sitter@@UAdvanceAction@3@@std@@PEAU?$_Tree_node@U?$pair@$$CBUCharacterSet@rules@tree_sitter@@UAdvanceAction@3@@std@@PEAX@2@@?$_Tree@V?$_Tmap_traits@UCharacterSet@rules@tree_sitter@@UAdvanceAction@3@U?$less@UCharacterSet@rules@tree_sitter@@@std@@V?$allocator@U?$pair@$$CBUCharacterSet@rules@tree_sitter@@UAdvanceAction@3@@std@@@6@$0A@@std@@@std@@IEAA?AU?$pair@V?$_Tree_iterator@V?$_Tree_val@U?$_Tree_simple_types@U?$pair@$$CBUCharacterSet@rules@tree_sitter@@UAdvanceAction@3@@std@@@std@@@std@@@std@@_N@1@_NAEAU?$pair@$$CBUCharacterSet@rules@tree_sitter@@UAdvanceAction@3@@1@PEAU?$_Tree_node@U?$pair@$$CBUCharacterSet@rules@tree_sitter@@UAdvanceAction@3@@std@@PEAX@1@@Z 0000000180039bb0 f i compiler:lex_table_builder.obj
 0001:00038d70       ??0?$unordered_set@VLexItem@build_tables@tree_sitter@@U?$hash@VLexItem@build_tables@tree_sitter@@@std@@U?$equal_to@VLexItem@build_tables@tree_sitter@@@5@V?$allocator@VLexItem@build_tables@tree_sitter@@@5@@std@@QEAA@AEBV01@@Z 0000000180039d70 f i compiler:lex_table_builder.obj
 0001:00038de0       ?_Copy@?$_Hash@V?$_Uset_traits@VLexItem@build_tables@tree_sitter@@V?$_Uhash_compare@VLexItem@build_tables@tree_sitter@@U?$hash@VLexItem@build_tables@tree_sitter@@@std@@U?$equal_to@VLexItem@build_tables@tree_sitter@@@5@@std@@V?$allocator@VLexItem@build_tables@tree_sitter@@@5@$0A@@std@@@std@@IEAAXAEBV12@@Z 0000000180039de0 f i compiler:lex_table_builder.obj
 0001:00038ea0       ??$insert@V?$_List_const_iterator@V?$_List_val@U?$_List_simple_types@VLexItem@build_tables@tree_sitter@@@std@@@std@@@std@@@?$_Hash@V?$_Uset_traits@VLexItem@build_tables@tree_sitter@@V?$_Uhash_compare@VLexItem@build_tables@tree_sitter@@U?$hash@VLexItem@build_tables@tree_sitter@@@std@@U?$equal_to@VLexItem@build_tables@tree_sitter@@@5@@std@@V?$allocator@VLexItem@build_tables@tree_sitter@@@5@$0A@@std@@@std@@QEAAXV?$_List_const_iterator@V?$_List_val@U?$_List_simple_types@VLexItem@build_tables@tree_sitter@@@std@@@std@@@1@0@Z 0000000180039ea0 f i compiler:lex_table_builder.obj
 0001:00038fd0       ??8ParseItem@build_tables@tree_sitter@@QEBA_NAEBU012@@Z 0000000180039fd0 f   compiler:parse_item.obj
 0001:000391f0       ??MParseItem@build_tables@tree_sitter@@QEBA_NAEBU012@@Z 000000018003a1f0 f   compiler:parse_item.obj
 0001:00039440       ?lhs@ParseItem@build_tables@tree_sitter@@QEBA?AUSymbol@rules@3@XZ 000000018003a440 f   compiler:parse_item.obj
 0001:00039460       ?is_done@ParseItem@build_tables@tree_sitter@@QEBA_NXZ 000000018003a460 f   compiler:parse_item.obj
 0001:00039490       ?unfinished_item_signature@ParseItemSet@build_tables@tree_sitter@@QEBA_KXZ 000000018003a490 f   compiler:parse_item.obj
 0001:00039650       ??R?$hash@UParseItem@build_tables@tree_sitter@@@std@@QEBA_KAEBUParseItem@build_tables@tree_sitter@@@Z 000000018003a650 f i compiler:parse_item.obj
 0001:00039b80       ??R?$hash@UParseItemSet@build_tables@tree_sitter@@@std@@QEBA_KAEBUParseItemSet@build_tables@tree_sitter@@@Z 000000018003ab80 f   compiler:parse_item.obj
 0001:00039ed0       ??$for_each@V<lambda_bb01919ec5f9e672a44a993863401998>@@@LookaheadSet@build_tables@tree_sitter@@QEBAXAEBV<lambda_bb01919ec5f9e672a44a993863401998>@@@Z 000000018003aed0 f i compiler:parse_item.obj
 0001:0003a0d0       ??$_Equal_unchecked1@V?$_Tree_unchecked_const_iterator@V?$_Tree_val@U?$_Tree_simple_types@U?$pair@$$CBUParseItem@build_tables@tree_sitter@@VLookaheadSet@23@@std@@@std@@@std@@U_Iterator_base0@2@@std@@V12@U?$equal_to@X@2@@std@@YA_NV?$_Tree_unchecked_const_iterator@V?$_Tree_val@U?$_Tree_simple_types@U?$pair@$$CBUParseItem@build_tables@tree_sitter@@VLookaheadSet@23@@std@@@std@@@std@@U_Iterator_base0@2@@0@00AEAU?$equal_to@X@0@U?$integral_constant@_N$0A@@0@@Z 000000018003b0d0 f i compiler:parse_item.obj
 0001:0003a260       ?has_shift_action@ParseState@tree_sitter@@QEBA_NXZ 000000018003b260 f   compiler:parse_table.obj
 0001:0003a320       ?each_referenced_state@ParseState@tree_sitter@@QEAAXV?$function@$$A6AXPEA_K@Z@std@@@Z 000000018003b320 f   compiler:parse_table.obj
 0001:0003a4c0       ?set_nonterminal_action@ParseTable@tree_sitter@@QEAAX_KH0@Z 000000018003b4c0 f   compiler:parse_table.obj
 0001:0003a550       ??0LookaheadSet@build_tables@tree_sitter@@QEAA@AEBV?$vector@USymbol@rules@tree_sitter@@V?$allocator@USymbol@rules@tree_sitter@@@std@@@std@@@Z 000000018003b550 f   compiler:lookahead_set.obj
 0001:0003a670       ?size@LookaheadSet@build_tables@tree_sitter@@QEBA_KXZ 000000018003b670 f   compiler:lookahead_set.obj
 0001:0003a7a0       ?insert_all@LookaheadSet@build_tables@tree_sitter@@QEAA_NAEBV123@@Z 000000018003b7a0 f   compiler:lookahead_set.obj
 0001:0003a9b0       ?insert@LookaheadSet@build_tables@tree_sitter@@QEAA_NAEBUSymbol@rules@3@@Z 000000018003b9b0 f   compiler:lookahead_set.obj
 0001:0003aa50       ?remove@LookaheadSet@build_tables@tree_sitter@@QEAA_NAEBUSymbol@rules@3@@Z 000000018003ba50 f   compiler:lookahead_set.obj
 0001:0003aac0       ?resize@?$vector@_NV?$allocator@_N@std@@@std@@QEAAX_K_N@Z 000000018003bac0 f i compiler:lookahead_set.obj
 0001:0003ac70       ?_Insert_n@?$vector@_NV?$allocator@_N@std@@@std@@QEAA?AV?$_Vb_iterator@U?$_Wrap_alloc@V?$allocator@I@std@@@std@@@2@V?$_Vb_const_iterator@U?$_Wrap_alloc@V?$allocator@I@std@@@std@@@2@_KAEB_N@Z 000000018003bc70 f i compiler:lookahead_set.obj
 0001:0003ae20       ?erase@?$vector@_NV?$allocator@_N@std@@@std@@QEAA?AV?$_Vb_iterator@U?$_Wrap_alloc@V?$allocator@I@std@@@std@@@2@V?$_Vb_const_iterator@U?$_Wrap_alloc@V?$allocator@I@std@@@std@@@2@0@Z 000000018003be20 f i compiler:lookahead_set.obj
 0001:0003b080       ?_Trim@?$vector@_NV?$allocator@_N@std@@@std@@QEAAX_K@Z 000000018003c080 f i compiler:lookahead_set.obj
 0001:0003b140       ?_Insert_x@?$vector@_NV?$allocator@_N@std@@@std@@QEAA_KV?$_Vb_const_iterator@U?$_Wrap_alloc@V?$allocator@I@std@@@std@@@2@_K@Z 000000018003c140 f i compiler:lookahead_set.obj
 0001:0003b360       ?resize@?$vector@IV?$allocator@_N@std@@@std@@QEAAX_KAEBI@Z 000000018003c360 f i compiler:lookahead_set.obj
 0001:0003b430       ?_Construct_n@?$vector@IV?$allocator@_N@std@@@std@@QEAAX_KPEBI@Z 000000018003c430 f i compiler:lookahead_set.obj
 0001:0003b4d0       ?_Reserve@?$vector@IV?$allocator@_N@std@@@std@@IEAAX_K@Z 000000018003c4d0 f i compiler:lookahead_set.obj
 0001:0003b560       ?_Reallocate@?$vector@W4Associativity@rules@tree_sitter@@V?$allocator@W4Associativity@rules@tree_sitter@@@std@@@std@@IEAAX_K@Z 000000018003c560 f i compiler:flatten_grammar.obj
 0001:0003b560       ?_Reallocate@?$vector@HV?$allocator@H@std@@@std@@IEAAX_K@Z 000000018003c560 f i compiler:flatten_grammar.obj
 0001:0003b560       ?_Reallocate@?$vector@IV?$allocator@_N@std@@@std@@IEAAX_K@Z 000000018003c560 f i compiler:lookahead_set.obj
 0001:0003b5e0       ??0ParseItemSetBuilder@build_tables@tree_sitter@@QEAA@AEBUSyntaxGrammar@2@AEBULexicalGrammar@2@@Z 000000018003c5e0 f   compiler:parse_item_set_builder.obj
 0001:0003c600       ?inline_production@ParseItemSetBuilder@build_tables@tree_sitter@@AEAAAEBV?$vector@UProduction@tree_sitter@@V?$allocator@UProduction@tree_sitter@@@std@@@std@@AEBUParseItem@23@@Z 000000018003d600 f   compiler:parse_item_set_builder.obj
 0001:0003cff0       ?apply_transitive_closure@ParseItemSetBuilder@build_tables@tree_sitter@@QEAAXPEAUParseItemSet@23@@Z 000000018003dff0 f   compiler:parse_item_set_builder.obj
 0001:0003d820       ?get_first_set@ParseItemSetBuilder@build_tables@tree_sitter@@QEBA?AVLookaheadSet@23@AEBUSymbol@rules@3@@Z 000000018003e820 f   compiler:parse_item_set_builder.obj
 0001:0003d8f0       ?get_last_set@ParseItemSetBuilder@build_tables@tree_sitter@@QEBA?AVLookaheadSet@23@AEBUSymbol@rules@3@@Z 000000018003e8f0 f   compiler:parse_item_set_builder.obj
 0001:0003d9c0       ??1?$unordered_map@HUFollowSetInfo@build_tables@tree_sitter@@U?$hash@H@std@@U?$equal_to@H@5@V?$allocator@U?$pair@$$CBHUFollowSetInfo@build_tables@tree_sitter@@@std@@@5@@std@@QEAA@XZ 000000018003e9c0 f i compiler:parse_item_set_builder.obj
 0001:0003da10       ??0NonTerminalQueueEntry@build_tables@tree_sitter@@QEAA@AEBU012@@Z 000000018003ea10 f i compiler:parse_item_set_builder.obj
 0001:0003da90       ??1?$vector@UNonTerminalQueueEntry@build_tables@tree_sitter@@V?$allocator@UNonTerminalQueueEntry@build_tables@tree_sitter@@@std@@@std@@QEAA@XZ 000000018003ea90 f i compiler:parse_item_set_builder.obj
 0001:0003daf0       ?push_back@?$vector@UNonTerminalQueueEntry@build_tables@tree_sitter@@V?$allocator@UNonTerminalQueueEntry@build_tables@tree_sitter@@@std@@@std@@QEAAX$$QEAUNonTerminalQueueEntry@build_tables@tree_sitter@@@Z 000000018003eaf0 f i compiler:parse_item_set_builder.obj
 0001:0003db80       ??A?$map@HV?$vector@UParseItemSetComponent@ParseItemSetBuilder@build_tables@tree_sitter@@V?$allocator@UParseItemSetComponent@ParseItemSetBuilder@build_tables@tree_sitter@@@std@@@std@@U?$less@H@2@V?$allocator@U?$pair@$$CBHV?$vector@UParseItemSetComponent@ParseItemSetBuilder@build_tables@tree_sitter@@V?$allocator@UParseItemSetComponent@ParseItemSetBuilder@build_tables@tree_sitter@@@std@@@std@@@std@@@2@@std@@QEAAAEAV?$vector@UParseItemSetComponent@ParseItemSetBuilder@build_tables@tree_sitter@@V?$allocator@UParseItemSetComponent@ParseItemSetBuilder@build_tables@tree_sitter@@@std@@@1@AEBH@Z 000000018003eb80 f i compiler:parse_item_set_builder.obj
 0001:0003dba0       ?push_back@?$vector@UProduction@tree_sitter@@V?$allocator@UProduction@tree_sitter@@@std@@@std@@QEAAX$$QEAUProduction@tree_sitter@@@Z 000000018003eba0 f i compiler:parse_item_set_builder.obj
 0001:0003dc40       ?_Reserve@?$vector@UNonTerminalQueueEntry@build_tables@tree_sitter@@V?$allocator@UNonTerminalQueueEntry@build_tables@tree_sitter@@@std@@@std@@IEAAX_K@Z 000000018003ec40 f i compiler:parse_item_set_builder.obj
 0001:0003dd10       ?_Reserve@?$vector@UProduction@tree_sitter@@V?$allocator@UProduction@tree_sitter@@@std@@@std@@IEAAX_K@Z 000000018003ed10 f i compiler:parse_item_set_builder.obj
 0001:0003dda0       ?_Reserve@?$vector@UProductionStep@tree_sitter@@V?$allocator@UProductionStep@tree_sitter@@@std@@@std@@IEAAX_K@Z 000000018003eda0 f i compiler:parse_item_set_builder.obj
 0001:0003de70       ?_Reallocate@?$vector@UNonTerminalQueueEntry@build_tables@tree_sitter@@V?$allocator@UNonTerminalQueueEntry@build_tables@tree_sitter@@@std@@@std@@IEAAX_K@Z 000000018003ee70 f i compiler:parse_item_set_builder.obj
 0001:0003df40       ?_Reallocate@?$vector@UProduction@tree_sitter@@V?$allocator@UProduction@tree_sitter@@@std@@@std@@IEAAX_K@Z 000000018003ef40 f i compiler:parse_item_set_builder.obj
 0001:0003e020       ?_Reallocate@?$vector@UProductionStep@tree_sitter@@V?$allocator@UProductionStep@tree_sitter@@@std@@@std@@IEAAX_K@Z 000000018003f020 f i compiler:parse_item_set_builder.obj
 0001:0003e0f0       ?clear@?$list@U?$pair@$$CBHUFollowSetInfo@build_tables@tree_sitter@@@std@@V?$allocator@U?$pair@$$CBHUFollowSetInfo@build_tables@tree_sitter@@@std@@@2@@std@@QEAAXXZ 000000018003f0f0 f i compiler:parse_item_set_builder.obj
 0001:0003e280       ??$find_or_push@UParseItemSetComponent@ParseItemSetBuilder@build_tables@tree_sitter@@@build_tables@tree_sitter@@YAXAEAV?$vector@UParseItemSetComponent@ParseItemSetBuilder@build_tables@tree_sitter@@V?$allocator@UParseItemSetComponent@ParseItemSetBuilder@build_tables@tree_sitter@@@std@@@std@@AEBUParseItemSetComponent@ParseItemSetBuilder@01@@Z 000000018003f280 f i compiler:parse_item_set_builder.obj
 0001:0003e2c0       ??$construct@UNonTerminalQueueEntry@build_tables@tree_sitter@@U123@@?$_Wrap_alloc@V?$allocator@UNonTerminalQueueEntry@build_tables@tree_sitter@@@std@@@std@@QEAAXPEAUNonTerminalQueueEntry@build_tables@tree_sitter@@$$QEAU234@@Z 000000018003f2c0 f i compiler:parse_item_set_builder.obj
 0001:0003e360       ?push_back@?$vector@UParseItemSetComponent@ParseItemSetBuilder@build_tables@tree_sitter@@V?$allocator@UParseItemSetComponent@ParseItemSetBuilder@build_tables@tree_sitter@@@std@@@std@@QEAAXAEBUParseItemSetComponent@ParseItemSetBuilder@build_tables@tree_sitter@@@Z 000000018003f360 f i compiler:parse_item_set_builder.obj
 0001:0003e400       ?_Reserve@?$vector@UParseItemSetComponent@ParseItemSetBuilder@build_tables@tree_sitter@@V?$allocator@UParseItemSetComponent@ParseItemSetBuilder@build_tables@tree_sitter@@@std@@@std@@IEAAX_K@Z 000000018003f400 f i compiler:parse_item_set_builder.obj
 0001:0003e4d0       ?_Reallocate@?$vector@UParseItemSetComponent@ParseItemSetBuilder@build_tables@tree_sitter@@V?$allocator@UParseItemSetComponent@ParseItemSetBuilder@build_tables@tree_sitter@@@std@@@std@@IEAAX_K@Z 000000018003f4d0 f i compiler:parse_item_set_builder.obj
 0001:0003e5f0       ??$_Insert_nohint@U?$pair@$$CBUSymbol@rules@tree_sitter@@VLookaheadSet@build_tables@3@@std@@U_Nil@2@@?$_Tree@V?$_Tmap_traits@USymbol@rules@tree_sitter@@VLookaheadSet@build_tables@3@U?$less@USymbol@rules@tree_sitter@@@std@@V?$allocator@U?$pair@$$CBUSymbol@rules@tree_sitter@@VLookaheadSet@build_tables@3@@std@@@7@$0A@@std@@@std@@IEAA?AU?$pair@V?$_Tree_iterator@V?$_Tree_val@U?$_Tree_simple_types@U?$pair@$$CBUSymbol@rules@tree_sitter@@VLookaheadSet@build_tables@3@@std@@@std@@@std@@@std@@_N@1@_N$$QEAU?$pair@$$CBUSymbol@rules@tree_sitter@@VLookaheadSet@build_tables@3@@1@U_Nil@1@@Z 000000018003f5f0 f i compiler:parse_item_set_builder.obj
 0001:0003e740       ??$find@V?$_Vector_iterator@V?$_Vector_val@U?$_Simple_types@UParseItemSetComponent@ParseItemSetBuilder@build_tables@tree_sitter@@@std@@@std@@@std@@UParseItemSetComponent@ParseItemSetBuilder@build_tables@tree_sitter@@@std@@YA?AV?$_Vector_iterator@V?$_Vector_val@U?$_Simple_types@UParseItemSetComponent@ParseItemSetBuilder@build_tables@tree_sitter@@@std@@@std@@@0@V10@0AEBUParseItemSetComponent@ParseItemSetBuilder@build_tables@tree_sitter@@@Z 000000018003f740 f i compiler:parse_item_set_builder.obj
 0001:0003e770       ??$_Insert@V?$_Vector_const_iterator@V?$_Vector_val@U?$_Simple_types@UProductionStep@tree_sitter@@@std@@@std@@@std@@@?$vector@UProductionStep@tree_sitter@@V?$allocator@UProductionStep@tree_sitter@@@std@@@std@@QEAAXV?$_Vector_const_iterator@V?$_Vector_val@U?$_Simple_types@UProductionStep@tree_sitter@@@std@@@std@@@1@00Uforward_iterator_tag@1@@Z 000000018003f770 f i compiler:parse_item_set_builder.obj
 0001:0003e960       ??$_Try_emplace@AEBH$$V@?$unordered_map@HUFollowSetInfo@build_tables@tree_sitter@@U?$hash@H@std@@U?$equal_to@H@5@V?$allocator@U?$pair@$$CBHUFollowSetInfo@build_tables@tree_sitter@@@std@@@5@@std@@QEAA?AU?$pair@V?$_List_iterator@V?$_List_val@U?$_List_simple_types@U?$pair@$$CBHUFollowSetInfo@build_tables@tree_sitter@@@std@@@std@@@std@@@std@@_N@1@AEBH@Z 000000018003f960 f i compiler:parse_item_set_builder.obj
 0001:0003ea90       ??$_Assign@PEBUNonTerminalQueueEntry@build_tables@tree_sitter@@@?$vector@UNonTerminalQueueEntry@build_tables@tree_sitter@@V?$allocator@UNonTerminalQueueEntry@build_tables@tree_sitter@@@std@@@std@@QEAAXPEBUNonTerminalQueueEntry@build_tables@tree_sitter@@0Uforward_iterator_tag@1@@Z 000000018003fa90 f i compiler:parse_item_set_builder.obj
 0001:0003ec00       ??$_Try_emplace@AEBUParseItem@build_tables@tree_sitter@@$$V@?$map@UParseItem@build_tables@tree_sitter@@V?$vector@UProduction@tree_sitter@@V?$allocator@UProduction@tree_sitter@@@std@@@std@@U?$less@UParseItem@build_tables@tree_sitter@@@5@V?$allocator@U?$pair@$$CBUParseItem@build_tables@tree_sitter@@V?$vector@UProduction@tree_sitter@@V?$allocator@UProduction@tree_sitter@@@std@@@std@@@std@@@5@@std@@QEAA?AU?$pair@V?$_Tree_iterator@V?$_Tree_val@U?$_Tree_simple_types@U?$pair@$$CBUParseItem@build_tables@tree_sitter@@V?$vector@UProduction@tree_sitter@@V?$allocator@UProduction@tree_sitter@@@std@@@std@@@std@@@std@@@std@@@std@@_N@1@AEBUParseItem@build_tables@tree_sitter@@@Z 000000018003fc00 f i compiler:parse_item_set_builder.obj
 0001:0003ed20       ??$_Try_emplace@AEBH$$V@?$map@HV?$vector@UParseItemSetComponent@ParseItemSetBuilder@build_tables@tree_sitter@@V?$allocator@UParseItemSetComponent@ParseItemSetBuilder@build_tables@tree_sitter@@@std@@@std@@U?$less@H@2@V?$allocator@U?$pair@$$CBHV?$vector@UParseItemSetComponent@ParseItemSetBuilder@build_tables@tree_sitter@@V?$allocator@UParseItemSetComponent@ParseItemSetBuilder@build_tables@tree_sitter@@@std@@@std@@@std@@@2@@std@@QEAA?AU?$pair@V?$_Tree_iterator@V?$_Tree_val@U?$_Tree_simple_types@U?$pair@$$CBHV?$vector@UParseItemSetComponent@ParseItemSetBuilder@build_tables@tree_sitter@@V?$allocator@UParseItemSetComponent@ParseItemSetBuilder@build_tables@tree_sitter@@@std@@@std@@@std@@@std@@@std@@@std@@_N@1@AEBH@Z 000000018003fd20 f i compiler:parse_item_set_builder.obj
 0001:0003ee10       ??$_Try_emplace@AEBUSymbol@rules@tree_sitter@@$$V@?$map@USymbol@rules@tree_sitter@@VLookaheadSet@build_tables@3@U?$less@USymbol@rules@tree_sitter@@@std@@V?$allocator@U?$pair@$$CBUSymbol@rules@tree_sitter@@VLookaheadSet@build_tables@3@@std@@@7@@std@@QEAA?AU?$pair@V?$_Tree_iterator@V?$_Tree_val@U?$_Tree_simple_types@U?$pair@$$CBUSymbol@rules@tree_sitter@@VLookaheadSet@build_tables@3@@std@@@std@@@std@@@std@@_N@1@AEBUSymbol@rules@tree_sitter@@@Z 000000018003fe10 f i compiler:parse_item_set_builder.obj
 0001:0003ef50       ??$_Assign@PEBUSymbol@rules@tree_sitter@@@?$vector@USymbol@rules@tree_sitter@@V?$allocator@USymbol@rules@tree_sitter@@@std@@@std@@QEAAXPEBUSymbol@rules@tree_sitter@@0Uforward_iterator_tag@1@@Z 000000018003ff50 f i compiler:parse_item_set_builder.obj
 0001:0003f040       ??$_Destroy_range1@V?$allocator@UNonTerminalQueueEntry@build_tables@tree_sitter@@@std@@PEAUNonTerminalQueueEntry@build_tables@tree_sitter@@@std@@YAXPEAUNonTerminalQueueEntry@build_tables@tree_sitter@@0AEAU?$_Wrap_alloc@V?$allocator@UNonTerminalQueueEntry@build_tables@tree_sitter@@@std@@@0@U?$integral_constant@_N$0A@@0@@Z 0000000180040040 f i compiler:parse_item_set_builder.obj
 0001:0003f1a0       ?lower_bound@?$_Hash@V?$_Umap_traits@HUFollowSetInfo@build_tables@tree_sitter@@V?$_Uhash_compare@HU?$hash@H@std@@U?$equal_to@H@2@@std@@V?$allocator@U?$pair@$$CBHUFollowSetInfo@build_tables@tree_sitter@@@std@@@5@$0A@@std@@@std@@QEAA?AV?$_List_iterator@V?$_List_val@U?$_List_simple_types@U?$pair@$$CBHUFollowSetInfo@build_tables@tree_sitter@@@std@@@std@@@std@@@2@AEBH@Z 00000001800401a0 f i compiler:parse_item_set_builder.obj
 0001:0003f260       ??$_Insert_at@U?$pair@$$CBUSymbol@rules@tree_sitter@@VLookaheadSet@build_tables@3@@std@@U_Nil@2@@?$_Tree@V?$_Tmap_traits@USymbol@rules@tree_sitter@@VLookaheadSet@build_tables@3@U?$less@USymbol@rules@tree_sitter@@@std@@V?$allocator@U?$pair@$$CBUSymbol@rules@tree_sitter@@VLookaheadSet@build_tables@3@@std@@@7@$0A@@std@@@std@@IEAA?AV?$_Tree_iterator@V?$_Tree_val@U?$_Tree_simple_types@U?$pair@$$CBUSymbol@rules@tree_sitter@@VLookaheadSet@build_tables@3@@std@@@std@@@std@@@1@_NPEAU?$_Tree_node@U?$pair@$$CBUSymbol@rules@tree_sitter@@VLookaheadSet@build_tables@3@@std@@PEAX@1@$$QEAU?$pair@$$CBUSymbol@rules@tree_sitter@@VLookaheadSet@build_tables@3@@1@U_Nil@1@@Z 0000000180040260 f i compiler:parse_item_set_builder.obj
 0001:0003f570       ??$_Find_unchecked1@PEAUProduction@tree_sitter@@U12@@std@@YAPEAUProduction@tree_sitter@@PEAU12@0AEBU12@U?$integral_constant@_N$0A@@0@@Z 0000000180040570 f i compiler:parse_item_set_builder.obj
 0001:0003f660       ??$_Insert_at@U?$pair@$$CBUParseItem@build_tables@tree_sitter@@VLookaheadSet@23@@std@@U_Nil@2@@?$_Tree@V?$_Tmap_traits@UParseItem@build_tables@tree_sitter@@VLookaheadSet@23@U?$less@UParseItem@build_tables@tree_sitter@@@std@@V?$allocator@U?$pair@$$CBUParseItem@build_tables@tree_sitter@@VLookaheadSet@23@@std@@@6@$0A@@std@@@std@@IEAA?AV?$_Tree_iterator@V?$_Tree_val@U?$_Tree_simple_types@U?$pair@$$CBUParseItem@build_tables@tree_sitter@@VLookaheadSet@23@@std@@@std@@@std@@@1@_NPEAU?$_Tree_node@U?$pair@$$CBUParseItem@build_tables@tree_sitter@@VLookaheadSet@23@@std@@PEAX@1@$$QEAU?$pair@$$CBUParseItem@build_tables@tree_sitter@@VLookaheadSet@23@@1@U_Nil@1@@Z 0000000180040660 f i compiler:parse_item_set_builder.obj
 0001:0003f970       ??$_Find_unchecked1@PEAUParseItemSetComponent@ParseItemSetBuilder@build_tables@tree_sitter@@U1234@@std@@YAPEAUParseItemSetComponent@ParseItemSetBuilder@build_tables@tree_sitter@@PEAU1234@0AEBU1234@U?$integral_constant@_N$0A@@0@@Z 0000000180040970 f i compiler:parse_item_set_builder.obj
 0001:0003fa40       ??$_Rotate_unchecked1@PEAPEBUProduction@tree_sitter@@@std@@YAPEAPEBUProduction@tree_sitter@@PEAPEBU12@00Urandom_access_iterator_tag@0@@Z 0000000180040a40 f i compiler:parse_item_set_builder.obj
 0001:0003fb00       ??$_Insert@AEAU?$pair@$$CBHUFollowSetInfo@build_tables@tree_sitter@@@std@@V?$_List_unchecked_iterator@V?$_List_val@U?$_List_simple_types@U?$pair@$$CBHUFollowSetInfo@build_tables@tree_sitter@@@std@@@std@@@std@@@2@@?$_Hash@V?$_Umap_traits@HUFollowSetInfo@build_tables@tree_sitter@@V?$_Uhash_compare@HU?$hash@H@std@@U?$equal_to@H@2@@std@@V?$allocator@U?$pair@$$CBHUFollowSetInfo@build_tables@tree_sitter@@@std@@@5@$0A@@std@@@std@@IEAA?AU?$pair@V?$_List_iterator@V?$_List_val@U?$_List_simple_types@U?$pair@$$CBHUFollowSetInfo@build_tables@tree_sitter@@@std@@@std@@@std@@@std@@_N@1@AEAU?$pair@$$CBHUFollowSetInfo@build_tables@tree_sitter@@@1@V?$_List_unchecked_iterator@V?$_List_val@U?$_List_simple_types@U?$pair@$$CBHUFollowSetInfo@build_tables@tree_sitter@@@std@@@std@@@std@@@1@@Z 0000000180040b00 f i compiler:parse_item_set_builder.obj
 0001:0003fc90       ??$_Insert_hint@AEAU?$pair@$$CBUParseItem@build_tables@tree_sitter@@V?$vector@UProduction@tree_sitter@@V?$allocator@UProduction@tree_sitter@@@std@@@std@@@std@@PEAU?$_Tree_node@U?$pair@$$CBUParseItem@build_tables@tree_sitter@@V?$vector@UProduction@tree_sitter@@V?$allocator@UProduction@tree_sitter@@@std@@@std@@@std@@PEAX@2@@?$_Tree@V?$_Tmap_traits@UParseItem@build_tables@tree_sitter@@V?$vector@UProduction@tree_sitter@@V?$allocator@UProduction@tree_sitter@@@std@@@std@@U?$less@UParseItem@build_tables@tree_sitter@@@5@V?$allocator@U?$pair@$$CBUParseItem@build_tables@tree_sitter@@V?$vector@UProduction@tree_sitter@@V?$allocator@UProduction@tree_sitter@@@std@@@std@@@std@@@5@$0A@@std@@@std@@IEAA?AV?$_Tree_iterator@V?$_Tree_val@U?$_Tree_simple_types@U?$pair@$$CBUParseItem@build_tables@tree_sitter@@V?$vector@UProduction@tree_sitter@@V?$allocator@UProduction@tree_sitter@@@std@@@std@@@std@@@std@@@std@@@1@V?$_Tree_const_iterator@V?$_Tree_val@U?$_Tree_simple_types@U?$pair@$$CBUParseItem@build_tables@tree_sitter@@V?$vector@UProduction@tree_sitter@@V?$allocator@UProduction@tree_sitter@@@std@@@std@@@std@@@std@@@std@@@1@AEAU?$pair@$$CBUParseItem@build_tables@tree_sitter@@V?$vector@UProduction@tree_sitter@@V?$allocator@UProduction@tree_sitter@@@std@@@std@@@1@PEAU?$_Tree_node@U?$pair@$$CBUParseItem@build_tables@tree_sitter@@V?$vector@UProduction@tree_sitter@@V?$allocator@UProduction@tree_sitter@@@std@@@std@@@std@@PEAX@1@@Z 0000000180040c90 f i compiler:parse_item_set_builder.obj
 0001:0003ff20       ??$_Insert_hint@AEAU?$pair@$$CBHV?$vector@UParseItemSetComponent@ParseItemSetBuilder@build_tables@tree_sitter@@V?$allocator@UParseItemSetComponent@ParseItemSetBuilder@build_tables@tree_sitter@@@std@@@std@@@std@@PEAU?$_Tree_node@U?$pair@$$CBHV?$vector@UParseItemSetComponent@ParseItemSetBuilder@build_tables@tree_sitter@@V?$allocator@UParseItemSetComponent@ParseItemSetBuilder@build_tables@tree_sitter@@@std@@@std@@@std@@PEAX@2@@?$_Tree@V?$_Tmap_traits@HV?$vector@UParseItemSetComponent@ParseItemSetBuilder@build_tables@tree_sitter@@V?$allocator@UParseItemSetComponent@ParseItemSetBuilder@build_tables@tree_sitter@@@std@@@std@@U?$less@H@2@V?$allocator@U?$pair@$$CBHV?$vector@UParseItemSetComponent@ParseItemSetBuilder@build_tables@tree_sitter@@V?$allocator@UParseItemSetComponent@ParseItemSetBuilder@build_tables@tree_sitter@@@std@@@std@@@std@@@2@$0A@@std@@@std@@IEAA?AV?$_Tree_iterator@V?$_Tree_val@U?$_Tree_simple_types@U?$pair@$$CBHV?$vector@UParseItemSetComponent@ParseItemSetBuilder@build_tables@tree_sitter@@V?$allocator@UParseItemSetComponent@ParseItemSetBuilder@build_tables@tree_sitter@@@std@@@std@@@std@@@std@@@std@@@1@V?$_Tree_const_iterator@V?$_Tree_val@U?$_Tree_simple_types@U?$pair@$$CBHV?$vector@UParseItemSetComponent@ParseItemSetBuilder@build_tables@tree_sitter@@V?$allocator@UParseItemSetComponent@ParseItemSetBuilder@build_tables@tree_sitter@@@std@@@std@@@std@@@std@@@std@@@1@AEAU?$pair@$$CBHV?$vector@UParseItemSetComponent@ParseItemSetBuilder@build_tables@tree_sitter@@V?$allocator@UParseItemSetComponent@ParseItemSetBuilder@build_tables@tree_sitter@@@std@@@std@@@1@PEAU?$_Tree_node@U?$pair@$$CBHV?$vector@UParseItemSetComponent@ParseItemSetBuilder@build_tables@tree_sitter@@V?$allocator@UParseItemSetComponent@ParseItemSetBuilder@build_tables@tree_sitter@@@std@@@std@@@std@@PEAX@1@@Z 0000000180040f20 f i compiler:parse_item_set_builder.obj
 0001:00040170       ??$_Insert_hint@AEAU?$pair@$$CBUSymbol@rules@tree_sitter@@VLookaheadSet@build_tables@3@@std@@PEAU?$_Tree_node@U?$pair@$$CBUSymbol@rules@tree_sitter@@VLookaheadSet@build_tables@3@@std@@PEAX@2@@?$_Tree@V?$_Tmap_traits@USymbol@rules@tree_sitter@@VLookaheadSet@build_tables@3@U?$less@USymbol@rules@tree_sitter@@@std@@V?$allocator@U?$pair@$$CBUSymbol@rules@tree_sitter@@VLookaheadSet@build_tables@3@@std@@@7@$0A@@std@@@std@@IEAA?AV?$_Tree_iterator@V?$_Tree_val@U?$_Tree_simple_types@U?$pair@$$CBUSymbol@rules@tree_sitter@@VLookaheadSet@build_tables@3@@std@@@std@@@std@@@1@V?$_Tree_const_iterator@V?$_Tree_val@U?$_Tree_simple_types@U?$pair@$$CBUSymbol@rules@tree_sitter@@VLookaheadSet@build_tables@3@@std@@@std@@@std@@@1@AEAU?$pair@$$CBUSymbol@rules@tree_sitter@@VLookaheadSet@build_tables@3@@1@PEAU?$_Tree_node@U?$pair@$$CBUSymbol@rules@tree_sitter@@VLookaheadSet@build_tables@3@@std@@PEAX@1@@Z 0000000180041170 f i compiler:parse_item_set_builder.obj
 0001:00040400       ??$_Uninitialized_move_al_unchecked1@PEAUNonTerminalQueueEntry@build_tables@tree_sitter@@PEAU123@V?$allocator@UNonTerminalQueueEntry@build_tables@tree_sitter@@@std@@@std@@YAPEAUNonTerminalQueueEntry@build_tables@tree_sitter@@PEAU123@00AEAU?$_Wrap_alloc@V?$allocator@UNonTerminalQueueEntry@build_tables@tree_sitter@@@std@@@0@U_General_ptr_iterator_tag@0@U_Any_tag@0@@Z 0000000180041400 f i compiler:parse_item_set_builder.obj
 0001:000404d0       ??$_Uninitialized_move_al_unchecked1@PEAUProductionStep@tree_sitter@@PEAU12@V?$allocator@UProductionStep@tree_sitter@@@std@@@std@@YAPEAUProductionStep@tree_sitter@@PEAU12@00AEAU?$_Wrap_alloc@V?$allocator@UProductionStep@tree_sitter@@@std@@@0@U_General_ptr_iterator_tag@0@U_Any_tag@0@@Z 00000001800414d0 f i compiler:parse_item_set_builder.obj
 0001:00040570       ??0ParseItemSetComponent@ParseItemSetBuilder@build_tables@tree_sitter@@QEAA@AEBU0123@@Z 0000000180041570 f i compiler:parse_item_set_builder.obj
 0001:00040600       ?_Check_size@?$_Hash@V?$_Umap_traits@HUFollowSetInfo@build_tables@tree_sitter@@V?$_Uhash_compare@HU?$hash@H@std@@U?$equal_to@H@2@@std@@V?$allocator@U?$pair@$$CBHUFollowSetInfo@build_tables@tree_sitter@@@std@@@5@$0A@@std@@@std@@IEAAXXZ 0000000180041600 f i compiler:parse_item_set_builder.obj
 0001:000406c0       ?_Destroy_if_not_nil@?$_Tree@V?$_Tmap_traits@UParseItem@build_tables@tree_sitter@@V?$vector@UProduction@tree_sitter@@V?$allocator@UProduction@tree_sitter@@@std@@@std@@U?$less@UParseItem@build_tables@tree_sitter@@@5@V?$allocator@U?$pair@$$CBUParseItem@build_tables@tree_sitter@@V?$vector@UProduction@tree_sitter@@V?$allocator@UProduction@tree_sitter@@@std@@@std@@@std@@@5@$0A@@std@@@std@@IEAAXPEAU?$_Tree_node@U?$pair@$$CBUParseItem@build_tables@tree_sitter@@V?$vector@UProduction@tree_sitter@@V?$allocator@UProduction@tree_sitter@@@std@@@std@@@std@@PEAX@2@@Z 00000001800416c0 f i compiler:parse_item_set_builder.obj
 0001:00040710       ?_Destroy_if_not_nil@?$_Tree@V?$_Tmap_traits@HV?$vector@UParseItemSetComponent@ParseItemSetBuilder@build_tables@tree_sitter@@V?$allocator@UParseItemSetComponent@ParseItemSetBuilder@build_tables@tree_sitter@@@std@@@std@@U?$less@H@2@V?$allocator@U?$pair@$$CBHV?$vector@UParseItemSetComponent@ParseItemSetBuilder@build_tables@tree_sitter@@V?$allocator@UParseItemSetComponent@ParseItemSetBuilder@build_tables@tree_sitter@@@std@@@std@@@std@@@2@$0A@@std@@@std@@IEAAXPEAU?$_Tree_node@U?$pair@$$CBHV?$vector@UParseItemSetComponent@ParseItemSetBuilder@build_tables@tree_sitter@@V?$allocator@UParseItemSetComponent@ParseItemSetBuilder@build_tables@tree_sitter@@@std@@@std@@@std@@PEAX@2@@Z 0000000180041710 f i compiler:parse_item_set_builder.obj
 0001:00040780       ??$_Rotate_unchecked1@PEAUProductionStep@tree_sitter@@@std@@YAPEAUProductionStep@tree_sitter@@PEAU12@00Urandom_access_iterator_tag@0@@Z 0000000180041780 f i compiler:parse_item_set_builder.obj
 0001:00040870       ??$_Insert_at@AEAU?$pair@$$CBUParseItem@build_tables@tree_sitter@@V?$vector@UProduction@tree_sitter@@V?$allocator@UProduction@tree_sitter@@@std@@@std@@@std@@PEAU?$_Tree_node@U?$pair@$$CBUParseItem@build_tables@tree_sitter@@V?$vector@UProduction@tree_sitter@@V?$allocator@UProduction@tree_sitter@@@std@@@std@@@std@@PEAX@2@@?$_Tree@V?$_Tmap_traits@UParseItem@build_tables@tree_sitter@@V?$vector@UProduction@tree_sitter@@V?$allocator@UProduction@tree_sitter@@@std@@@std@@U?$less@UParseItem@build_tables@tree_sitter@@@5@V?$allocator@U?$pair@$$CBUParseItem@build_tables@tree_sitter@@V?$vector@UProduction@tree_sitter@@V?$allocator@UProduction@tree_sitter@@@std@@@std@@@std@@@5@$0A@@std@@@std@@IEAA?AV?$_Tree_iterator@V?$_Tree_val@U?$_Tree_simple_types@U?$pair@$$CBUParseItem@build_tables@tree_sitter@@V?$vector@UProduction@tree_sitter@@V?$allocator@UProduction@tree_sitter@@@std@@@std@@@std@@@std@@@std@@@1@_NPEAU?$_Tree_node@U?$pair@$$CBUParseItem@build_tables@tree_sitter@@V?$vector@UProduction@tree_sitter@@V?$allocator@UProduction@tree_sitter@@@std@@@std@@@std@@PEAX@1@AEAU?$pair@$$CBUParseItem@build_tables@tree_sitter@@V?$vector@UProduction@tree_sitter@@V?$allocator@UProduction@tree_sitter@@@std@@@std@@@1@1@Z 0000000180041870 f i compiler:parse_item_set_builder.obj
 0001:00040b60       ??$_Insert_nohint@AEAU?$pair@$$CBUParseItem@build_tables@tree_sitter@@V?$vector@UProduction@tree_sitter@@V?$allocator@UProduction@tree_sitter@@@std@@@std@@@std@@PEAU?$_Tree_node@U?$pair@$$CBUParseItem@build_tables@tree_sitter@@V?$vector@UProduction@tree_sitter@@V?$allocator@UProduction@tree_sitter@@@std@@@std@@@std@@PEAX@2@@?$_Tree@V?$_Tmap_traits@UParseItem@build_tables@tree_sitter@@V?$vector@UProduction@tree_sitter@@V?$allocator@UProduction@tree_sitter@@@std@@@std@@U?$less@UParseItem@build_tables@tree_sitter@@@5@V?$allocator@U?$pair@$$CBUParseItem@build_tables@tree_sitter@@V?$vector@UProduction@tree_sitter@@V?$allocator@UProduction@tree_sitter@@@std@@@std@@@std@@@5@$0A@@std@@@std@@IEAA?AU?$pair@V?$_Tree_iterator@V?$_Tree_val@U?$_Tree_simple_types@U?$pair@$$CBUParseItem@build_tables@tree_sitter@@V?$vector@UProduction@tree_sitter@@V?$allocator@UProduction@tree_sitter@@@std@@@std@@@std@@@std@@@std@@@std@@_N@1@_NAEAU?$pair@$$CBUParseItem@build_tables@tree_sitter@@V?$vector@UProduction@tree_sitter@@V?$allocator@UProduction@tree_sitter@@@std@@@std@@@1@PEAU?$_Tree_node@U?$pair@$$CBUParseItem@build_tables@tree_sitter@@V?$vector@UProduction@tree_sitter@@V?$allocator@UProduction@tree_sitter@@@std@@@std@@@std@@PEAX@1@@Z 0000000180041b60 f i compiler:parse_item_set_builder.obj
 0001:00040cc0       ??$_Insert_at@AEAU?$pair@$$CBHV?$vector@UParseItemSetComponent@ParseItemSetBuilder@build_tables@tree_sitter@@V?$allocator@UParseItemSetComponent@ParseItemSetBuilder@build_tables@tree_sitter@@@std@@@std@@@std@@PEAU?$_Tree_node@U?$pair@$$CBHV?$vector@UParseItemSetComponent@ParseItemSetBuilder@build_tables@tree_sitter@@V?$allocator@UParseItemSetComponent@ParseItemSetBuilder@build_tables@tree_sitter@@@std@@@std@@@std@@PEAX@2@@?$_Tree@V?$_Tmap_traits@HV?$vector@UParseItemSetComponent@ParseItemSetBuilder@build_tables@tree_sitter@@V?$allocator@UParseItemSetComponent@ParseItemSetBuilder@build_tables@tree_sitter@@@std@@@std@@U?$less@H@2@V?$allocator@U?$pair@$$CBHV?$vector@UParseItemSetComponent@ParseItemSetBuilder@build_tables@tree_sitter@@V?$allocator@UParseItemSetComponent@ParseItemSetBuilder@build_tables@tree_sitter@@@std@@@std@@@std@@@2@$0A@@std@@@std@@IEAA?AV?$_Tree_iterator@V?$_Tree_val@U?$_Tree_simple_types@U?$pair@$$CBHV?$vector@UParseItemSetComponent@ParseItemSetBuilder@build_tables@tree_sitter@@V?$allocator@UParseItemSetComponent@ParseItemSetBuilder@build_tables@tree_sitter@@@std@@@std@@@std@@@std@@@std@@@1@_NPEAU?$_Tree_node@U?$pair@$$CBHV?$vector@UParseItemSetComponent@ParseItemSetBuilder@build_tables@tree_sitter@@V?$allocator@UParseItemSetComponent@ParseItemSetBuilder@build_tables@tree_sitter@@@std@@@std@@@std@@PEAX@1@AEAU?$pair@$$CBHV?$vector@UParseItemSetComponent@ParseItemSetBuilder@build_tables@tree_sitter@@V?$allocator@UParseItemSetComponent@ParseItemSetBuilder@build_tables@tree_sitter@@@std@@@std@@@1@1@Z 0000000180041cc0 f i compiler:parse_item_set_builder.obj
 0001:00040f60       ??$_Insert_nohint@AEAU?$pair@$$CBHV?$vector@UParseItemSetComponent@ParseItemSetBuilder@build_tables@tree_sitter@@V?$allocator@UParseItemSetComponent@ParseItemSetBuilder@build_tables@tree_sitter@@@std@@@std@@@std@@PEAU?$_Tree_node@U?$pair@$$CBHV?$vector@UParseItemSetComponent@ParseItemSetBuilder@build_tables@tree_sitter@@V?$allocator@UParseItemSetComponent@ParseItemSetBuilder@build_tables@tree_sitter@@@std@@@std@@@std@@PEAX@2@@?$_Tree@V?$_Tmap_traits@HV?$vector@UParseItemSetComponent@ParseItemSetBuilder@build_tables@tree_sitter@@V?$allocator@UParseItemSetComponent@ParseItemSetBuilder@build_tables@tree_sitter@@@std@@@std@@U?$less@H@2@V?$allocator@U?$pair@$$CBHV?$vector@UParseItemSetComponent@ParseItemSetBuilder@build_tables@tree_sitter@@V?$allocator@UParseItemSetComponent@ParseItemSetBuilder@build_tables@tree_sitter@@@std@@@std@@@std@@@2@$0A@@std@@@std@@IEAA?AU?$pair@V?$_Tree_iterator@V?$_Tree_val@U?$_Tree_simple_types@U?$pair@$$CBHV?$vector@UParseItemSetComponent@ParseItemSetBuilder@build_tables@tree_sitter@@V?$allocator@UParseItemSetComponent@ParseItemSetBuilder@build_tables@tree_sitter@@@std@@@std@@@std@@@std@@@std@@@std@@_N@1@_NAEAU?$pair@$$CBHV?$vector@UParseItemSetComponent@ParseItemSetBuilder@build_tables@tree_sitter@@V?$allocator@UParseItemSetComponent@ParseItemSetBuilder@build_tables@tree_sitter@@@std@@@std@@@1@PEAU?$_Tree_node@U?$pair@$$CBHV?$vector@UParseItemSetComponent@ParseItemSetBuilder@build_tables@tree_sitter@@V?$allocator@UParseItemSetComponent@ParseItemSetBuilder@build_tables@tree_sitter@@@std@@@std@@@std@@PEAX@1@@Z 0000000180041f60 f i compiler:parse_item_set_builder.obj
 0001:00041080       ??$_Insert_at@AEAU?$pair@$$CBUSymbol@rules@tree_sitter@@VLookaheadSet@build_tables@3@@std@@PEAU?$_Tree_node@U?$pair@$$CBUSymbol@rules@tree_sitter@@VLookaheadSet@build_tables@3@@std@@PEAX@2@@?$_Tree@V?$_Tmap_traits@USymbol@rules@tree_sitter@@VLookaheadSet@build_tables@3@U?$less@USymbol@rules@tree_sitter@@@std@@V?$allocator@U?$pair@$$CBUSymbol@rules@tree_sitter@@VLookaheadSet@build_tables@3@@std@@@7@$0A@@std@@@std@@IEAA?AV?$_Tree_iterator@V?$_Tree_val@U?$_Tree_simple_types@U?$pair@$$CBUSymbol@rules@tree_sitter@@VLookaheadSet@build_tables@3@@std@@@std@@@std@@@1@_NPEAU?$_Tree_node@U?$pair@$$CBUSymbol@rules@tree_sitter@@VLookaheadSet@build_tables@3@@std@@PEAX@1@AEAU?$pair@$$CBUSymbol@rules@tree_sitter@@VLookaheadSet@build_tables@3@@1@1@Z 0000000180042080 f i compiler:parse_item_set_builder.obj
 0001:00041330       ??$_Insert_nohint@AEAU?$pair@$$CBUSymbol@rules@tree_sitter@@VLookaheadSet@build_tables@3@@std@@PEAU?$_Tree_node@U?$pair@$$CBUSymbol@rules@tree_sitter@@VLookaheadSet@build_tables@3@@std@@PEAX@2@@?$_Tree@V?$_Tmap_traits@USymbol@rules@tree_sitter@@VLookaheadSet@build_tables@3@U?$less@USymbol@rules@tree_sitter@@@std@@V?$allocator@U?$pair@$$CBUSymbol@rules@tree_sitter@@VLookaheadSet@build_tables@3@@std@@@7@$0A@@std@@@std@@IEAA?AU?$pair@V?$_Tree_iterator@V?$_Tree_val@U?$_Tree_simple_types@U?$pair@$$CBUSymbol@rules@tree_sitter@@VLookaheadSet@build_tables@3@@std@@@std@@@std@@@std@@_N@1@_NAEAU?$pair@$$CBUSymbol@rules@tree_sitter@@VLookaheadSet@build_tables@3@@1@PEAU?$_Tree_node@U?$pair@$$CBUSymbol@rules@tree_sitter@@VLookaheadSet@build_tables@3@@std@@PEAX@1@@Z 0000000180042330 f i compiler:parse_item_set_builder.obj
 0001:00041490       ??$_Uninitialized_move_al_unchecked1@PEAUParseItemSetComponent@ParseItemSetBuilder@build_tables@tree_sitter@@PEAU1234@V?$allocator@UParseItemSetComponent@ParseItemSetBuilder@build_tables@tree_sitter@@@std@@@std@@YAPEAUParseItemSetComponent@ParseItemSetBuilder@build_tables@tree_sitter@@PEAU1234@00AEAU?$_Wrap_alloc@V?$allocator@UParseItemSetComponent@ParseItemSetBuilder@build_tables@tree_sitter@@@std@@@0@U_General_ptr_iterator_tag@0@U_Any_tag@0@@Z 0000000180042490 f i compiler:parse_item_set_builder.obj
 0001:00041570       ??$construct@U?$pair@$$CBUSymbol@rules@tree_sitter@@VLookaheadSet@build_tables@3@@std@@U12@@?$_Wrap_alloc@V?$allocator@U?$_Tree_node@U?$pair@$$CBUSymbol@rules@tree_sitter@@VLookaheadSet@build_tables@3@@std@@PEAX@std@@@std@@@std@@QEAAXPEAU?$pair@$$CBUSymbol@rules@tree_sitter@@VLookaheadSet@build_tables@3@@1@$$QEAU21@@Z 0000000180042570 f i compiler:parse_item_set_builder.obj
 0001:00041610       ??$construct@U?$pair@$$CBUParseItem@build_tables@tree_sitter@@VLookaheadSet@23@@std@@U12@@?$_Wrap_alloc@V?$allocator@U?$_Tree_node@U?$pair@$$CBUParseItem@build_tables@tree_sitter@@VLookaheadSet@23@@std@@PEAX@std@@@std@@@std@@QEAAXPEAU?$pair@$$CBUParseItem@build_tables@tree_sitter@@VLookaheadSet@23@@1@$$QEAU21@@Z 0000000180042610 f i compiler:parse_item_set_builder.obj
 0001:000416b0       ??0ProductionStep@tree_sitter@@QEAA@$$QEAU01@@Z 00000001800426b0 f i compiler:parse_item_set_builder.obj
 0001:00041720       ??$swap@UProductionStep@tree_sitter@@X@std@@YAXAEAUProductionStep@tree_sitter@@0@Z 0000000180042720 f i compiler:parse_item_set_builder.obj
 0001:00041820       ?_Get_deleter@_Ref_count_base@std@@UEBAPEAXAEBVtype_info@@@Z 0000000180042820 f i compiler:metadata.obj
 0001:00041830       ??_G_Ref_count_base@std@@UEAAPEAXI@Z 0000000180042830 f i compiler:metadata.obj
 0001:00041830       ??_E_Ref_count_base@std@@UEAAPEAXI@Z 0000000180042830 f i * CIL library *:* CIL module *
 0001:00041860       ??8MetadataParams@rules@tree_sitter@@QEBA_NAEBU012@@Z 0000000180042860 f i compiler:metadata.obj
 0001:000418d0       ??8Alias@rules@tree_sitter@@QEBA_NAEBU012@@Z 00000001800428d0 f   compiler:metadata.obj
 0001:00041910       ??MAlias@rules@tree_sitter@@QEBA_NAEBU012@@Z 0000000180042910 f   compiler:metadata.obj
 0001:00041970       ??8Metadata@rules@tree_sitter@@QEBA_NAEBU012@@Z 0000000180042970 f   compiler:metadata.obj
 0001:00041b20       ??$make_shared@URule@rules@tree_sitter@@AEBU123@@std@@YA?AV?$shared_ptr@URule@rules@tree_sitter@@@0@AEBURule@rules@tree_sitter@@@Z 0000000180042b20 f i compiler:metadata.obj
 0001:00042e70       ?_Delete_this@?$_Ref_count_obj@URule@rules@tree_sitter@@@std@@EEAAXXZ 0000000180043e70 f i compiler:metadata.obj
 0001:00042e90       ?_Destroy@?$_Ref_count_obj@URule@rules@tree_sitter@@@std@@EEAAXXZ 0000000180043e90 f i compiler:metadata.obj
 0001:00042ea0       ??_E?$_Ref_count_obj@URule@rules@tree_sitter@@@std@@UEAAPEAXI@Z 0000000180043ea0 f i * CIL library *:* CIL module *
 0001:00042ea0       ??_G?$_Ref_count_obj@URule@rules@tree_sitter@@@std@@UEAAPEAXI@Z 0000000180043ea0 f i compiler:metadata.obj
 0001:00042ed0       ??$_Equal_unchecked1@V?$_Tree_unchecked_const_iterator@V?$_Tree_val@U?$_Tree_simple_types@U?$pair@$$CBUCharacterSet@rules@tree_sitter@@UAdvanceAction@3@@std@@@std@@@std@@U_Iterator_base0@2@@std@@V12@U?$equal_to@X@2@@std@@YA_NV?$_Tree_unchecked_const_iterator@V?$_Tree_val@U?$_Tree_simple_types@U?$pair@$$CBUCharacterSet@rules@tree_sitter@@UAdvanceAction@3@@std@@@std@@@std@@U_Iterator_base0@2@@0@00AEAU?$equal_to@X@0@U?$integral_constant@_N$0A@@0@@Z 0000000180043ed0 f i compiler:lex_table.obj
 0001:00043780       ??0CharacterSet@rules@tree_sitter@@QEAA@XZ 0000000180044780 f   compiler:character_set.obj
 0001:00043820       ??8CharacterSet@rules@tree_sitter@@QEBA_NAEBU012@@Z 0000000180044820 f   compiler:character_set.obj
 0001:00043890       ??MCharacterSet@rules@tree_sitter@@QEBA_NAEBU012@@Z 0000000180044890 f   compiler:character_set.obj
 0001:00043910       ?include_all@CharacterSet@rules@tree_sitter@@QEAAAEAU123@XZ 0000000180044910 f   compiler:character_set.obj
 0001:00043970       ?include@CharacterSet@rules@tree_sitter@@QEAAAEAU123@I@Z 0000000180044970 f   compiler:character_set.obj
 0001:000439b0       ?exclude@CharacterSet@rules@tree_sitter@@QEAAAEAU123@I@Z 00000001800449b0 f   compiler:character_set.obj
 0001:000439f0       ?add_set@CharacterSet@rules@tree_sitter@@QEAAXAEBU123@@Z 00000001800449f0 f   compiler:character_set.obj
 0001:00043c90       ?remove_set@CharacterSet@rules@tree_sitter@@QEAA?AU123@AEBU123@@Z 0000000180044c90 f   compiler:character_set.obj
 0001:00043f70       ?intersects@CharacterSet@rules@tree_sitter@@QEBA_NAEBU123@@Z 0000000180044f70 f   compiler:character_set.obj
 0001:00044060       ?_Reserve@?$vector@UCharacterRange@rules@tree_sitter@@V?$allocator@UCharacterRange@rules@tree_sitter@@@std@@@std@@IEAAX_K@Z 0000000180045060 f i compiler:character_set.obj
 0001:000440f0       ?_Reallocate@?$vector@UCharacterRange@rules@tree_sitter@@V?$allocator@UCharacterRange@rules@tree_sitter@@@std@@@std@@IEAAX_K@Z 00000001800450f0 f i compiler:character_set.obj
 0001:00044200       ??$insert@PEBI@?$_Tree@V?$_Tset_traits@IU?$less@I@std@@V?$allocator@I@2@$0A@@std@@@std@@QEAAXPEBI0@Z 0000000180045200 f i compiler:character_set.obj
 0001:000442b0       ??$_Insert_nohint@AEBIU_Nil@std@@@?$_Tree@V?$_Tset_traits@IU?$less@I@std@@V?$allocator@I@2@$0A@@std@@@std@@IEAA?AU?$pair@V?$_Tree_const_iterator@V?$_Tree_val@U?$_Tree_simple_types@I@std@@@std@@@std@@_N@1@_NAEBIU_Nil@1@@Z 00000001800452b0 f i compiler:character_set.obj
 0001:00044400       ??$_Lex_compare_unchecked1@V?$_Tree_unchecked_const_iterator@V?$_Tree_val@U?$_Tree_simple_types@I@std@@@std@@U_Iterator_base0@2@@std@@V12@U?$less@X@2@@std@@YA_NV?$_Tree_unchecked_const_iterator@V?$_Tree_val@U?$_Tree_simple_types@I@std@@@std@@U_Iterator_base0@2@@0@000AEAU?$less@X@0@U?$_Lex_compare_optimize@X@0@@Z 0000000180045400 f i compiler:character_set.obj
 0001:00044520       ?escape_char@util@tree_sitter@@YA?AV?$basic_string@DU?$char_traits@D@std@@V?$allocator@D@2@@std@@I@Z 0000000180045520 f   compiler:string_helpers.obj
 0001:000448b0       ?find@?$basic_string@DU?$char_traits@D@std@@V?$allocator@D@2@@std@@QEBA_KPEBD_K1@Z 00000001800458b0 f i compiler:string_helpers.obj
 0001:000449a0       ??8Repeat@rules@tree_sitter@@QEBA_NAEBU012@@Z 00000001800459a0 f   compiler:repeat.obj
 0001:00044a50       ??$?8URule@rules@tree_sitter@@V?$allocator@URule@rules@tree_sitter@@@std@@@std@@YA_NAEBV?$vector@URule@rules@tree_sitter@@V?$allocator@URule@rules@tree_sitter@@@std@@@0@0@Z 0000000180045a50 f i compiler:choice.obj
 0001:00044ad0       ??$_Equal_unchecked1@PEBURule@rules@tree_sitter@@PEBU123@U?$equal_to@X@std@@@std@@YA_NPEBURule@rules@tree_sitter@@00AEAU?$equal_to@X@0@U?$integral_constant@_N$0A@@0@@Z 0000000180045ad0 f i compiler:choice.obj
 0001:00044be0       ??8Seq@rules@tree_sitter@@QEBA_NAEBU012@@Z 0000000180045be0 f   compiler:seq.obj
 0001:00044d70       sprintf                    0000000180045d70 f i compiler:json.obj
 0001:00044ee0       ??3@YAXPEAX@Z              0000000180045ee0 f   LIBCMT:delete_scalar.obj
 0001:000450b0       json_parse_ex              00000001800460b0 f   compiler:json.obj
 0001:00046250       json_value_free            0000000180047250 f   compiler:json.obj
 0001:00046300       ?apply@FlattenRule@prepare_grammar@tree_sitter@@AEAAXAEBURule@rules@3@_N@Z 0000000180047300 f i compiler:flatten_grammar.obj
 0001:000465e0       ??0FlattenRule@prepare_grammar@tree_sitter@@QEAA@XZ 00000001800475e0 f i compiler:flatten_grammar.obj
 0001:00046770       ?flatten_rule@prepare_grammar@tree_sitter@@YA?AUSyntaxVariable@2@AEBUVariable@2@@Z 0000000180047770 f   compiler:flatten_grammar.obj
 0001:00046e10       ?flatten_grammar@prepare_grammar@tree_sitter@@YA?AU?$pair@USyntaxGrammar@tree_sitter@@VCompileError@2@@std@@AEBUInitialSyntaxGrammar@12@@Z 0000000180047e10 f   compiler:flatten_grammar.obj
 0001:000475b0       ??1FlattenRule@prepare_grammar@tree_sitter@@QEAA@XZ 00000001800485b0 f i compiler:flatten_grammar.obj
 0001:000476b0       ??0SyntaxVariable@tree_sitter@@QEAA@$$QEAU01@@Z 00000001800486b0 f i compiler:flatten_grammar.obj
 0001:00047730       ?push_back@?$vector@UAlias@rules@tree_sitter@@V?$allocator@UAlias@rules@tree_sitter@@@std@@@std@@QEAAXAEBUAlias@rules@tree_sitter@@@Z 0000000180048730 f i compiler:flatten_grammar.obj
 0001:00047800       ?push_back@?$vector@W4Associativity@rules@tree_sitter@@V?$allocator@W4Associativity@rules@tree_sitter@@@std@@@std@@QEAAXAEBW4Associativity@rules@tree_sitter@@@Z 0000000180048800 f i compiler:flatten_grammar.obj
 0001:00047800       ?push_back@?$vector@HV?$allocator@H@std@@@std@@QEAAXAEBH@Z 0000000180048800 f i compiler:flatten_grammar.obj
 0001:00047890       ??4?$vector@UExternalToken@tree_sitter@@V?$allocator@UExternalToken@tree_sitter@@@std@@@std@@QEAAAEAV01@AEBV01@@Z 0000000180048890 f i compiler:flatten_grammar.obj
 0001:00047a30       ?_Reserve@?$vector@HV?$allocator@H@std@@@std@@IEAAX_K@Z 0000000180048a30 f i compiler:flatten_grammar.obj
 0001:00047a30       ?_Reserve@?$vector@W4Associativity@rules@tree_sitter@@V?$allocator@W4Associativity@rules@tree_sitter@@@std@@@std@@IEAAX_K@Z 0000000180048a30 f i compiler:flatten_grammar.obj
 0001:00047ac0       ?_Reallocate@?$vector@USyntaxVariable@tree_sitter@@V?$allocator@USyntaxVariable@tree_sitter@@@std@@@std@@IEAAX_K@Z 0000000180048ac0 f i compiler:flatten_grammar.obj
 0001:00047b70       ??$_Copy_unchecked@PEAUExternalToken@tree_sitter@@PEAU12@@std@@YAPEAUExternalToken@tree_sitter@@PEAU12@00@Z 0000000180048b70 f i compiler:flatten_grammar.obj
 0001:00047be0       ??$accept@U?$visitor@V<lambda_73314485e6000a8548d09f215c7349c9>@@V<lambda_c1df50e61d337ae8db3c9a8c3782d292>@@V<lambda_e5829612af9d55505f4fb718cbd4e052>@@V<lambda_cd8e169d23c1ab5b1362af2bcbed9e88>@@V<lambda_462bfd0682bfa495c968b1fc2f9dc959>@@@util@tree_sitter@@@Rule@rules@tree_sitter@@QEBAXU?$visitor@V<lambda_73314485e6000a8548d09f215c7349c9>@@V<lambda_c1df50e61d337ae8db3c9a8c3782d292>@@V<lambda_e5829612af9d55505f4fb718cbd4e052>@@V<lambda_cd8e169d23c1ab5b1362af2bcbed9e88>@@V<lambda_462bfd0682bfa495c968b1fc2f9dc959>@@@util@2@@Z 0000000180048be0 f i compiler:flatten_grammar.obj
 0001:00047de0       ??$insert@V?$_Tree_const_iterator@V?$_Tree_val@U?$_Tree_simple_types@USymbol@rules@tree_sitter@@@std@@@std@@@std@@@?$_Tree@V?$_Tset_traits@USymbol@rules@tree_sitter@@U?$less@USymbol@rules@tree_sitter@@@std@@V?$allocator@USymbol@rules@tree_sitter@@@5@$0A@@std@@@std@@QEAAXV?$_Tree_const_iterator@V?$_Tree_val@U?$_Tree_simple_types@USymbol@rules@tree_sitter@@@std@@@std@@@1@0@Z 0000000180048de0 f i compiler:flatten_grammar.obj
 0001:00047ef0       ??$_Construct@PEBUAlias@rules@tree_sitter@@@?$vector@UAlias@rules@tree_sitter@@V?$allocator@UAlias@rules@tree_sitter@@@std@@@std@@QEAAXPEBUAlias@rules@tree_sitter@@0Uforward_iterator_tag@1@@Z 0000000180048ef0 f i compiler:flatten_grammar.obj
 0001:00047fb0       ??$_Construct@PEBH@?$vector@HV?$allocator@H@std@@@std@@QEAAXPEBH0Uforward_iterator_tag@1@@Z 0000000180048fb0 f i compiler:flatten_grammar.obj
 0001:00047fb0       ??$_Construct@PEBW4Associativity@rules@tree_sitter@@@?$vector@W4Associativity@rules@tree_sitter@@V?$allocator@W4Associativity@rules@tree_sitter@@@std@@@std@@QEAAXPEBW4Associativity@rules@tree_sitter@@0Uforward_iterator_tag@1@@Z 0000000180048fb0 f i compiler:flatten_grammar.obj
 0001:00048060       ??$_Insert_at@V?$set@USymbol@rules@tree_sitter@@U?$less@USymbol@rules@tree_sitter@@@std@@V?$allocator@USymbol@rules@tree_sitter@@@5@@std@@U_Nil@2@@?$_Tree@V?$_Tset_traits@V?$set@USymbol@rules@tree_sitter@@U?$less@USymbol@rules@tree_sitter@@@std@@V?$allocator@USymbol@rules@tree_sitter@@@5@@std@@U?$less@V?$set@USymbol@rules@tree_sitter@@U?$less@USymbol@rules@tree_sitter@@@std@@V?$allocator@USymbol@rules@tree_sitter@@@5@@std@@@2@V?$allocator@V?$set@USymbol@rules@tree_sitter@@U?$less@USymbol@rules@tree_sitter@@@std@@V?$allocator@USymbol@rules@tree_sitter@@@5@@std@@@2@$0A@@std@@@std@@IEAA?AV?$_Tree_const_iterator@V?$_Tree_val@U?$_Tree_simple_types@V?$set@USymbol@rules@tree_sitter@@U?$less@USymbol@rules@tree_sitter@@@std@@V?$allocator@USymbol@rules@tree_sitter@@@5@@std@@@std@@@std@@@1@_NPEAU?$_Tree_node@V?$set@USymbol@rules@tree_sitter@@U?$less@USymbol@rules@tree_sitter@@@std@@V?$allocator@USymbol@rules@tree_sitter@@@5@@std@@PEAX@1@$$QEAV?$set@USymbol@rules@tree_sitter@@U?$less@USymbol@rules@tree_sitter@@@std@@V?$allocator@USymbol@rules@tree_sitter@@@5@@1@U_Nil@1@@Z 0000000180049060 f i compiler:flatten_grammar.obj
 0001:00048370       ??$_Insert_hint@AEAUSymbol@rules@tree_sitter@@PEAU?$_Tree_node@USymbol@rules@tree_sitter@@PEAX@std@@@?$_Tree@V?$_Tset_traits@USymbol@rules@tree_sitter@@U?$less@USymbol@rules@tree_sitter@@@std@@V?$allocator@USymbol@rules@tree_sitter@@@5@$0A@@std@@@std@@IEAA?AV?$_Tree_const_iterator@V?$_Tree_val@U?$_Tree_simple_types@USymbol@rules@tree_sitter@@@std@@@std@@@1@V21@AEAUSymbol@rules@tree_sitter@@PEAU?$_Tree_node@USymbol@rules@tree_sitter@@PEAX@1@@Z 0000000180049370 f i compiler:flatten_grammar.obj
 0001:00048600       ??$_Insert_at@AEAUSymbol@rules@tree_sitter@@PEAU?$_Tree_node@USymbol@rules@tree_sitter@@PEAX@std@@@?$_Tree@V?$_Tset_traits@USymbol@rules@tree_sitter@@U?$less@USymbol@rules@tree_sitter@@@std@@V?$allocator@USymbol@rules@tree_sitter@@@5@$0A@@std@@@std@@IEAA?AV?$_Tree_const_iterator@V?$_Tree_val@U?$_Tree_simple_types@USymbol@rules@tree_sitter@@@std@@@std@@@1@_NPEAU?$_Tree_node@USymbol@rules@tree_sitter@@PEAX@1@AEAUSymbol@rules@tree_sitter@@1@Z 0000000180049600 f i compiler:flatten_grammar.obj
 0001:000488a0       ??$_Insert_nohint@AEAUSymbol@rules@tree_sitter@@PEAU?$_Tree_node@USymbol@rules@tree_sitter@@PEAX@std@@@?$_Tree@V?$_Tset_traits@USymbol@rules@tree_sitter@@U?$less@USymbol@rules@tree_sitter@@@std@@V?$allocator@USymbol@rules@tree_sitter@@@5@$0A@@std@@@std@@IEAA?AU?$pair@V?$_Tree_const_iterator@V?$_Tree_val@U?$_Tree_simple_types@USymbol@rules@tree_sitter@@@std@@@std@@@std@@_N@1@_NAEAUSymbol@rules@tree_sitter@@PEAU?$_Tree_node@USymbol@rules@tree_sitter@@PEAX@1@@Z 00000001800498a0 f i compiler:flatten_grammar.obj
 0001:00048a00       ??$_Lex_compare_unchecked1@V?$_Tree_unchecked_const_iterator@V?$_Tree_val@U?$_Tree_simple_types@USymbol@rules@tree_sitter@@@std@@@std@@U_Iterator_base0@2@@std@@V12@U?$less@X@2@@std@@YA_NV?$_Tree_unchecked_const_iterator@V?$_Tree_val@U?$_Tree_simple_types@USymbol@rules@tree_sitter@@@std@@@std@@U_Iterator_base0@2@@0@000AEAU?$less@X@0@U?$_Lex_compare_optimize@X@0@@Z 0000000180049a00 f i compiler:flatten_grammar.obj
 0001:00048b40       ?normalize_rules@prepare_grammar@tree_sitter@@YA?AULexicalGrammar@2@AEBU32@@Z 0000000180049b40 f   compiler:normalize_rules.obj
 0001:00048d60       ?apply@SymbolReplacer@prepare_grammar@tree_sitter@@QEAA?AURule@rules@3@AEBU453@@Z 0000000180049d60 f i compiler:extract_tokens.obj
 0001:00049060       ?replace_symbol@SymbolReplacer@prepare_grammar@tree_sitter@@QEAA?AUSymbol@rules@3@AEBU453@@Z 000000018004a060 f i compiler:extract_tokens.obj
 0001:00049170       ?extract_token@TokenExtractor@prepare_grammar@tree_sitter@@AEAA?AUSymbol@rules@3@AEBURule@53@W4VariableType@3@@Z 000000018004a170 f i compiler:extract_tokens.obj
 0001:00049460       ?apply@TokenExtractor@prepare_grammar@tree_sitter@@QEAA?AURule@rules@3@AEBU453@@Z 000000018004a460 f i compiler:extract_tokens.obj
 0001:00049c50       ?extract_tokens@prepare_grammar@tree_sitter@@YA?AV?$tuple@UInitialSyntaxGrammar@prepare_grammar@tree_sitter@@ULexicalGrammar@3@VCompileError@3@@std@@AEBUInternedGrammar@12@@Z 000000018004ac50 f   compiler:extract_tokens.obj
 0001:0004b290       ??1TokenExtractor@prepare_grammar@tree_sitter@@QEAA@XZ 000000018004c290 f i compiler:extract_tokens.obj
 0001:0004b300       ?push_back@?$vector@UExternalToken@tree_sitter@@V?$allocator@UExternalToken@tree_sitter@@@std@@@std@@QEAAX$$QEAUExternalToken@tree_sitter@@@Z 000000018004c300 f i compiler:extract_tokens.obj
 0001:0004b3f0       ?push_back@?$vector@UVariable@tree_sitter@@V?$allocator@UVariable@tree_sitter@@@std@@@std@@QEAAXAEBUVariable@tree_sitter@@@Z 000000018004c3f0 f i compiler:extract_tokens.obj
 0001:0004b4a0       ?_Reserve@?$vector@UExternalToken@tree_sitter@@V?$allocator@UExternalToken@tree_sitter@@@std@@@std@@IEAAX_K@Z 000000018004c4a0 f i compiler:extract_tokens.obj
 0001:0004b570       ?_Reserve@?$vector@ULexicalVariable@tree_sitter@@V?$allocator@ULexicalVariable@tree_sitter@@@std@@@std@@IEAAX_K@Z 000000018004c570 f i compiler:extract_tokens.obj
 0001:0004b640       ?_Reallocate@?$vector@UExternalToken@tree_sitter@@V?$allocator@UExternalToken@tree_sitter@@@std@@@std@@IEAAX_K@Z 000000018004c640 f i compiler:extract_tokens.obj
 0001:0004b720       ?_Reallocate@?$vector@ULexicalVariable@tree_sitter@@V?$allocator@ULexicalVariable@tree_sitter@@@std@@@std@@IEAAX_K@Z 000000018004c720 f i compiler:extract_tokens.obj
 0001:0004b7f0       ??$make_tuple@AEAUInitialSyntaxGrammar@prepare_grammar@tree_sitter@@AEAULexicalGrammar@3@VCompileError@3@@std@@YA?AV?$tuple@UInitialSyntaxGrammar@prepare_grammar@tree_sitter@@ULexicalGrammar@3@VCompileError@3@@0@AEAUInitialSyntaxGrammar@prepare_grammar@tree_sitter@@AEAULexicalGrammar@4@$$QEAVCompileError@4@@Z 000000018004c7f0 f i compiler:extract_tokens.obj
 0001:0004b880       ??$construct@ULexicalVariable@tree_sitter@@U12@@?$_Wrap_alloc@V?$allocator@ULexicalVariable@tree_sitter@@@std@@@std@@QEAAXPEAULexicalVariable@tree_sitter@@$$QEAU23@@Z 000000018004c880 f i compiler:extract_tokens.obj
 0001:0004b8f0       ??$accept@U?$visitor@V<lambda_0e2a02c652fe1a19b95e02bc51c7e329>@@V<lambda_54a8d993f1460b9371b5b4cd82029e7d>@@V<lambda_e83ff1545980aab8c3cb7d8a4f1b9743>@@V<lambda_b8e97c8e1b388f1031792cd5a192697a>@@V<lambda_82694e263daac14718e6162a3dcb08c5>@@V<lambda_552dc46f33a291fec9ef657ba6cfd220>@@V<lambda_1acb6a8c7e4fc1a64e1e8e32b210f6b5>@@@util@tree_sitter@@@Rule@rules@tree_sitter@@QEBA?AU012@U?$visitor@V<lambda_0e2a02c652fe1a19b95e02bc51c7e329>@@V<lambda_54a8d993f1460b9371b5b4cd82029e7d>@@V<lambda_e83ff1545980aab8c3cb7d8a4f1b9743>@@V<lambda_b8e97c8e1b388f1031792cd5a192697a>@@V<lambda_82694e263daac14718e6162a3dcb08c5>@@V<lambda_552dc46f33a291fec9ef657ba6cfd220>@@V<lambda_1acb6a8c7e4fc1a64e1e8e32b210f6b5>@@@util@2@@Z 000000018004c8f0 f i compiler:extract_tokens.obj
 0001:0004bc70       ??$accept@U?$visitor@V<lambda_df8b9f602b87b6021c1e012e32efc3a3>@@V<lambda_3a45375ab67a270b7f0d22626406db5b>@@V<lambda_1435eff452ad9b18927a576dd0aae5ce>@@V<lambda_571d51e36db2f7989b8e7efed6081a47>@@V<lambda_b8816620e337c151f04b41dc7f9719d0>@@V<lambda_d673b693e41a76535a5fea2bccf5a419>@@V<lambda_0d09d45bd934922b06ce6d6b21f24086>@@V<lambda_1aae3addf7419934729f96397bc4f034>@@V<lambda_572b27ded307444dd7ef03dbd49b4cc2>@@@util@tree_sitter@@@Rule@rules@tree_sitter@@QEBA?AU012@U?$visitor@V<lambda_df8b9f602b87b6021c1e012e32efc3a3>@@V<lambda_3a45375ab67a270b7f0d22626406db5b>@@V<lambda_1435eff452ad9b18927a576dd0aae5ce>@@V<lambda_571d51e36db2f7989b8e7efed6081a47>@@V<lambda_b8816620e337c151f04b41dc7f9719d0>@@V<lambda_d673b693e41a76535a5fea2bccf5a419>@@V<lambda_0d09d45bd934922b06ce6d6b21f24086>@@V<lambda_1aae3addf7419934729f96397bc4f034>@@V<lambda_572b27ded307444dd7ef03dbd49b4cc2>@@@util@2@@Z 000000018004cc70 f i compiler:extract_tokens.obj
 0001:0004beb0       ??$accept@U?$visitor@V<lambda_60cc0d598bcadb282cd2320b3e431330>@@V<lambda_3a9b5ecee91a6335edb7901b49d3f348>@@@util@tree_sitter@@@Rule@rules@tree_sitter@@QEBA?AVCompileError@2@U?$visitor@V<lambda_60cc0d598bcadb282cd2320b3e431330>@@V<lambda_3a9b5ecee91a6335edb7901b49d3f348>@@@util@2@@Z 000000018004ceb0 f i compiler:extract_tokens.obj
 0001:0004d890       ??$_Insert_nohint@AEBV?$set@USymbol@rules@tree_sitter@@U?$less@USymbol@rules@tree_sitter@@@std@@V?$allocator@USymbol@rules@tree_sitter@@@5@@std@@U_Nil@2@@?$_Tree@V?$_Tset_traits@V?$set@USymbol@rules@tree_sitter@@U?$less@USymbol@rules@tree_sitter@@@std@@V?$allocator@USymbol@rules@tree_sitter@@@5@@std@@U?$less@V?$set@USymbol@rules@tree_sitter@@U?$less@USymbol@rules@tree_sitter@@@std@@V?$allocator@USymbol@rules@tree_sitter@@@5@@std@@@2@V?$allocator@V?$set@USymbol@rules@tree_sitter@@U?$less@USymbol@rules@tree_sitter@@@std@@V?$allocator@USymbol@rules@tree_sitter@@@5@@std@@@2@$0A@@std@@@std@@IEAA?AU?$pair@V?$_Tree_const_iterator@V?$_Tree_val@U?$_Tree_simple_types@V?$set@USymbol@rules@tree_sitter@@U?$less@USymbol@rules@tree_sitter@@@std@@V?$allocator@USymbol@rules@tree_sitter@@@5@@std@@@std@@@std@@@std@@_N@1@_NAEBV?$set@USymbol@rules@tree_sitter@@U?$less@USymbol@rules@tree_sitter@@@std@@V?$allocator@USymbol@rules@tree_sitter@@@5@@1@U_Nil@1@@Z 000000018004e890 f i compiler:extract_tokens.obj
 0001:0004d9e0       ??$_Try_emplace@USymbol@rules@tree_sitter@@$$V@?$map@USymbol@rules@tree_sitter@@U123@U?$less@USymbol@rules@tree_sitter@@@std@@V?$allocator@U?$pair@$$CBUSymbol@rules@tree_sitter@@U123@@std@@@5@@std@@QEAA?AU?$pair@V?$_Tree_iterator@V?$_Tree_val@U?$_Tree_simple_types@U?$pair@$$CBUSymbol@rules@tree_sitter@@U123@@std@@@std@@@std@@@std@@_N@1@$$QEAUSymbol@rules@tree_sitter@@@Z 000000018004e9e0 f i compiler:extract_tokens.obj
 0001:0004daf0       ??$?0AEAUInitialSyntaxGrammar@prepare_grammar@tree_sitter@@@?$_Tuple_val@UInitialSyntaxGrammar@prepare_grammar@tree_sitter@@@std@@QEAA@AEAUInitialSyntaxGrammar@prepare_grammar@tree_sitter@@@Z 000000018004eaf0 f i compiler:extract_tokens.obj
 0001:0004db10       ??$_Insert_at@AEBV?$set@USymbol@rules@tree_sitter@@U?$less@USymbol@rules@tree_sitter@@@std@@V?$allocator@USymbol@rules@tree_sitter@@@5@@std@@U_Nil@2@@?$_Tree@V?$_Tset_traits@V?$set@USymbol@rules@tree_sitter@@U?$less@USymbol@rules@tree_sitter@@@std@@V?$allocator@USymbol@rules@tree_sitter@@@5@@std@@U?$less@V?$set@USymbol@rules@tree_sitter@@U?$less@USymbol@rules@tree_sitter@@@std@@V?$allocator@USymbol@rules@tree_sitter@@@5@@std@@@2@V?$allocator@V?$set@USymbol@rules@tree_sitter@@U?$less@USymbol@rules@tree_sitter@@@std@@V?$allocator@USymbol@rules@tree_sitter@@@5@@std@@@2@$0A@@std@@@std@@IEAA?AV?$_Tree_const_iterator@V?$_Tree_val@U?$_Tree_simple_types@V?$set@USymbol@rules@tree_sitter@@U?$less@USymbol@rules@tree_sitter@@@std@@V?$allocator@USymbol@rules@tree_sitter@@@5@@std@@@std@@@std@@@1@_NPEAU?$_Tree_node@V?$set@USymbol@rules@tree_sitter@@U?$less@USymbol@rules@tree_sitter@@@std@@V?$allocator@USymbol@rules@tree_sitter@@@5@@std@@PEAX@1@AEBV?$set@USymbol@rules@tree_sitter@@U?$less@USymbol@rules@tree_sitter@@@std@@V?$allocator@USymbol@rules@tree_sitter@@@5@@1@U_Nil@1@@Z 000000018004eb10 f i compiler:extract_tokens.obj
 0001:0004de20       ??$_Uninitialized_move_al_unchecked@PEAUExternalToken@tree_sitter@@PEAU12@V?$allocator@UExternalToken@tree_sitter@@@std@@@std@@YAPEAUExternalToken@tree_sitter@@PEAU12@00AEAU?$_Wrap_alloc@V?$allocator@UExternalToken@tree_sitter@@@std@@@0@@Z 000000018004ee20 f i compiler:extract_tokens.obj
 0001:0004deb0       ??0InitialSyntaxGrammar@prepare_grammar@tree_sitter@@QEAA@AEBU012@@Z 000000018004eeb0 f i compiler:extract_tokens.obj
 0001:0004dff0       ??$_Insert_hint@AEAU?$pair@$$CBUSymbol@rules@tree_sitter@@U123@@std@@PEAU?$_Tree_node@U?$pair@$$CBUSymbol@rules@tree_sitter@@U123@@std@@PEAX@2@@?$_Tree@V?$_Tmap_traits@USymbol@rules@tree_sitter@@U123@U?$less@USymbol@rules@tree_sitter@@@std@@V?$allocator@U?$pair@$$CBUSymbol@rules@tree_sitter@@U123@@std@@@5@$0A@@std@@@std@@IEAA?AV?$_Tree_iterator@V?$_Tree_val@U?$_Tree_simple_types@U?$pair@$$CBUSymbol@rules@tree_sitter@@U123@@std@@@std@@@std@@@1@V?$_Tree_const_iterator@V?$_Tree_val@U?$_Tree_simple_types@U?$pair@$$CBUSymbol@rules@tree_sitter@@U123@@std@@@std@@@std@@@1@AEAU?$pair@$$CBUSymbol@rules@tree_sitter@@U123@@1@PEAU?$_Tree_node@U?$pair@$$CBUSymbol@rules@tree_sitter@@U123@@std@@PEAX@1@@Z 000000018004eff0 f i compiler:extract_tokens.obj
 0001:0004e280       ??$_Uninitialized_move_al_unchecked1@PEAULexicalVariable@tree_sitter@@PEAU12@V?$allocator@ULexicalVariable@tree_sitter@@@std@@@std@@YAPEAULexicalVariable@tree_sitter@@PEAU12@00AEAU?$_Wrap_alloc@V?$allocator@ULexicalVariable@tree_sitter@@@std@@@0@U_General_ptr_iterator_tag@0@U_Any_tag@0@@Z 000000018004f280 f i compiler:extract_tokens.obj
 0001:0004e320       ??$_Insert_nohint@AEAU?$pair@$$CBUSymbol@rules@tree_sitter@@U123@@std@@PEAU?$_Tree_node@U?$pair@$$CBUSymbol@rules@tree_sitter@@U123@@std@@PEAX@2@@?$_Tree@V?$_Tmap_traits@USymbol@rules@tree_sitter@@U123@U?$less@USymbol@rules@tree_sitter@@@std@@V?$allocator@U?$pair@$$CBUSymbol@rules@tree_sitter@@U123@@std@@@5@$0A@@std@@@std@@IEAA?AU?$pair@V?$_Tree_iterator@V?$_Tree_val@U?$_Tree_simple_types@U?$pair@$$CBUSymbol@rules@tree_sitter@@U123@@std@@@std@@@std@@@std@@_N@1@_NAEAU?$pair@$$CBUSymbol@rules@tree_sitter@@U123@@1@PEAU?$_Tree_node@U?$pair@$$CBUSymbol@rules@tree_sitter@@U123@@std@@PEAX@1@@Z 000000018004f320 f i compiler:extract_tokens.obj
 0001:0004e480       ?extract_simple_aliases@prepare_grammar@tree_sitter@@YA?AV?$unordered_map@USymbol@rules@tree_sitter@@UAlias@23@U?$hash@USymbol@rules@tree_sitter@@@std@@U?$equal_to@USymbol@rules@tree_sitter@@@6@V?$allocator@U?$pair@$$CBUSymbol@rules@tree_sitter@@UAlias@23@@std@@@6@@std@@PEAUSyntaxGrammar@2@PEAULexicalGrammar@2@@Z 000000018004f480 f   compiler:extract_simple_aliases.obj
 0001:0004ed60       ?_Tidy@?$vector@USymbolStatus@?1??extract_simple_aliases@prepare_grammar@tree_sitter@@YA?AV?$unordered_map@USymbol@rules@tree_sitter@@UAlias@23@U?$hash@USymbol@rules@tree_sitter@@@std@@U?$equal_to@USymbol@rules@tree_sitter@@@6@V?$allocator@U?$pair@$$CBUSymbol@rules@tree_sitter@@UAlias@23@@std@@@6@@std@@PEAUSyntaxGrammar@4@PEAULexicalGrammar@4@@Z@V?$allocator@USymbolStatus@?1??extract_simple_aliases@prepare_grammar@tree_sitter@@YA?AV?$unordered_map@USymbol@rules@tree_sitter@@UAlias@23@U?$hash@USymbol@rules@tree_sitter@@@std@@U?$equal_to@USymbol@rules@tree_sitter@@@6@V?$allocator@U?$pair@$$CBUSymbol@rules@tree_sitter@@UAlias@23@@std@@@6@@std@@PEAUSyntaxGrammar@4@PEAULexicalGrammar@4@@Z@@6@@std@@IEAAXXZ 000000018004fd60 f i compiler:extract_simple_aliases.obj
 0001:0004ee20       ??$_Uninitialized_default_fill_n@PEAUSymbolStatus@?1??extract_simple_aliases@prepare_grammar@tree_sitter@@YA?AV?$unordered_map@USymbol@rules@tree_sitter@@UAlias@23@U?$hash@USymbol@rules@tree_sitter@@@std@@U?$equal_to@USymbol@rules@tree_sitter@@@6@V?$allocator@U?$pair@$$CBUSymbol@rules@tree_sitter@@UAlias@23@@std@@@6@@std@@PEAUSyntaxGrammar@4@PEAULexicalGrammar@4@@Z@_KV?$allocator@USymbolStatus@?1??extract_simple_aliases@prepare_grammar@tree_sitter@@YA?AV?$unordered_map@USymbol@rules@tree_sitter@@UAlias@23@U?$hash@USymbol@rules@tree_sitter@@@std@@U?$equal_to@USymbol@rules@tree_sitter@@@6@V?$allocator@U?$pair@$$CBUSymbol@rules@tree_sitter@@UAlias@23@@std@@@6@@std@@PEAUSyntaxGrammar@4@PEAULexicalGrammar@4@@Z@@6@@std@@YAXPEAUSymbolStatus@?1??extract_simple_aliases@prepare_grammar@tree_sitter@@YA?AV?$unordered_map@USymbol@rules@tree_sitter@@UAlias@23@U?$hash@USymbol@rules@tree_sitter@@@std@@U?$equal_to@USymbol@rules@tree_sitter@@@6@V?$allocator@U?$pair@$$CBUSymbol@rules@tree_sitter@@UAlias@23@@std@@@6@@0@PEAUSyntaxGrammar@4@PEAULexicalGrammar@4@@Z@_KAEAU?$_Wrap_alloc@V?$allocator@USymbolStatus@?1??extract_simple_aliases@prepare_grammar@tree_sitter@@YA?AV?$unordered_map@USymbol@rules@tree_sitter@@UAlias@23@U?$hash@USymbol@rules@tree_sitter@@@std@@U?$equal_to@USymbol@rules@tree_sitter@@@6@V?$allocator@U?$pair@$$CBUSymbol@rules@tree_sitter@@UAlias@23@@std@@@6@@std@@PEAUSyntaxGrammar@4@PEAULexicalGrammar@4@@Z@@std@@@0@@Z 000000018004fe20 f i compiler:extract_simple_aliases.obj
 0001:0004eea0       ??$_Try_emplace@USymbol@rules@tree_sitter@@$$V@?$unordered_map@USymbol@rules@tree_sitter@@UAlias@23@U?$hash@USymbol@rules@tree_sitter@@@std@@U?$equal_to@USymbol@rules@tree_sitter@@@6@V?$allocator@U?$pair@$$CBUSymbol@rules@tree_sitter@@UAlias@23@@std@@@6@@std@@QEAA?AU?$pair@V?$_List_iterator@V?$_List_val@U?$_List_simple_types@U?$pair@$$CBUSymbol@rules@tree_sitter@@UAlias@23@@std@@@std@@@std@@@std@@_N@1@$$QEAUSymbol@rules@tree_sitter@@@Z 000000018004fea0 f i compiler:extract_simple_aliases.obj
 0001:0004f030       ??$_Insert@AEAU?$pair@$$CBUSymbol@rules@tree_sitter@@UAlias@23@@std@@V?$_List_unchecked_iterator@V?$_List_val@U?$_List_simple_types@U?$pair@$$CBUSymbol@rules@tree_sitter@@UAlias@23@@std@@@std@@@std@@@2@@?$_Hash@V?$_Umap_traits@USymbol@rules@tree_sitter@@UAlias@23@V?$_Uhash_compare@USymbol@rules@tree_sitter@@U?$hash@USymbol@rules@tree_sitter@@@std@@U?$equal_to@USymbol@rules@tree_sitter@@@5@@std@@V?$allocator@U?$pair@$$CBUSymbol@rules@tree_sitter@@UAlias@23@@std@@@6@$0A@@std@@@std@@IEAA?AU?$pair@V?$_List_iterator@V?$_List_val@U?$_List_simple_types@U?$pair@$$CBUSymbol@rules@tree_sitter@@UAlias@23@@std@@@std@@@std@@@std@@_N@1@AEAU?$pair@$$CBUSymbol@rules@tree_sitter@@UAlias@23@@1@V?$_List_unchecked_iterator@V?$_List_val@U?$_List_simple_types@U?$pair@$$CBUSymbol@rules@tree_sitter@@UAlias@23@@std@@@std@@@std@@@1@@Z 0000000180050030 f i compiler:extract_simple_aliases.obj
 0001:0004f180       ?_Check_size@?$_Hash@V?$_Umap_traits@USymbol@rules@tree_sitter@@UAlias@23@V?$_Uhash_compare@USymbol@rules@tree_sitter@@U?$hash@USymbol@rules@tree_sitter@@@std@@U?$equal_to@USymbol@rules@tree_sitter@@@5@@std@@V?$allocator@U?$pair@$$CBUSymbol@rules@tree_sitter@@UAlias@23@@std@@@6@$0A@@std@@@std@@IEAAXXZ 0000000180050180 f i compiler:extract_simple_aliases.obj
 0001:0004f240       ?apply@SymbolInterner@prepare_grammar@tree_sitter@@QEAA?AURule@rules@3@AEBU453@@Z 0000000180050240 f i compiler:intern_symbols.obj
 0001:0004f5d0       ?intern_symbol@SymbolInterner@prepare_grammar@tree_sitter@@QEAA?AUSymbol@rules@3@UNamedSymbol@53@@Z 00000001800505d0 f i compiler:intern_symbols.obj
 0001:0004f960       ?missing_rule_error@prepare_grammar@tree_sitter@@YA?AVCompileError@2@V?$basic_string@DU?$char_traits@D@std@@V?$allocator@D@2@@std@@@Z 0000000180050960 f   compiler:intern_symbols.obj
 0001:0004fae0       ?intern_symbols@prepare_grammar@tree_sitter@@YA?AU?$pair@UInternedGrammar@prepare_grammar@tree_sitter@@VCompileError@3@@std@@AEBUInputGrammar@2@@Z 0000000180050ae0 f   compiler:intern_symbols.obj
 0001:000507b0       ??0InternedGrammar@prepare_grammar@tree_sitter@@QEAA@XZ 00000001800517b0 f i compiler:intern_symbols.obj
 0001:00050870       ??0InternedGrammar@prepare_grammar@tree_sitter@@QEAA@AEBU012@@Z 0000000180051870 f i compiler:intern_symbols.obj
 0001:00050970       ??$accept@U?$visitor@V<lambda_8452ca6486ac337347f7b680810bbee4>@@V<lambda_f81c88b41c429266e87988eed76a39c1>@@V<lambda_bb27a681180573cfd074c3a70a66e497>@@V<lambda_d08cec9a7f4e6b1af33a9d962d1b39d0>@@V<lambda_3f9919ffae4b1858377402fc57135e56>@@V<lambda_ed17498d1052c8b458d5d66b0fba4964>@@V<lambda_a10730badb7fcaa74dbaaaf010df339e>@@V<lambda_de21cd82309b682dbb5d9fca69d4e795>@@V<lambda_ab7986862e7ab29e8f0157925176b622>@@@util@tree_sitter@@@Rule@rules@tree_sitter@@QEBA?AU012@U?$visitor@V<lambda_8452ca6486ac337347f7b680810bbee4>@@V<lambda_f81c88b41c429266e87988eed76a39c1>@@V<lambda_bb27a681180573cfd074c3a70a66e497>@@V<lambda_d08cec9a7f4e6b1af33a9d962d1b39d0>@@V<lambda_3f9919ffae4b1858377402fc57135e56>@@V<lambda_ed17498d1052c8b458d5d66b0fba4964>@@V<lambda_a10730badb7fcaa74dbaaaf010df339e>@@V<lambda_de21cd82309b682dbb5d9fca69d4e795>@@V<lambda_ab7986862e7ab29e8f0157925176b622>@@@util@2@@Z 0000000180051970 f i compiler:intern_symbols.obj
 0001:00050df0       ??$accept@U?$visitor@V<lambda_904e10c9ff6e0a8ca7217d43f4b0dec0>@@V<lambda_274e0129d2147fba2d43112541b4558c>@@@util@tree_sitter@@@Rule@rules@tree_sitter@@QEBAXU?$visitor@V<lambda_904e10c9ff6e0a8ca7217d43f4b0dec0>@@V<lambda_274e0129d2147fba2d43112541b4558c>@@@util@2@@Z 0000000180051df0 f i compiler:intern_symbols.obj
 0001:00051000       ?apply@ExpandRepeats@prepare_grammar@tree_sitter@@AEAA?AURule@rules@3@U453@@Z 0000000180052000 f i compiler:expand_repeats.obj
 0001:00051c10       ?expand_repeats@prepare_grammar@tree_sitter@@YA?AUInitialSyntaxGrammar@12@AEBU312@@Z 0000000180052c10 f   compiler:expand_repeats.obj
 0001:00052110       ??4?$vector@UVariable@tree_sitter@@V?$allocator@UVariable@tree_sitter@@@std@@@std@@QEAAAEAV01@AEBV01@@Z 0000000180053110 f i compiler:expand_repeats.obj
 0001:00052230       ?_Reserve@?$vector@U?$pair@URule@rules@tree_sitter@@USymbol@23@@std@@V?$allocator@U?$pair@URule@rules@tree_sitter@@USymbol@23@@std@@@2@@std@@IEAAX_K@Z 0000000180053230 f i compiler:expand_repeats.obj
 0001:00052300       ?_Reallocate@?$vector@U?$pair@URule@rules@tree_sitter@@USymbol@23@@std@@V?$allocator@U?$pair@URule@rules@tree_sitter@@USymbol@23@@std@@@2@@std@@IEAAX_K@Z 0000000180053300 f i compiler:expand_repeats.obj
 0001:00052480       ??$_Copy_unchecked@PEAUVariable@tree_sitter@@PEAU12@@std@@YAPEAUVariable@tree_sitter@@PEAU12@00@Z 0000000180053480 f i compiler:expand_repeats.obj
 0001:000524f0       ??$accept@U?$visitor@V<lambda_5a313c531668fca5196d1e24e0fe55cd>@@V<lambda_e5554a76183221217d7bd54021802315>@@V<lambda_cd0c5cd2548687a3130fb80bbf28aa9a>@@V<lambda_dba0bab820352726430b188e526a215c>@@V<lambda_22bd73aa615717bda0fc7f7290995512>@@V<lambda_fe7d5262ae8f621ce6dd5e7d6192dc6e>@@V<lambda_eed12d91041c2f4367f422a1d84fa922>@@@util@tree_sitter@@@Rule@rules@tree_sitter@@QEBA?AU012@U?$visitor@V<lambda_5a313c531668fca5196d1e24e0fe55cd>@@V<lambda_e5554a76183221217d7bd54021802315>@@V<lambda_cd0c5cd2548687a3130fb80bbf28aa9a>@@V<lambda_dba0bab820352726430b188e526a215c>@@V<lambda_22bd73aa615717bda0fc7f7290995512>@@V<lambda_fe7d5262ae8f621ce6dd5e7d6192dc6e>@@V<lambda_eed12d91041c2f4367f422a1d84fa922>@@@util@2@@Z 00000001800534f0 f i compiler:expand_repeats.obj
 0001:000527d0       ??$_Insert@V?$_Vector_iterator@V?$_Vector_val@U?$_Simple_types@UVariable@tree_sitter@@@std@@@std@@@std@@@?$vector@UVariable@tree_sitter@@V?$allocator@UVariable@tree_sitter@@@std@@@std@@QEAAXV?$_Vector_const_iterator@V?$_Vector_val@U?$_Simple_types@UVariable@tree_sitter@@@std@@@std@@@1@V?$_Vector_iterator@V?$_Vector_val@U?$_Simple_types@UVariable@tree_sitter@@@std@@@std@@@1@1Uforward_iterator_tag@1@@Z 00000001800537d0 f i compiler:expand_repeats.obj
 0001:00052950       ??$_Rotate_unchecked1@PEAUVariable@tree_sitter@@@std@@YAPEAUVariable@tree_sitter@@PEAU12@00Urandom_access_iterator_tag@0@@Z 0000000180053950 f i compiler:expand_repeats.obj
 0001:00052a30       ??$swap@UVariable@tree_sitter@@X@std@@YAXAEAUVariable@tree_sitter@@0@Z 0000000180053a30 f i compiler:expand_repeats.obj
 0001:00052e50       ?has_items_in_separators@LexItemSet@build_tables@tree_sitter@@QEBA_NXZ 0000000180053e50 f   compiler:lex_item.obj
 0001:00052e80       ??R?$hash@VLexItem@build_tables@tree_sitter@@@std@@QEBA_KAEBVLexItem@build_tables@tree_sitter@@@Z 0000000180053e80 f   compiler:lex_item.obj
 0001:00052f10       ??R?$hash@VLexItemSet@build_tables@tree_sitter@@@std@@QEBA_KAEBVLexItemSet@build_tables@tree_sitter@@@Z 0000000180053f10 f   compiler:lex_item.obj
 0001:00053060       ??0?$unordered_set@VLexItem@build_tables@tree_sitter@@U?$hash@VLexItem@build_tables@tree_sitter@@@std@@U?$equal_to@VLexItem@build_tables@tree_sitter@@@5@V?$allocator@VLexItem@build_tables@tree_sitter@@@5@@std@@QEAA@XZ 0000000180054060 f i compiler:lex_item.obj
 0001:000530d0       ??$accept@U?$visitor@V<lambda_0b5a907c39f2617e30914d93fc08f376>@@V<lambda_b6829f42748422708ec0a01141079ada>@@V<lambda_89935d5122ac683f1c434bddd76b26ae>@@V<lambda_610de51df643cfdf721eaa166a07c607>@@V<lambda_8a44ea6634122cd5956facd4dd9825a0>@@V<lambda_fc826022e71dc95ec3c8b68d3f9efa55>@@V<lambda_0e5e4f854cad500a8ff58d5159561200>@@@util@tree_sitter@@@Rule@rules@tree_sitter@@QEBA?AUCompletionStatus@LexItem@build_tables@2@U?$visitor@V<lambda_0b5a907c39f2617e30914d93fc08f376>@@V<lambda_b6829f42748422708ec0a01141079ada>@@V<lambda_89935d5122ac683f1c434bddd76b26ae>@@V<lambda_610de51df643cfdf721eaa166a07c607>@@V<lambda_8a44ea6634122cd5956facd4dd9825a0>@@V<lambda_fc826022e71dc95ec3c8b68d3f9efa55>@@V<lambda_0e5e4f854cad500a8ff58d5159561200>@@@util@2@@Z 00000001800540d0 f i compiler:lex_item.obj
 0001:00053260       ?lower_bound@?$_Hash@V?$_Uset_traits@VLexItem@build_tables@tree_sitter@@V?$_Uhash_compare@VLexItem@build_tables@tree_sitter@@U?$hash@VLexItem@build_tables@tree_sitter@@@std@@U?$equal_to@VLexItem@build_tables@tree_sitter@@@5@@std@@V?$allocator@VLexItem@build_tables@tree_sitter@@@5@$0A@@std@@@std@@QEBA?AV?$_List_const_iterator@V?$_List_val@U?$_List_simple_types@VLexItem@build_tables@tree_sitter@@@std@@@std@@@2@AEBVLexItem@build_tables@tree_sitter@@@Z 0000000180054260 f i compiler:lex_item.obj
 0001:00053340       utf8proc_iterate           0000000180054340 f   compiler:utf8proc.obj
 0001:000534d0       utf8proc_encode_char       00000001800544d0 f   compiler:utf8proc.obj
 0001:00053570       ??MProductionStep@tree_sitter@@QEBA_NAEBU01@@Z 0000000180054570 f   compiler:syntax_grammar.obj
 0001:000535d0       ??$equal@V?$_Vector_const_iterator@V?$_Vector_val@U?$_Simple_types@UProductionStep@tree_sitter@@@std@@@std@@@std@@V12@U?$equal_to@X@2@@std@@YA_NV?$_Vector_const_iterator@V?$_Vector_val@U?$_Simple_types@UProductionStep@tree_sitter@@@std@@@std@@@0@00U?$equal_to@X@0@@Z 00000001800545d0 f i compiler:syntax_grammar.obj
 0001:00053670       ?extract_choices@prepare_grammar@tree_sitter@@YA?AV?$vector@URule@rules@tree_sitter@@V?$allocator@URule@rules@tree_sitter@@@std@@@std@@AEBURule@rules@2@@Z 0000000180054670 f   compiler:extract_choices.obj
 0001:000541d0       ??$accept@U?$visitor@V<lambda_eaea4a66d2f9af44c3d7261b7171b028>@@V<lambda_a11e82e8ae3090ce005974f9ca8f10af>@@V<lambda_9e2c8904f64953d46f5f67d377de4b94>@@V<lambda_6036659488088b3d3bdfba426cdb17d2>@@@util@tree_sitter@@@Rule@rules@tree_sitter@@QEBA?AV?$vector@URule@rules@tree_sitter@@V?$allocator@URule@rules@tree_sitter@@@std@@@std@@U?$visitor@V<lambda_eaea4a66d2f9af44c3d7261b7171b028>@@V<lambda_a11e82e8ae3090ce005974f9ca8f10af>@@V<lambda_9e2c8904f64953d46f5f67d377de4b94>@@V<lambda_6036659488088b3d3bdfba426cdb17d2>@@@util@2@@Z 00000001800551d0 f i compiler:extract_choices.obj
 0001:00054540       ?apply@TokenDescription@prepare_grammar@tree_sitter@@AEAA?AV?$basic_string@DU?$char_traits@D@std@@V?$allocator@D@2@@std@@AEBURule@rules@3@@Z 0000000180055540 f i compiler:token_description.obj
 0001:000549c0       ?describe@TokenDescription@prepare_grammar@tree_sitter@@QEAA?AV?$basic_string@DU?$char_traits@D@std@@V?$allocator@D@2@@std@@AEBURule@rules@3@@Z 00000001800559c0 f i compiler:token_description.obj
 0001:00054c00       ??$accept@U?$visitor@V<lambda_c3d5483b2b7567d39ec6ff09f4ddab5d>@@V<lambda_a4a85bb6406456e5d8e3d7b012f13888>@@V<lambda_f2076380d1f481594e71c251b68ed567>@@V<lambda_96c40184512a5c40b577a30c23ff1e49>@@V<lambda_68342c3d778b43bd234a3bad983a1c8f>@@V<lambda_9dd1ba81f30dad94a0cd85b6d3fc2528>@@V<lambda_e58e768a5b623c34f527e5b762c401f9>@@V<lambda_98096ec860d14b3d7e7ca089d73c64a9>@@V<lambda_2ac94a9549d53e2409dae3ad04baa42c>@@@util@tree_sitter@@@Rule@rules@tree_sitter@@QEBA?AV?$basic_string@DU?$char_traits@D@std@@V?$allocator@D@2@@std@@U?$visitor@V<lambda_c3d5483b2b7567d39ec6ff09f4ddab5d>@@V<lambda_a4a85bb6406456e5d8e3d7b012f13888>@@V<lambda_f2076380d1f481594e71c251b68ed567>@@V<lambda_96c40184512a5c40b577a30c23ff1e49>@@V<lambda_68342c3d778b43bd234a3bad983a1c8f>@@V<lambda_9dd1ba81f30dad94a0cd85b6d3fc2528>@@V<lambda_e58e768a5b623c34f527e5b762c401f9>@@V<lambda_98096ec860d14b3d7e7ca089d73c64a9>@@V<lambda_2ac94a9549d53e2409dae3ad04baa42c>@@@util@2@@Z 0000000180055c00 f i compiler:token_description.obj
 0001:00054dc0       ??0ExpandTokenResult@prepare_grammar@tree_sitter@@QEAA@AEBURule@rules@2@@Z 0000000180055dc0 f i compiler:expand_tokens.obj
 0001:00054e00       ??0ExpandTokenResult@prepare_grammar@tree_sitter@@QEAA@AEBVCompileError@2@@Z 0000000180055e00 f i compiler:expand_tokens.obj
 0001:00054e40       ?expand_token@prepare_grammar@tree_sitter@@YA?AUExpandTokenResult@12@AEBURule@rules@2@@Z 0000000180055e40 f   compiler:expand_tokens.obj
 0001:00055eb0       ??$accept@U?$visitor@V<lambda_c1018a3814cd37262a218fcc01914374>@@V<lambda_68e94e20d778e7522b824e640a8d0f2c>@@V<lambda_42cd28a794d2cd5674ae0b58fc7cd167>@@V<lambda_b93a0854bc1485687b4e5c394705f171>@@V<lambda_798f411647e4640ade66b35eed4f0e29>@@V<lambda_ca717b325a853779d6006ca848d156d7>@@V<lambda_133adbc7c16db491b5e09fa3a1b147b5>@@V<lambda_db5f1cbaeea4fdc597e6af513e7c7fc0>@@@util@tree_sitter@@@Rule@rules@tree_sitter@@QEBA?AUExpandTokenResult@prepare_grammar@2@U?$visitor@V<lambda_c1018a3814cd37262a218fcc01914374>@@V<lambda_68e94e20d778e7522b824e640a8d0f2c>@@V<lambda_42cd28a794d2cd5674ae0b58fc7cd167>@@V<lambda_b93a0854bc1485687b4e5c394705f171>@@V<lambda_798f411647e4640ade66b35eed4f0e29>@@V<lambda_ca717b325a853779d6006ca848d156d7>@@V<lambda_133adbc7c16db491b5e09fa3a1b147b5>@@V<lambda_db5f1cbaeea4fdc597e6af513e7c7fc0>@@@util@2@@Z 0000000180056eb0 f i compiler:expand_tokens.obj
 0001:000561c0       ?transform_transition@TransitionBuilder@build_tables@tree_sitter@@AEAA?AUTransition@LexItemSet@23@AEBU4523@AEBV?$function@$$A6A?AURule@rules@tree_sitter@@AEBU123@@Z@std@@@Z 00000001800571c0 f i compiler:lex_item_transitions.obj
 0001:000565f0       ?add_transition@TransitionBuilder@build_tables@tree_sitter@@AEAAXPEAV?$map@UCharacterSet@rules@tree_sitter@@UTransition@LexItemSet@build_tables@3@U?$less@UCharacterSet@rules@tree_sitter@@@std@@V?$allocator@U?$pair@$$CBUCharacterSet@rules@tree_sitter@@UTransition@LexItemSet@build_tables@3@@std@@@8@@std@@UCharacterSet@rules@3@UTransition@LexItemSet@23@@Z 00000001800575f0 f i compiler:lex_item_transitions.obj
 0001:00056c60       ?apply@TransitionBuilder@build_tables@tree_sitter@@QEAAXAEBURule@rules@3@@Z 0000000180057c60 f i compiler:lex_item_transitions.obj
 0001:00057d80       ?push_back@?$vector@U?$pair@UCharacterSet@rules@tree_sitter@@UTransition@LexItemSet@build_tables@3@@std@@V?$allocator@U?$pair@UCharacterSet@rules@tree_sitter@@UTransition@LexItemSet@build_tables@3@@std@@@2@@std@@QEAAX$$QEAU?$pair@UCharacterSet@rules@tree_sitter@@UTransition@LexItemSet@build_tables@3@@2@@Z 0000000180058d80 f i compiler:lex_item_transitions.obj
 0001:00057e30       ?_Tidy@?$vector@U?$pair@UCharacterSet@rules@tree_sitter@@UTransition@LexItemSet@build_tables@3@@std@@V?$allocator@U?$pair@UCharacterSet@rules@tree_sitter@@UTransition@LexItemSet@build_tables@3@@std@@@2@@std@@IEAAXXZ 0000000180058e30 f i compiler:lex_item_transitions.obj
 0001:00057eb0       ?_Reserve@?$vector@U?$pair@UCharacterSet@rules@tree_sitter@@UTransition@LexItemSet@build_tables@3@@std@@V?$allocator@U?$pair@UCharacterSet@rules@tree_sitter@@UTransition@LexItemSet@build_tables@3@@std@@@2@@std@@IEAAX_K@Z 0000000180058eb0 f i compiler:lex_item_transitions.obj
 0001:00057f80       ?deallocate@?$_Wrap_alloc@V?$allocator@U?$pair@UCharacterSet@rules@tree_sitter@@UTransition@LexItemSet@build_tables@3@@std@@@std@@@std@@QEAAXPEAU?$pair@UCharacterSet@rules@tree_sitter@@UTransition@LexItemSet@build_tables@3@@2@_K@Z 0000000180058f80 f i compiler:lex_item_transitions.obj
 0001:00057ff0       ?_Reallocate@?$vector@U?$pair@UCharacterSet@rules@tree_sitter@@UTransition@LexItemSet@build_tables@3@@std@@V?$allocator@U?$pair@UCharacterSet@rules@tree_sitter@@UTransition@LexItemSet@build_tables@3@@std@@@2@@std@@IEAAX_K@Z 0000000180058ff0 f i compiler:lex_item_transitions.obj
 0001:00058130       ??$insert@V?$_Vector_iterator@V?$_Vector_val@U?$_Simple_types@U?$pair@UCharacterSet@rules@tree_sitter@@UTransition@LexItemSet@build_tables@3@@std@@@std@@@std@@@std@@@?$_Tree@V?$_Tmap_traits@UCharacterSet@rules@tree_sitter@@UTransition@LexItemSet@build_tables@3@U?$less@UCharacterSet@rules@tree_sitter@@@std@@V?$allocator@U?$pair@$$CBUCharacterSet@rules@tree_sitter@@UTransition@LexItemSet@build_tables@3@@std@@@8@$0A@@std@@@std@@QEAAXV?$_Vector_iterator@V?$_Vector_val@U?$_Simple_types@U?$pair@UCharacterSet@rules@tree_sitter@@UTransition@LexItemSet@build_tables@3@@std@@@std@@@std@@@1@0@Z 0000000180059130 f i compiler:lex_item_transitions.obj
 0001:00058280       ??$construct@U?$pair@UCharacterSet@rules@tree_sitter@@UTransition@LexItemSet@build_tables@3@@std@@U12@@?$_Wrap_alloc@V?$allocator@U?$pair@UCharacterSet@rules@tree_sitter@@UTransition@LexItemSet@build_tables@3@@std@@@std@@@std@@QEAAXPEAU?$pair@UCharacterSet@rules@tree_sitter@@UTransition@LexItemSet@build_tables@3@@1@$$QEAU21@@Z 0000000180059280 f i compiler:lex_item_transitions.obj
 0001:000582f0       ??$insert@PEBVLexItem@build_tables@tree_sitter@@@?$_Hash@V?$_Uset_traits@VLexItem@build_tables@tree_sitter@@V?$_Uhash_compare@VLexItem@build_tables@tree_sitter@@U?$hash@VLexItem@build_tables@tree_sitter@@@std@@U?$equal_to@VLexItem@build_tables@tree_sitter@@@5@@std@@V?$allocator@VLexItem@build_tables@tree_sitter@@@5@$0A@@std@@@std@@QEAAXPEBVLexItem@build_tables@tree_sitter@@0@Z 00000001800592f0 f i compiler:lex_item_transitions.obj
 0001:00058400       ??$accept@U?$visitor@V<lambda_3475749d8ae5986a00185f9072346efc>@@V<lambda_66caa5946417e5a3aee1e19632969822>@@V<lambda_68a2fd469da415ee41c69619fcc8587a>@@V<lambda_88d5d898976b236677dd7be1ef9d0c13>@@V<lambda_d727ff58821d8a45144379fa6aa0bf4b>@@V<lambda_467d2f0ae7d224cb410bdcf8a3a0b668>@@V<lambda_f6f01bdc16cfb7d1c050063a863ca541>@@@util@tree_sitter@@@Rule@rules@tree_sitter@@QEBAXU?$visitor@V<lambda_3475749d8ae5986a00185f9072346efc>@@V<lambda_66caa5946417e5a3aee1e19632969822>@@V<lambda_68a2fd469da415ee41c69619fcc8587a>@@V<lambda_88d5d898976b236677dd7be1ef9d0c13>@@V<lambda_d727ff58821d8a45144379fa6aa0bf4b>@@V<lambda_467d2f0ae7d224cb410bdcf8a3a0b668>@@V<lambda_f6f01bdc16cfb7d1c050063a863ca541>@@@util@2@@Z 0000000180059400 f i compiler:lex_item_transitions.obj
 0001:00058520       ??$_Insert_nohint@U?$pair@$$CBUCharacterSet@rules@tree_sitter@@UTransition@LexItemSet@build_tables@3@@std@@U_Nil@2@@?$_Tree@V?$_Tmap_traits@UCharacterSet@rules@tree_sitter@@UTransition@LexItemSet@build_tables@3@U?$less@UCharacterSet@rules@tree_sitter@@@std@@V?$allocator@U?$pair@$$CBUCharacterSet@rules@tree_sitter@@UTransition@LexItemSet@build_tables@3@@std@@@8@$0A@@std@@@std@@IEAA?AU?$pair@V?$_Tree_iterator@V?$_Tree_val@U?$_Tree_simple_types@U?$pair@$$CBUCharacterSet@rules@tree_sitter@@UTransition@LexItemSet@build_tables@3@@std@@@std@@@std@@@std@@_N@1@_N$$QEAU?$pair@$$CBUCharacterSet@rules@tree_sitter@@UTransition@LexItemSet@build_tables@3@@1@U_Nil@1@@Z 0000000180059520 f i compiler:lex_item_transitions.obj
 0001:000586d0       ??$_Insert_hint@AEAU?$pair@$$CBUCharacterSet@rules@tree_sitter@@UTransition@LexItemSet@build_tables@3@@std@@PEAU?$_Tree_node@U?$pair@$$CBUCharacterSet@rules@tree_sitter@@UTransition@LexItemSet@build_tables@3@@std@@PEAX@2@@?$_Tree@V?$_Tmap_traits@UCharacterSet@rules@tree_sitter@@UTransition@LexItemSet@build_tables@3@U?$less@UCharacterSet@rules@tree_sitter@@@std@@V?$allocator@U?$pair@$$CBUCharacterSet@rules@tree_sitter@@UTransition@LexItemSet@build_tables@3@@std@@@8@$0A@@std@@@std@@IEAA?AV?$_Tree_iterator@V?$_Tree_val@U?$_Tree_simple_types@U?$pair@$$CBUCharacterSet@rules@tree_sitter@@UTransition@LexItemSet@build_tables@3@@std@@@std@@@std@@@1@V?$_Tree_const_iterator@V?$_Tree_val@U?$_Tree_simple_types@U?$pair@$$CBUCharacterSet@rules@tree_sitter@@UTransition@LexItemSet@build_tables@3@@std@@@std@@@std@@@1@AEAU?$pair@$$CBUCharacterSet@rules@tree_sitter@@UTransition@LexItemSet@build_tables@3@@1@PEAU?$_Tree_node@U?$pair@$$CBUCharacterSet@rules@tree_sitter@@UTransition@LexItemSet@build_tables@3@@std@@PEAX@1@@Z 00000001800596d0 f i compiler:lex_item_transitions.obj
 0001:00058960       ??$_Insert_at@U?$pair@$$CBUCharacterSet@rules@tree_sitter@@UTransition@LexItemSet@build_tables@3@@std@@U_Nil@2@@?$_Tree@V?$_Tmap_traits@UCharacterSet@rules@tree_sitter@@UTransition@LexItemSet@build_tables@3@U?$less@UCharacterSet@rules@tree_sitter@@@std@@V?$allocator@U?$pair@$$CBUCharacterSet@rules@tree_sitter@@UTransition@LexItemSet@build_tables@3@@std@@@8@$0A@@std@@@std@@IEAA?AV?$_Tree_iterator@V?$_Tree_val@U?$_Tree_simple_types@U?$pair@$$CBUCharacterSet@rules@tree_sitter@@UTransition@LexItemSet@build_tables@3@@std@@@std@@@std@@@1@_NPEAU?$_Tree_node@U?$pair@$$CBUCharacterSet@rules@tree_sitter@@UTransition@LexItemSet@build_tables@3@@std@@PEAX@1@$$QEAU?$pair@$$CBUCharacterSet@rules@tree_sitter@@UTransition@LexItemSet@build_tables@3@@1@U_Nil@1@@Z 0000000180059960 f i compiler:lex_item_transitions.obj
 0001:00058cb0       ?_Target_type@?$_Func_impl@V<lambda_c93f6730e31b7ff46b07372ef2fe5f39>@@V?$allocator@H@std@@URule@rules@tree_sitter@@AEBU456@@std@@EEBAAEBVtype_info@@XZ 0000000180059cb0 f i compiler:lex_item_transitions.obj
 0001:00058cc0       ?_Do_call@?$_Func_impl@V<lambda_c93f6730e31b7ff46b07372ef2fe5f39>@@V?$allocator@H@std@@URule@rules@tree_sitter@@AEBU456@@std@@EEAA?AURule@rules@tree_sitter@@AEBU345@@Z 0000000180059cc0 f i compiler:lex_item_transitions.obj
 0001:00058cf0       ?_Copy@?$_Func_impl@V<lambda_c93f6730e31b7ff46b07372ef2fe5f39>@@V?$allocator@H@std@@URule@rules@tree_sitter@@AEBU456@@std@@EEBAPEAV?$_Func_base@URule@rules@tree_sitter@@AEBU123@@2@PEAX@Z 0000000180059cf0 f i compiler:lex_item_transitions.obj
 0001:00058cf0       ?_Move@?$_Func_impl@V<lambda_c93f6730e31b7ff46b07372ef2fe5f39>@@V?$allocator@H@std@@URule@rules@tree_sitter@@AEBU456@@std@@EEAAPEAV?$_Func_base@URule@rules@tree_sitter@@AEBU123@@2@PEAX@Z 0000000180059cf0 f i compiler:lex_item_transitions.obj
 0001:00058d10       ?_Target_type@?$_Func_impl@V<lambda_4c3586285957a0b796e110dfb3c002ee>@@V?$allocator@H@std@@URule@rules@tree_sitter@@AEBU456@@std@@EEBAAEBVtype_info@@XZ 0000000180059d10 f i compiler:lex_item_transitions.obj
 0001:00058d20       ?_Do_call@?$_Func_impl@V<lambda_4c3586285957a0b796e110dfb3c002ee>@@V?$allocator@H@std@@URule@rules@tree_sitter@@AEBU456@@std@@EEAA?AURule@rules@tree_sitter@@AEBU345@@Z 0000000180059d20 f i compiler:lex_item_transitions.obj
 0001:00058d70       ?_Copy@?$_Func_impl@V<lambda_4c3586285957a0b796e110dfb3c002ee>@@V?$allocator@H@std@@URule@rules@tree_sitter@@AEBU456@@std@@EEBAPEAV?$_Func_base@URule@rules@tree_sitter@@AEBU123@@2@PEAX@Z 0000000180059d70 f i compiler:lex_item_transitions.obj
 0001:00058d70       ?_Move@?$_Func_impl@V<lambda_4c3586285957a0b796e110dfb3c002ee>@@V?$allocator@H@std@@URule@rules@tree_sitter@@AEBU456@@std@@EEAAPEAV?$_Func_base@URule@rules@tree_sitter@@AEBU123@@2@PEAX@Z 0000000180059d70 f i compiler:lex_item_transitions.obj
 0001:00058d90       ?_Target_type@?$_Func_impl@V<lambda_c9cb3a766ef66ff55afbb57af21fa53a>@@V?$allocator@H@std@@URule@rules@tree_sitter@@AEBU456@@std@@EEBAAEBVtype_info@@XZ 0000000180059d90 f i compiler:lex_item_transitions.obj
 0001:00058da0       ?_Do_call@?$_Func_impl@V<lambda_c9cb3a766ef66ff55afbb57af21fa53a>@@V?$allocator@H@std@@URule@rules@tree_sitter@@AEBU456@@std@@EEAA?AURule@rules@tree_sitter@@AEBU345@@Z 0000000180059da0 f i compiler:lex_item_transitions.obj
 0001:00058df0       ?_Copy@?$_Func_impl@V<lambda_c9cb3a766ef66ff55afbb57af21fa53a>@@V?$allocator@H@std@@URule@rules@tree_sitter@@AEBU456@@std@@EEBAPEAV?$_Func_base@URule@rules@tree_sitter@@AEBU123@@2@PEAX@Z 0000000180059df0 f i compiler:lex_item_transitions.obj
 0001:00058df0       ?_Move@?$_Func_impl@V<lambda_c9cb3a766ef66ff55afbb57af21fa53a>@@V?$allocator@H@std@@URule@rules@tree_sitter@@AEBU456@@std@@EEAAPEAV?$_Func_base@URule@rules@tree_sitter@@AEBU123@@2@PEAX@Z 0000000180059df0 f i compiler:lex_item_transitions.obj
 0001:00058e10       ??$_Insert_at@AEAU?$pair@$$CBUCharacterSet@rules@tree_sitter@@UTransition@LexItemSet@build_tables@3@@std@@PEAU?$_Tree_node@U?$pair@$$CBUCharacterSet@rules@tree_sitter@@UTransition@LexItemSet@build_tables@3@@std@@PEAX@2@@?$_Tree@V?$_Tmap_traits@UCharacterSet@rules@tree_sitter@@UTransition@LexItemSet@build_tables@3@U?$less@UCharacterSet@rules@tree_sitter@@@std@@V?$allocator@U?$pair@$$CBUCharacterSet@rules@tree_sitter@@UTransition@LexItemSet@build_tables@3@@std@@@8@$0A@@std@@@std@@IEAA?AV?$_Tree_iterator@V?$_Tree_val@U?$_Tree_simple_types@U?$pair@$$CBUCharacterSet@rules@tree_sitter@@UTransition@LexItemSet@build_tables@3@@std@@@std@@@std@@@1@_NPEAU?$_Tree_node@U?$pair@$$CBUCharacterSet@rules@tree_sitter@@UTransition@LexItemSet@build_tables@3@@std@@PEAX@1@AEAU?$pair@$$CBUCharacterSet@rules@tree_sitter@@UTransition@LexItemSet@build_tables@3@@1@1@Z 0000000180059e10 f i compiler:lex_item_transitions.obj
 0001:000590c0       ??$_Insert_nohint@AEAU?$pair@$$CBUCharacterSet@rules@tree_sitter@@UTransition@LexItemSet@build_tables@3@@std@@PEAU?$_Tree_node@U?$pair@$$CBUCharacterSet@rules@tree_sitter@@UTransition@LexItemSet@build_tables@3@@std@@PEAX@2@@?$_Tree@V?$_Tmap_traits@UCharacterSet@rules@tree_sitter@@UTransition@LexItemSet@build_tables@3@U?$less@UCharacterSet@rules@tree_sitter@@@std@@V?$allocator@U?$pair@$$CBUCharacterSet@rules@tree_sitter@@UTransition@LexItemSet@build_tables@3@@std@@@8@$0A@@std@@@std@@IEAA?AU?$pair@V?$_Tree_iterator@V?$_Tree_val@U?$_Tree_simple_types@U?$pair@$$CBUCharacterSet@rules@tree_sitter@@UTransition@LexItemSet@build_tables@3@@std@@@std@@@std@@@std@@_N@1@_NAEAU?$pair@$$CBUCharacterSet@rules@tree_sitter@@UTransition@LexItemSet@build_tables@3@@1@PEAU?$_Tree_node@U?$pair@$$CBUCharacterSet@rules@tree_sitter@@UTransition@LexItemSet@build_tables@3@@std@@PEAX@1@@Z 000000018005a0c0 f i compiler:lex_item_transitions.obj
 0001:00059280       ??$_Uninitialized_move_al_unchecked1@PEAU?$pair@UCharacterSet@rules@tree_sitter@@UTransition@LexItemSet@build_tables@3@@std@@PEAU12@V?$allocator@U?$pair@UCharacterSet@rules@tree_sitter@@UTransition@LexItemSet@build_tables@3@@std@@@2@@std@@YAPEAU?$pair@UCharacterSet@rules@tree_sitter@@UTransition@LexItemSet@build_tables@3@@0@PEAU10@00AEAU?$_Wrap_alloc@V?$allocator@U?$pair@UCharacterSet@rules@tree_sitter@@UTransition@LexItemSet@build_tables@3@@std@@@std@@@0@U_General_ptr_iterator_tag@0@U_Any_tag@0@@Z 000000018005a280 f i compiler:lex_item_transitions.obj
 0001:00059320       ??$_Invoke_ret@URule@rules@tree_sitter@@AEAV<lambda_c93f6730e31b7ff46b07372ef2fe5f39>@@AEBU123@@std@@YA?AURule@rules@tree_sitter@@U?$_Forced@URule@rules@tree_sitter@@$0A@@0@AEAV<lambda_c93f6730e31b7ff46b07372ef2fe5f39>@@AEBU123@@Z 000000018005a320 f i compiler:lex_item_transitions.obj
 0001:00059430       ?stoi@std@@YAHAEBV?$basic_string@DU?$char_traits@D@std@@V?$allocator@D@2@@1@PEA_KH@Z 000000018005a430 f i compiler:parse_regex.obj
 0001:000594b0       ?rule@PatternParser@prepare_grammar@tree_sitter@@QEAA?AU?$pair@URule@rules@tree_sitter@@VCompileError@3@@std@@_N@Z 000000018005a4b0 f i compiler:parse_regex.obj
 0001:00059840       ?term@PatternParser@prepare_grammar@tree_sitter@@AEAA?AU?$pair@URule@rules@tree_sitter@@VCompileError@3@@std@@_N@Z 000000018005a840 f i compiler:parse_regex.obj
 0001:00059d10       ?factor@PatternParser@prepare_grammar@tree_sitter@@AEAA?AU?$pair@URule@rules@tree_sitter@@VCompileError@3@@std@@XZ 000000018005ad10 f i compiler:parse_regex.obj
 0001:0005a730       ?atom@PatternParser@prepare_grammar@tree_sitter@@AEAA?AU?$pair@URule@rules@tree_sitter@@VCompileError@3@@std@@XZ 000000018005b730 f i compiler:parse_regex.obj
 0001:0005aad0       ?char_set@PatternParser@prepare_grammar@tree_sitter@@AEAA?AU?$pair@UCharacterSet@rules@tree_sitter@@VCompileError@3@@std@@XZ 000000018005bad0 f i compiler:parse_regex.obj
 0001:0005af50       ?single_char@PatternParser@prepare_grammar@tree_sitter@@AEAA?AUCharacterSet@rules@3@XZ 000000018005bf50 f i compiler:parse_regex.obj
 0001:0005b140       ?escaped_char@PatternParser@prepare_grammar@tree_sitter@@AEAA?AUCharacterSet@rules@3@I@Z 000000018005c140 f i compiler:parse_regex.obj
 0001:0005b880       ?next@PatternParser@prepare_grammar@tree_sitter@@AEAAXXZ 000000018005c880 f i compiler:parse_regex.obj
 0001:0005b8d0       ?has_more_input@PatternParser@prepare_grammar@tree_sitter@@AEAA_NXZ 000000018005c8d0 f i compiler:parse_regex.obj
 0001:0005b8f0       ?error@PatternParser@prepare_grammar@tree_sitter@@AEAA?AU?$pair@URule@rules@tree_sitter@@VCompileError@3@@std@@V?$basic_string@DU?$char_traits@D@std@@V?$allocator@D@2@@5@@Z 000000018005c8f0 f i compiler:parse_regex.obj
 0001:0005b9e0       ?parse_regex@prepare_grammar@tree_sitter@@YA?AU?$pair@URule@rules@tree_sitter@@VCompileError@3@@std@@AEBV?$basic_string@DU?$char_traits@D@std@@V?$allocator@D@2@@4@@Z 000000018005c9e0 f   compiler:parse_regex.obj
 0001:0005bb40       ??1?$pair@UCharacterSet@rules@tree_sitter@@VCompileError@3@@std@@QEAA@XZ 000000018005cb40 f i compiler:parse_regex.obj
 0001:0005bba0       ?_Construct_n@?$vector@URule@rules@tree_sitter@@V?$allocator@URule@rules@tree_sitter@@@std@@@std@@QEAAX_KPEBURule@rules@tree_sitter@@@Z 000000018005cba0 f i compiler:parse_regex.obj
 0001:0005bc60       ??$?0AEAUCharacterSet@rules@tree_sitter@@VCompileError@2@X$0A@@?$pair@URule@rules@tree_sitter@@VCompileError@3@@std@@QEAA@AEAUCharacterSet@rules@tree_sitter@@$$QEAVCompileError@4@@Z 000000018005cc60 f i compiler:parse_regex.obj
 0001:0005bc60       ??$?0UCharacterSet@rules@tree_sitter@@VCompileError@2@X$0A@@?$pair@URule@rules@tree_sitter@@VCompileError@3@@std@@QEAA@$$QEAUCharacterSet@rules@tree_sitter@@$$QEAVCompileError@4@@Z 000000018005cc60 f i compiler:parse_regex.obj
 0001:0005bcb0       ??$_Insert@V?$_Vector_iterator@V?$_Vector_val@U?$_Simple_types@URule@rules@tree_sitter@@@std@@@std@@@std@@@?$vector@URule@rules@tree_sitter@@V?$allocator@URule@rules@tree_sitter@@@std@@@std@@QEAAXV?$_Vector_const_iterator@V?$_Vector_val@U?$_Simple_types@URule@rules@tree_sitter@@@std@@@std@@@1@V?$_Vector_iterator@V?$_Vector_val@U?$_Simple_types@URule@rules@tree_sitter@@@std@@@std@@@1@1Uforward_iterator_tag@1@@Z 000000018005ccb0 f i compiler:parse_regex.obj
 0001:0005bec0       ??$_Ucopy@V?$_Vector_iterator@V?$_Vector_val@U?$_Simple_types@URule@rules@tree_sitter@@@std@@@std@@@std@@@?$vector@URule@rules@tree_sitter@@V?$allocator@URule@rules@tree_sitter@@@std@@@std@@IEAAPEAURule@rules@tree_sitter@@V?$_Vector_iterator@V?$_Vector_val@U?$_Simple_types@URule@rules@tree_sitter@@@std@@@std@@@1@0PEAU234@@Z 000000018005cec0 f i compiler:parse_regex.obj
 0001:0005bf20       ??$_Rotate_unchecked@PEAURule@rules@tree_sitter@@@std@@YAPEAURule@rules@tree_sitter@@PEAU123@00@Z 000000018005cf20 f i compiler:parse_regex.obj
 0001:0005bfc0       ??$_Reverse_unchecked@PEAURule@rules@tree_sitter@@@std@@YAXPEAURule@rules@tree_sitter@@0@Z 000000018005cfc0 f i compiler:parse_regex.obj
 0001:0005c0e0       ?rule_can_be_blank@build_tables@tree_sitter@@YA_NAEBURule@rules@2@@Z 000000018005d0e0 f   compiler:rule_can_be_blank.obj
 0001:0005c230       ??$accept@U?$visitor@V<lambda_efe5aa9a08a94b41d58997af3d356c3e>@@V<lambda_7a2c52e312b8ac10a9a001f82d30a828>@@V<lambda_0a94182fbad51a0ea3587cb0d7e04cec>@@V<lambda_09e40493d009cdaaae033bedcdb14c95>@@V<lambda_484b52f9179eb7af53865280f4acbf0a>@@V<lambda_12f38aa54f5bbcfb2452071e3319f205>@@V<lambda_ce4c7646a737fb557a8f7987ccc086fc>@@@util@tree_sitter@@@Rule@rules@tree_sitter@@QEBA_NU?$visitor@V<lambda_efe5aa9a08a94b41d58997af3d356c3e>@@V<lambda_7a2c52e312b8ac10a9a001f82d30a828>@@V<lambda_0a94182fbad51a0ea3587cb0d7e04cec>@@V<lambda_09e40493d009cdaaae033bedcdb14c95>@@V<lambda_484b52f9179eb7af53865280f4acbf0a>@@V<lambda_12f38aa54f5bbcfb2452071e3319f205>@@V<lambda_ce4c7646a737fb557a8f7987ccc086fc>@@@util@2@@Z 000000018005d230 f i compiler:rule_can_be_blank.obj
 0001:0005c42c       __imp_load_?Value@External@v8@@QEBAPEAXXZ 000000018005d42c f   node:node.exe
 0001:0005c438       __tailMerge_node_exe       000000018005d438 f i node:node.exe
 0001:0005c4b1       __imp_load_?New@External@v8@@SA?AV?$Local@VExternal@v8@@@2@PEAVIsolate@2@PEAX@Z 000000018005d4b1 f   node:node.exe
 0001:0005c4bd       __imp_load_?GetCurrentContext@Isolate@v8@@QEAA?AV?$Local@VContext@v8@@@2@XZ 000000018005d4bd f   node:node.exe
 0001:0005c4c9       __imp_load_?GetCurrent@Isolate@v8@@SAPEAV12@XZ 000000018005d4c9 f   node:node.exe
 0001:0005c4d5       __imp_load_?CreateHandle@HandleScope@v8@@KAPEAPEAVObject@internal@2@PEAVIsolate@42@PEAV342@@Z 000000018005d4d5 f   node:node.exe
 0001:0005c4e1       __imp_load_?CreateHandle@HandleScope@v8@@CAPEAPEAVObject@internal@2@PEAVHeapObject@42@PEAV342@@Z 000000018005d4e1 f   node:node.exe
 0001:0005c4ed       __imp_load_??1HandleScope@v8@@QEAA@XZ 000000018005d4ed f   node:node.exe
 0001:0005c4f9       __imp_load_?GetFunction@FunctionTemplate@v8@@QEAA?AV?$Local@VFunction@v8@@@2@XZ 000000018005d4f9 f   node:node.exe
 0001:0005c505       __imp_load_?New@FunctionTemplate@v8@@SA?AV?$Local@VFunctionTemplate@v8@@@2@PEAVIsolate@2@P6AXAEBV?$FunctionCallbackInfo@VValue@v8@@@2@@ZV?$Local@VValue@v8@@@2@V?$Local@VSignature@v8@@@2@H@Z 000000018005d505 f   node:node.exe
 0001:0005c511       __imp_load_?ToLocalEmpty@V8@v8@@CAXXZ 000000018005d511 f   node:node.exe
 0001:0005c51d       __imp_load_?Escape@EscapableHandleScope@v8@@AEAAPEAPEAVObject@internal@2@PEAPEAV342@@Z 000000018005d51d f   node:node.exe
 0001:0005c529       __imp_load_??0EscapableHandleScope@v8@@QEAA@PEAVIsolate@1@@Z 000000018005d529 f   node:node.exe
 0001:0005c535       __imp_load_?NewFromUtf8@String@v8@@SA?AV?$MaybeLocal@VString@v8@@@2@PEAVIsolate@2@PEBDW4NewStringType@2@H@Z 000000018005d535 f   node:node.exe
 0001:0005c541       __imp_load_?SlowGetInternalField@Object@v8@@AEAA?AV?$Local@VValue@v8@@@2@H@Z 000000018005d541 f   node:node.exe
 0001:0005c54d       __imp_load_?SetInternalField@Object@v8@@QEAAXHV?$Local@VValue@v8@@@2@@Z 000000018005d54d f   node:node.exe
 0001:0005c559       __imp_load_?Set@Object@v8@@QEAA_NV?$Local@VValue@v8@@@2@0@Z 000000018005d559 f   node:node.exe
 0001:0005c565       __imp_load_?SetInternalFieldCount@ObjectTemplate@v8@@QEAAXH@Z 000000018005d565 f   node:node.exe
 0001:0005c571       __imp_load_?NewInstance@ObjectTemplate@v8@@QEAA?AV?$MaybeLocal@VObject@v8@@@2@V?$Local@VContext@v8@@@2@@Z 000000018005d571 f   node:node.exe
 0001:0005c57d       __imp_load_?New@ObjectTemplate@v8@@SA?AV?$Local@VObjectTemplate@v8@@@2@PEAVIsolate@2@V?$Local@VFunctionTemplate@v8@@@2@@Z 000000018005d57d f   node:node.exe
 0001:0005c589       __imp_load_node_module_register 000000018005d589 f   node:node.exe
 0001:0005c595       __imp_load_?ThrowException@Isolate@v8@@QEAA?AV?$Local@VValue@v8@@@2@V32@@Z 000000018005d595 f   node:node.exe
 0001:0005c5a1       __imp_load_?Error@Exception@v8@@SA?AV?$Local@VValue@v8@@@2@V?$Local@VString@v8@@@2@@Z 000000018005d5a1 f   node:node.exe
 0001:0005c5ad       __imp_load_?BooleanValue@Value@v8@@QEBA_NXZ 000000018005d5ad f   node:node.exe
 0001:0005c5b9       __imp_load_??1Utf8Value@String@v8@@QEAA@XZ 000000018005d5b9 f   node:node.exe
 0001:0005c5c5       __imp_load_??0Utf8Value@String@v8@@QEAA@V?$Local@VValue@v8@@@2@@Z 000000018005d5c5 f   node:node.exe
 0001:0005c5d1       __imp_load_??0HandleScope@v8@@QEAA@PEAVIsolate@1@@Z 000000018005d5d1 f   node:node.exe
 0001:0005c5dd       __imp_load_?SetClassName@FunctionTemplate@v8@@QEAAXV?$Local@VString@v8@@@2@@Z 000000018005d5dd f   node:node.exe
 0001:0005c5e9       __imp_load_?InstanceTemplate@FunctionTemplate@v8@@QEAA?AV?$Local@VObjectTemplate@v8@@@2@XZ 000000018005d5e9 f   node:node.exe
 0001:0005c5f5       __imp_load_?DisposeGlobal@V8@v8@@CAXPEAPEAVObject@internal@2@@Z 000000018005d5f5 f   node:node.exe
 0001:0005c601       __imp_load_?GlobalizeReference@V8@v8@@CAPEAPEAVObject@internal@2@PEAVIsolate@42@PEAPEAV342@@Z 000000018005d601 f   node:node.exe
 0001:0005c60d       __imp_load_?SetAlignedPointerInInternalField@Object@v8@@QEAAXHPEAX@Z 000000018005d60d f   node:node.exe
 0001:0005c619       __imp_load_uv_dlsym        000000018005d619 f   node:node.exe
 0001:0005c625       __imp_load_uv_dlopen       000000018005d625 f   node:node.exe
 0001:0005c631       __imp_load_uv_dlerror      000000018005d631 f   node:node.exe
 0001:0005c63d       __imp_load_?NewInstance@Function@v8@@QEBA?AV?$MaybeLocal@VObject@v8@@@2@V?$Local@VContext@v8@@@2@@Z 000000018005d63d f   node:node.exe
 0001:0005c649       __imp_load_?ReferenceError@Exception@v8@@SA?AV?$Local@VValue@v8@@@2@V?$Local@VString@v8@@@2@@Z 000000018005d649 f   node:node.exe
 0001:0005c655       __imp_load_?ToObject@Value@v8@@QEBA?AV?$MaybeLocal@VObject@v8@@@2@V?$Local@VContext@v8@@@2@@Z 000000018005d655 f   node:node.exe
 0001:0005c661       __imp_load_?IsObject@Value@v8@@QEBA_NXZ 000000018005d661 f   node:node.exe
 0001:0005c66d       __imp_load_?WriteUtf8@String@v8@@QEBAHPEADHPEAHH@Z 000000018005d66d f   node:node.exe
 0001:0005c679       __imp_load_?Length@String@v8@@QEBAHXZ 000000018005d679 f   node:node.exe
 0001:0005c685       __imp_load_?New@Object@v8@@SA?AV?$Local@VObject@v8@@@2@PEAVIsolate@2@@Z 000000018005d685 f   node:node.exe
 0001:0005c691       __imp_load_?HasRealNamedProperty@Object@v8@@QEAA_NV?$Local@VString@v8@@@2@@Z 000000018005d691 f   node:node.exe
 0001:0005c69d       __imp_load_?SetHandler@ObjectTemplate@v8@@QEAAXAEBUNamedPropertyHandlerConfiguration@2@@Z 000000018005d69d f   node:node.exe
 0001:0005c6a9       __imp_load_?ToString@Value@v8@@QEBA?AV?$Local@VString@v8@@@2@XZ 000000018005d6a9 f   node:node.exe
 0001:0005c6b8       ??0bad_alloc@std@@QEAA@AEBV01@@Z 000000018005d6b8 f i libcpmt:xthrow.obj
 0001:0005c6f8       ??0bad_alloc@std@@QEAA@XZ  000000018005d6f8 f i libcpmt:xthrow.obj
 0001:0005c718       ??0bad_function_call@std@@QEAA@AEBV01@@Z 000000018005d718 f i libcpmt:xthrow.obj
 0001:0005c758       ??0bad_function_call@std@@QEAA@XZ 000000018005d758 f i libcpmt:xthrow.obj
 0001:0005c770       ??0exception@std@@QEAA@AEBV01@@Z 000000018005d770 f i libcpmt:xthrow.obj
 0001:0005c7a8       ??0invalid_argument@std@@QEAA@AEBV01@@Z 000000018005d7a8 f i libcpmt:xthrow.obj
 0001:0005c7e8       ??0invalid_argument@std@@QEAA@PEBD@Z 000000018005d7e8 f i libcpmt:xthrow.obj
 0001:0005c834       ??0length_error@std@@QEAA@AEBV01@@Z 000000018005d834 f i libcpmt:xthrow.obj
 0001:0005c874       ??0length_error@std@@QEAA@PEBD@Z 000000018005d874 f i libcpmt:xthrow.obj
 0001:0005c8c0       ??0logic_error@std@@QEAA@AEBV01@@Z 000000018005d8c0 f i libcpmt:xthrow.obj
 0001:0005c900       ??0out_of_range@std@@QEAA@AEBV01@@Z 000000018005d900 f i libcpmt:xthrow.obj
 0001:0005c940       ??0out_of_range@std@@QEAA@PEBD@Z 000000018005d940 f i libcpmt:xthrow.obj
 0001:0005c98c       ??1length_error@std@@UEAA@XZ 000000018005d98c f i libcpmt:xthrow.obj
 0001:0005c98c       ??1invalid_argument@std@@UEAA@XZ 000000018005d98c f i libcpmt:xthrow.obj
 0001:0005c98c       ??1bad_array_new_length@std@@UEAA@XZ 000000018005d98c f i LIBCMT:throw_bad_alloc.obj
 0001:0005c98c       ??1out_of_range@std@@UEAA@XZ 000000018005d98c f i libcpmt:xthrow.obj
 0001:0005c98c       ??1bad_alloc@std@@UEAA@XZ  000000018005d98c f i libcpmt:xthrow.obj
 0001:0005c98c       ??1bad_function_call@std@@UEAA@XZ 000000018005d98c f i libcpmt:xthrow.obj
 0001:0005c9a0       ?__scrt_throw_std_bad_alloc@@YAXXZ 000000018005d9a0 f   LIBCMT:throw_bad_alloc.obj
 0001:0005c9a0       ?_Xbad_alloc@std@@YAXXZ    000000018005d9a0 f   libcpmt:xthrow.obj
 0001:0005c9c0       ?_Xbad_function_call@std@@YAXXZ 000000018005d9c0 f   libcpmt:xthrow.obj
 0001:0005c9e0       ?_Xinvalid_argument@std@@YAXPEBD@Z 000000018005d9e0 f   libcpmt:xthrow.obj
 0001:0005ca04       ?_Xlength_error@std@@YAXPEBD@Z 000000018005da04 f   libcpmt:xthrow.obj
 0001:0005ca28       ?_Xout_of_range@std@@YAXPEBD@Z 000000018005da28 f   libcpmt:xthrow.obj
 0001:0005ca4c       ?what@bad_function_call@std@@UEBAPEBDXZ 000000018005da4c f i libcpmt:xthrow.obj
 0001:0005ca54       ?what@exception@std@@UEBAPEBDXZ 000000018005da54 f i libcpmt:xthrow.obj
 0001:0005ca80       __security_check_cookie    000000018005da80 f   LIBCMT:_amdsecgs_.obj
 0001:0005caa4       ??2@YAPEAX_K@Z             000000018005daa4 f   LIBCMT:new_scalar.obj
 0001:0005cae0       __scrt_acquire_startup_lock 000000018005dae0 f   LIBCMT:utility.obj
 0001:0005cb1c       __scrt_dllmain_after_initialize_c 000000018005db1c f   LIBCMT:utility.obj
 0001:0005cb50       __scrt_dllmain_before_initialize_c 000000018005db50 f   LIBCMT:utility.obj
 0001:0005cb68       __scrt_dllmain_crt_thread_attach 000000018005db68 f   LIBCMT:utility.obj
 0001:0005cb90       __scrt_dllmain_crt_thread_detach 000000018005db90 f   LIBCMT:utility.obj
 0001:0005cba8       __scrt_dllmain_exception_filter 000000018005dba8 f   LIBCMT:utility.obj
 0001:0005cc0c       __scrt_dllmain_uninitialize_c 000000018005dc0c f   LIBCMT:utility.obj
 0001:0005cc3c       __scrt_dllmain_uninitialize_critical 000000018005dc3c f   LIBCMT:utility.obj
 0001:0005cc50       __scrt_initialize_crt      000000018005dc50 f   LIBCMT:utility.obj
 0001:0005cc9c       __scrt_initialize_onexit_tables 000000018005dc9c f   LIBCMT:utility.obj
 0001:0005cd68       __scrt_is_nonwritable_in_current_image 000000018005dd68 f   LIBCMT:utility.obj
 0001:0005ce04       __scrt_release_startup_lock 000000018005de04 f   LIBCMT:utility.obj
 0001:0005ce28       __scrt_uninitialize_crt    000000018005de28 f   LIBCMT:utility.obj
 0001:0005ce54       _onexit                    000000018005de54 f   LIBCMT:utility.obj
 0001:0005cea4       atexit                     000000018005dea4 f   LIBCMT:utility.obj
 0001:0005d208       _DllMainCRTStartup         000000018005e208 f   LIBCMT:dll_dllmain.obj
 0001:0005d248       ??3@YAXPEAX_K@Z            000000018005e248 f   LIBCMT:delete_scalar_size.obj
 0001:0005d250       ??_Gtype_info@@UEAAPEAXI@Z 000000018005e250 f i LIBCMT:std_type_info_static.obj
 0001:0005d250       ??_Etype_info@@UEAAPEAXI@Z 000000018005e250 f i LIBCMT:std_type_info_static.obj
 0001:0005d3c4       _Init_thread_footer        000000018005e3c4 f   LIBCMT:thread_safe_statics.obj
 0001:0005d424       _Init_thread_header        000000018005e424 f   LIBCMT:thread_safe_statics.obj
 0001:0005d48c       _Init_thread_notify        000000018005e48c f   LIBCMT:thread_safe_statics.obj
 0001:0005d4e8       _Init_thread_wait          000000018005e4e8 f   LIBCMT:thread_safe_statics.obj
 0001:0005d580       __raise_securityfailure    000000018005e580 f   LIBCMT:gs_report.obj
 0001:0005d5b4       __report_gsfailure         000000018005e5b4 f   LIBCMT:gs_report.obj
 0001:0005d688       __report_rangecheckfailure 000000018005e688 f   LIBCMT:gs_report.obj
 0001:0005d69c       __report_securityfailure   000000018005e69c f   LIBCMT:gs_report.obj
 0001:0005d81c       ??0bad_array_new_length@std@@QEAA@AEBV01@@Z 000000018005e81c f i LIBCMT:throw_bad_alloc.obj
 0001:0005d85c       ??0bad_array_new_length@std@@QEAA@XZ 000000018005e85c f i LIBCMT:throw_bad_alloc.obj
 0001:0005d87c       ??_Elength_error@std@@UEAAPEAXI@Z 000000018005e87c f i libcpmt:xthrow.obj
 0001:0005d87c       ??_Eexception@std@@UEAAPEAXI@Z 000000018005e87c f i libcpmt:xthrow.obj
 0001:0005d87c       ??_Einvalid_argument@std@@UEAAPEAXI@Z 000000018005e87c f i libcpmt:xthrow.obj
 0001:0005d87c       ??_Glogic_error@std@@UEAAPEAXI@Z 000000018005e87c f i libcpmt:xthrow.obj
 0001:0005d87c       ??_Gout_of_range@std@@UEAAPEAXI@Z 000000018005e87c f i libcpmt:xthrow.obj
 0001:0005d87c       ??_Ebad_alloc@std@@UEAAPEAXI@Z 000000018005e87c f i libcpmt:xthrow.obj
 0001:0005d87c       ??_Gbad_alloc@std@@UEAAPEAXI@Z 000000018005e87c f i libcpmt:xthrow.obj
 0001:0005d87c       ??_Gbad_array_new_length@std@@UEAAPEAXI@Z 000000018005e87c f i LIBCMT:throw_bad_alloc.obj
 0001:0005d87c       ??_Gexception@std@@UEAAPEAXI@Z 000000018005e87c f i libcpmt:xthrow.obj
 0001:0005d87c       ??_Ebad_array_new_length@std@@UEAAPEAXI@Z 000000018005e87c f i LIBCMT:throw_bad_alloc.obj
 0001:0005d87c       ??_Eout_of_range@std@@UEAAPEAXI@Z 000000018005e87c f i libcpmt:xthrow.obj
 0001:0005d87c       ??_Ginvalid_argument@std@@UEAAPEAXI@Z 000000018005e87c f i libcpmt:xthrow.obj
 0001:0005d87c       ??_Ebad_function_call@std@@UEAAPEAXI@Z 000000018005e87c f i libcpmt:xthrow.obj
 0001:0005d87c       ??_Glength_error@std@@UEAAPEAXI@Z 000000018005e87c f i libcpmt:xthrow.obj
 0001:0005d87c       ??_Elogic_error@std@@UEAAPEAXI@Z 000000018005e87c f i libcpmt:xthrow.obj
 0001:0005d87c       ??_Gbad_function_call@std@@UEAAPEAXI@Z 000000018005e87c f i libcpmt:xthrow.obj
 0001:0005d8c0       ?__scrt_throw_std_bad_array_new_length@@YAXXZ 000000018005e8c0 f   LIBCMT:throw_bad_alloc.obj
 0001:0005d8e0       __isa_available_init       000000018005e8e0 f   LIBCMT:_cpu_disp_.obj
 0001:0005daa8       _get_startup_argv_mode     000000018005eaa8 f   LIBCMT:argv_mode.obj
 0001:0005daa8       DllMain                    000000018005eaa8 f   LIBCMT:dll_dllmain_stub.obj
 0001:0005dab0       __scrt_is_ucrt_dll_in_use  000000018005eab0 f   LIBCMT:ucrt_detection.obj
 0001:0005dabc       __crt_debugger_hook        000000018005eabc f   LIBCMT:utility_desktop.obj
 0001:0005dac4       __scrt_fastfail            000000018005eac4 f   LIBCMT:utility_desktop.obj
 0001:0005dc0c       _guard_check_icall         000000018005ec0c f i LIBCMT:checkcfg.obj
 0001:0005dc14       __security_init_cookie     000000018005ec14 f   LIBCMT:gs_support.obj
 0001:0005dcc0       ?__scrt_initialize_type_info@@YAXXZ 000000018005ecc0 f   LIBCMT:tncleanup.obj
 0001:0005dcd0       ?__scrt_uninitialize_type_info@@YAXXZ 000000018005ecd0 f   LIBCMT:tncleanup.obj
 0001:0005dcdc       __local_stdio_scanf_options 000000018005ecdc f i LIBCMT:default_local_stdio_options.obj
 0001:0005dce4       __scrt_initialize_default_local_stdio_options 000000018005ece4 f   LIBCMT:default_local_stdio_options.obj
 0001:0005dd00       __scrt_get_dyn_tls_init_callback 000000018005ed00 f   LIBCMT:dyn_tls_init.obj
 0001:0005dd08       _RTC_Initialize            000000018005ed08 f   LIBCMT:_initsect_.obj
 0001:0005dd54       _RTC_Terminate             000000018005ed54 f   LIBCMT:_initsect_.obj
 0001:0005ddb0       memmove                    000000018005edb0 f   libvcruntime:memcpy.obj
 0001:0005ddb0       memcpy                     000000018005edb0 f   libvcruntime:memcpy.obj
 0001:0005e1e8       _purecall                  000000018005f1e8 f   libvcruntime:purevirt.obj
 0001:0005e224       memchr                     000000018005f224 f   libvcruntime:memchr.obj
 0001:0005e240       __std_exception_copy       000000018005f240 f   libvcruntime:std_exception.obj
 0001:0005e2d0       __std_exception_destroy    000000018005f2d0 f   libvcruntime:std_exception.obj
 0001:0005e2f8       _CxxThrowException         000000018005f2f8 f   libvcruntime:throw.obj
 0001:0005e3d0       __vcrt_initialize          000000018005f3d0 f   libvcruntime:initialization.obj
 0001:0005e404       __vcrt_thread_attach       000000018005f404 f   libvcruntime:initialization.obj
 0001:0005e418       __vcrt_thread_detach       000000018005f418 f   libvcruntime:initialization.obj
 0001:0005e42c       __vcrt_uninitialize        000000018005f42c f   libvcruntime:initialization.obj
 0001:0005e44c       __vcrt_uninitialize_critical 000000018005f44c f   libvcruntime:initialization.obj
 0001:0005e45c       __C_specific_handler       000000018005f45c f   libvcruntime:_chandler_.obj
 0001:0005e820       __vcrt_FlsAlloc            000000018005f820 f   libvcruntime:winapi_downlevel.obj
 0001:0005e874       __vcrt_FlsFree             000000018005f874 f   libvcruntime:winapi_downlevel.obj
 0001:0005e8c8       __vcrt_FlsGetValue         000000018005f8c8 f   libvcruntime:winapi_downlevel.obj
 0001:0005e91c       __vcrt_FlsSetValue         000000018005f91c f   libvcruntime:winapi_downlevel.obj
 0001:0005e984       __vcrt_InitializeCriticalSectionEx 000000018005f984 f   libvcruntime:winapi_downlevel.obj
 0001:0005e9fc       __vcrt_initialize_winapi_thunks 000000018005f9fc f   libvcruntime:winapi_downlevel.obj
 0001:0005ea48       __vcrt_uninitialize_winapi_thunks 000000018005fa48 f   libvcruntime:winapi_downlevel.obj
 0001:0005eaa0       memset                     000000018005faa0 f   libvcruntime:memset.obj
 0001:0005ec40       __std_type_info_destroy_list 000000018005fc40 f   libvcruntime:std_type_info.obj
 0001:0005ec6c       __vcrt_initialize_pure_virtual_call_handler 000000018005fc6c f   libvcruntime:purevirt_data.obj
 0001:0005ec90       __vcrt_freefls             000000018005fc90 f   libvcruntime:per_thread_data.obj
 0001:0005ecb0       __vcrt_freeptd             000000018005fcb0 f   libvcruntime:per_thread_data.obj
 0001:0005ed00       __vcrt_getptd_noexit       000000018005fd00 f   libvcruntime:per_thread_data.obj
 0001:0005edb8       __vcrt_initialize_ptd      000000018005fdb8 f   libvcruntime:per_thread_data.obj
 0001:0005edf8       __vcrt_uninitialize_ptd    000000018005fdf8 f   libvcruntime:per_thread_data.obj
 0001:0005ee1c       __vcrt_initialize_locks    000000018005fe1c f   libvcruntime:locks.obj
 0001:0005ee64       __vcrt_uninitialize_locks  000000018005fe64 f   libvcruntime:locks.obj
 0001:0005eeb0       _local_unwind              000000018005feb0 f   libvcruntime:_jmpuwind_.obj
 0001:0005eee0       _NLG_Notify                000000018005fee0 f   libvcruntime:_jmpuwind_.obj
 0001:0005ef00       __NLG_Dispatch2            000000018005ff00 f   libvcruntime:_jmpuwind_.obj
 0001:0005ef10       __NLG_Return2              000000018005ff10 f   libvcruntime:_jmpuwind_.obj
 0001:0005ef14       __acrt_initialize_stdio    000000018005ff14 f   libucrt:_file.obj
 0001:0005f034       __acrt_iob_func            0000000180060034 f   libucrt:_file.obj
 0001:0005f048       __acrt_uninitialize_stdio  0000000180060048 f   libucrt:_file.obj
 0001:0005f0a4       _lock_file                 00000001800600a4 f   libucrt:_file.obj
 0001:0005f0b0       _unlock_file               00000001800600b0 f   libucrt:_file.obj
 0001:0005f0bc       __acrt_call_reportfault    00000001800600bc f   libucrt:invalid_parameter.obj
 0001:0005f218       __acrt_initialize_invalid_parameter_handler 0000000180060218 f   libucrt:invalid_parameter.obj
 0001:0005f220       _invalid_parameter         0000000180060220 f   libucrt:invalid_parameter.obj
 0001:0005f2c8       _invalid_parameter_noinfo  00000001800602c8 f   libucrt:invalid_parameter.obj
 0001:0005f2e8       _invalid_parameter_noinfo_noreturn 00000001800602e8 f   libucrt:invalid_parameter.obj
 0001:0005f318       _invoke_watson             0000000180060318 f   libucrt:invalid_parameter.obj
 0001:0005f360       free                       0000000180060360 f   libucrt:free.obj
 0001:0005fd50       ??$ftprintf@PEAU_iobuf@@PEB_WAEBQEB_WAEBQEB_WAEBI@?$__crt_char_traits@_W@@SAH$$QEAPEAU_iobuf@@$$QEAPEB_WAEBQEB_W2AEBI@Z 0000000180060d50 f i libucrt:assert.obj
 0001:0005fd78       _wassert                   0000000180060d78 f   libucrt:assert.obj
 0001:0005fdfc       fwprintf                   0000000180060dfc f i libucrt:assert.obj
 0001:0005fe40       swprintf                   0000000180060e40 f i libucrt:assert.obj
 0001:0005fe94       malloc                     0000000180060e94 f   libucrt:malloc.obj
 0001:0005fe9c       ??0_LocaleUpdate@@QEAA@QEAU__crt_locale_pointers@@@Z 0000000180060e9c f i libucrt:stricmp.obj
 0001:0005ff2c       __ascii_stricmp            0000000180060f2c f   libucrt:stricmp.obj
 0001:0005ff68       _stricmp                   0000000180060f68 f   libucrt:stricmp.obj
 0001:0005ffb0       _stricmp_l                 0000000180060fb0 f   libucrt:stricmp.obj
 0001:00060064       ??$?RV<lambda_7b91131dde12e1c3dfc74ff76b3f2eac>@@AEAV<lambda_dd75445284c072d0bd3768540cc698fa>@@V<lambda_16bc4ecb55b4718497c16bceaea2ceaf>@@@?$__crt_seh_guarded_call@H@@QEAAH$$QEAV<lambda_7b91131dde12e1c3dfc74ff76b3f2eac>@@AEAV<lambda_dd75445284c072d0bd3768540cc698fa>@@$$QEAV<lambda_16bc4ecb55b4718497c16bceaea2ceaf>@@@Z 0000000180061064 f i libucrt:output.obj
 0001:000600a4       ??$?RV<lambda_aa279a7bcb127014629d5b1d62c7325d>@@AEAV<lambda_0a64b6a4deda75c01876f29c44fc5eb3>@@V<lambda_3323e69fbefe9d1a11713e670d47cdfa>@@@?$__crt_seh_guarded_call@H@@QEAAH$$QEAV<lambda_aa279a7bcb127014629d5b1d62c7325d>@@AEAV<lambda_0a64b6a4deda75c01876f29c44fc5eb3>@@$$QEAV<lambda_3323e69fbefe9d1a11713e670d47cdfa>@@@Z 00000001800610a4 f i libucrt:output.obj
 0001:000600e4       ??$ensure_buffer_is_big_enough@D@formatting_buffer@__crt_stdio_output@@QEAA_N_K@Z 00000001800610e4 f i libucrt:output.obj
 0001:00060190       ??$is_wide_character_specifier@D@__crt_stdio_output@@YA_N_KDW4length_modifier@0@@Z 0000000180061190 f i libucrt:output.obj
 0001:000601c0       ??$is_wide_character_specifier@_W@__crt_stdio_output@@YA_N_K_WW4length_modifier@0@@Z 00000001800611c0 f i libucrt:output.obj
 0001:00060204       ??$type_case_integer_parse_into_buffer@I@?$output_processor@DV?$string_output_adapter@D@__crt_stdio_output@@V?$standard_base@DV?$string_output_adapter@D@__crt_stdio_output@@@2@@__crt_stdio_output@@AEAAXII_N@Z 0000000180061204 f i libucrt:output.obj
 0001:00060204       ??$type_case_integer_parse_into_buffer@I@?$output_processor@DV?$stream_output_adapter@D@__crt_stdio_output@@V?$standard_base@DV?$stream_output_adapter@D@__crt_stdio_output@@@2@@__crt_stdio_output@@AEAAXII_N@Z 0000000180061204 f i libucrt:output.obj
 0001:00060204       ??$type_case_integer_parse_into_buffer@I@?$output_processor@_WV?$string_output_adapter@_W@__crt_stdio_output@@V?$standard_base@_WV?$string_output_adapter@_W@__crt_stdio_output@@@2@@__crt_stdio_output@@AEAAXII_N@Z 0000000180061204 f i libucrt:output.obj
 0001:00060204       ??$type_case_integer_parse_into_buffer@I@?$output_processor@_WV?$stream_output_adapter@_W@__crt_stdio_output@@V?$standard_base@_WV?$stream_output_adapter@_W@__crt_stdio_output@@@2@@__crt_stdio_output@@AEAAXII_N@Z 0000000180061204 f i libucrt:output.obj
 0001:000602a0       ??$type_case_integer_parse_into_buffer@_K@?$output_processor@_WV?$string_output_adapter@_W@__crt_stdio_output@@V?$standard_base@_WV?$string_output_adapter@_W@__crt_stdio_output@@@2@@__crt_stdio_output@@AEAAX_KI_N@Z 00000001800612a0 f i libucrt:output.obj
 0001:000602a0       ??$type_case_integer_parse_into_buffer@_K@?$output_processor@DV?$string_output_adapter@D@__crt_stdio_output@@V?$standard_base@DV?$string_output_adapter@D@__crt_stdio_output@@@2@@__crt_stdio_output@@AEAAX_KI_N@Z 00000001800612a0 f i libucrt:output.obj
 0001:000602a0       ??$type_case_integer_parse_into_buffer@_K@?$output_processor@DV?$stream_output_adapter@D@__crt_stdio_output@@V?$standard_base@DV?$stream_output_adapter@D@__crt_stdio_output@@@2@@__crt_stdio_output@@AEAAX_KI_N@Z 00000001800612a0 f i libucrt:output.obj
 0001:000602a0       ??$type_case_integer_parse_into_buffer@_K@?$output_processor@_WV?$stream_output_adapter@_W@__crt_stdio_output@@V?$standard_base@_WV?$stream_output_adapter@_W@__crt_stdio_output@@@2@@__crt_stdio_output@@AEAAX_KI_N@Z 00000001800612a0 f i libucrt:output.obj
 0001:0006033c       ??$write_multiple_characters@V?$stream_output_adapter@D@__crt_stdio_output@@D@__crt_stdio_output@@YAXAEBV?$stream_output_adapter@D@0@DHQEAH@Z 000000018006133c f i libucrt:output.obj
 0001:000603c0       ??$write_multiple_characters@V?$stream_output_adapter@_W@__crt_stdio_output@@D@__crt_stdio_output@@YAXAEBV?$stream_output_adapter@_W@0@DHQEAH@Z 00000001800613c0 f i libucrt:output.obj
 0001:00060450       ??$write_multiple_characters@V?$string_output_adapter@D@__crt_stdio_output@@D@__crt_stdio_output@@YAXAEBV?$string_output_adapter@D@0@DHQEAH@Z 0000000180061450 f i libucrt:output.obj
 0001:000604ac       ??$write_multiple_characters@V?$string_output_adapter@_W@__crt_stdio_output@@D@__crt_stdio_output@@YAXAEBV?$string_output_adapter@_W@0@DHQEAH@Z 00000001800614ac f i libucrt:output.obj
 0001:0006051c       ??0?$output_processor@DV?$stream_output_adapter@D@__crt_stdio_output@@V?$standard_base@DV?$stream_output_adapter@D@__crt_stdio_output@@@2@@__crt_stdio_output@@QEAA@AEBV?$stream_output_adapter@D@1@_KQEBDQEAU__crt_locale_pointers@@QEAD@Z 000000018006151c f i libucrt:output.obj
 0001:0006051c       ??0?$output_processor@DV?$string_output_adapter@D@__crt_stdio_output@@V?$standard_base@DV?$string_output_adapter@D@__crt_stdio_output@@@2@@__crt_stdio_output@@QEAA@AEBV?$string_output_adapter@D@1@_KQEBDQEAU__crt_locale_pointers@@QEAD@Z 000000018006151c f i libucrt:output.obj
 0001:00060598       ??0?$output_processor@_WV?$string_output_adapter@_W@__crt_stdio_output@@V?$standard_base@_WV?$string_output_adapter@_W@__crt_stdio_output@@@2@@__crt_stdio_output@@QEAA@AEBV?$string_output_adapter@_W@1@_KQEB_WQEAU__crt_locale_pointers@@QEAD@Z 0000000180061598 f i libucrt:output.obj
 0001:00060598       ??0?$output_processor@_WV?$stream_output_adapter@_W@__crt_stdio_output@@V?$standard_base@_WV?$stream_output_adapter@_W@__crt_stdio_output@@@2@@__crt_stdio_output@@QEAA@AEBV?$stream_output_adapter@_W@1@_KQEB_WQEAU__crt_locale_pointers@@QEAD@Z 0000000180061598 f i libucrt:output.obj
 0001:000607f8       ?force_decimal_point@__crt_stdio_output@@YAXPEADQEAU__crt_locale_pointers@@@Z 00000001800617f8 f i libucrt:output.obj
 0001:00060868       ?parse_int_from_format_string@?$output_processor@DV?$string_output_adapter@D@__crt_stdio_output@@V?$standard_base@DV?$string_output_adapter@D@__crt_stdio_output@@@2@@__crt_stdio_output@@AEAA_NQEAH@Z 0000000180061868 f i libucrt:output.obj
 0001:00060868       ?parse_int_from_format_string@?$output_processor@DV?$stream_output_adapter@D@__crt_stdio_output@@V?$standard_base@DV?$stream_output_adapter@D@__crt_stdio_output@@@2@@__crt_stdio_output@@AEAA_NQEAH@Z 0000000180061868 f i libucrt:output.obj
 0001:000608ec       ?parse_int_from_format_string@?$output_processor@_WV?$string_output_adapter@_W@__crt_stdio_output@@V?$standard_base@_WV?$string_output_adapter@_W@__crt_stdio_output@@@2@@__crt_stdio_output@@AEAA_NQEAH@Z 00000001800618ec f i libucrt:output.obj
 0001:000608ec       ?parse_int_from_format_string@?$output_processor@_WV?$stream_output_adapter@_W@__crt_stdio_output@@V?$standard_base@_WV?$stream_output_adapter@_W@__crt_stdio_output@@@2@@__crt_stdio_output@@AEAA_NQEAH@Z 00000001800618ec f i libucrt:output.obj
 0001:0006096c       ?process@?$output_processor@DV?$stream_output_adapter@D@__crt_stdio_output@@V?$standard_base@DV?$stream_output_adapter@D@__crt_stdio_output@@@2@@__crt_stdio_output@@QEAAHXZ 000000018006196c f i libucrt:output.obj
 0001:00060b7c       ?process@?$output_processor@DV?$string_output_adapter@D@__crt_stdio_output@@V?$standard_base@DV?$string_output_adapter@D@__crt_stdio_output@@@2@@__crt_stdio_output@@QEAAHXZ 0000000180061b7c f i libucrt:output.obj
 0001:00060d80       ?process@?$output_processor@_WV?$stream_output_adapter@_W@__crt_stdio_output@@V?$standard_base@_WV?$stream_output_adapter@_W@__crt_stdio_output@@@2@@__crt_stdio_output@@QEAAHXZ 0000000180061d80 f i libucrt:output.obj
 0001:00060ff8       ?process@?$output_processor@_WV?$string_output_adapter@_W@__crt_stdio_output@@V?$standard_base@_WV?$string_output_adapter@_W@__crt_stdio_output@@@2@@__crt_stdio_output@@QEAAHXZ 0000000180061ff8 f i libucrt:output.obj
 0001:00061274       ?state_case_normal@?$output_processor@DV?$stream_output_adapter@D@__crt_stdio_output@@V?$standard_base@DV?$stream_output_adapter@D@__crt_stdio_output@@@2@@__crt_stdio_output@@AEAA_NXZ 0000000180062274 f i libucrt:output.obj
 0001:000612e4       ?state_case_normal@?$output_processor@DV?$string_output_adapter@D@__crt_stdio_output@@V?$standard_base@DV?$string_output_adapter@D@__crt_stdio_output@@@2@@__crt_stdio_output@@AEAA_NXZ 00000001800622e4 f i libucrt:output.obj
 0001:00061358       ?state_case_normal_tchar@?$output_processor@DV?$stream_output_adapter@D@__crt_stdio_output@@V?$standard_base@DV?$stream_output_adapter@D@__crt_stdio_output@@@2@@__crt_stdio_output@@AEAA_ND@Z 0000000180062358 f i libucrt:output.obj
 0001:000613ec       ?state_case_normal_tchar@?$output_processor@DV?$string_output_adapter@D@__crt_stdio_output@@V?$standard_base@DV?$string_output_adapter@D@__crt_stdio_output@@@2@@__crt_stdio_output@@AEAA_ND@Z 00000001800623ec f i libucrt:output.obj
 0001:00061484       ?state_case_size@?$output_processor@DV?$stream_output_adapter@D@__crt_stdio_output@@V?$standard_base@DV?$stream_output_adapter@D@__crt_stdio_output@@@2@@__crt_stdio_output@@AEAA_NXZ 0000000180062484 f i libucrt:output.obj
 0001:00061600       ?state_case_size@?$output_processor@DV?$string_output_adapter@D@__crt_stdio_output@@V?$standard_base@DV?$string_output_adapter@D@__crt_stdio_output@@@2@@__crt_stdio_output@@AEAA_NXZ 0000000180062600 f i libucrt:output.obj
 0001:0006177c       ?state_case_size@?$output_processor@_WV?$stream_output_adapter@_W@__crt_stdio_output@@V?$standard_base@_WV?$stream_output_adapter@_W@__crt_stdio_output@@@2@@__crt_stdio_output@@AEAA_NXZ 000000018006277c f i libucrt:output.obj
 0001:00061920       ?state_case_size@?$output_processor@_WV?$string_output_adapter@_W@__crt_stdio_output@@V?$standard_base@_WV?$string_output_adapter@_W@__crt_stdio_output@@@2@@__crt_stdio_output@@AEAA_NXZ 0000000180062920 f i libucrt:output.obj
 0001:00061ac4       ?state_case_type@?$output_processor@DV?$stream_output_adapter@D@__crt_stdio_output@@V?$standard_base@DV?$stream_output_adapter@D@__crt_stdio_output@@@2@@__crt_stdio_output@@AEAA_NXZ 0000000180062ac4 f i libucrt:output.obj
 0001:00061d40       ?state_case_type@?$output_processor@DV?$string_output_adapter@D@__crt_stdio_output@@V?$standard_base@DV?$string_output_adapter@D@__crt_stdio_output@@@2@@__crt_stdio_output@@AEAA_NXZ 0000000180062d40 f i libucrt:output.obj
 0001:00061fbc       ?state_case_type@?$output_processor@_WV?$stream_output_adapter@_W@__crt_stdio_output@@V?$standard_base@_WV?$stream_output_adapter@_W@__crt_stdio_output@@@2@@__crt_stdio_output@@AEAA_NXZ 0000000180062fbc f i libucrt:output.obj
 0001:00062288       ?state_case_type@?$output_processor@_WV?$string_output_adapter@_W@__crt_stdio_output@@V?$standard_base@_WV?$string_output_adapter@_W@__crt_stdio_output@@@2@@__crt_stdio_output@@AEAA_NXZ 0000000180063288 f i libucrt:output.obj
 0001:00062554       ?type_case_Z@?$output_processor@DV?$stream_output_adapter@D@__crt_stdio_output@@V?$standard_base@DV?$stream_output_adapter@D@__crt_stdio_output@@@2@@__crt_stdio_output@@AEAA_NXZ 0000000180063554 f i libucrt:output.obj
 0001:00062554       ?type_case_Z@?$output_processor@DV?$string_output_adapter@D@__crt_stdio_output@@V?$standard_base@DV?$string_output_adapter@D@__crt_stdio_output@@@2@@__crt_stdio_output@@AEAA_NXZ 0000000180063554 f i libucrt:output.obj
 0001:000625d4       ?type_case_Z@?$output_processor@_WV?$stream_output_adapter@_W@__crt_stdio_output@@V?$standard_base@_WV?$stream_output_adapter@_W@__crt_stdio_output@@@2@@__crt_stdio_output@@AEAA_NXZ 00000001800635d4 f i libucrt:output.obj
 0001:000625d4       ?type_case_Z@?$output_processor@_WV?$string_output_adapter@_W@__crt_stdio_output@@V?$standard_base@_WV?$string_output_adapter@_W@__crt_stdio_output@@@2@@__crt_stdio_output@@AEAA_NXZ 00000001800635d4 f i libucrt:output.obj
 0001:00062654       ?type_case_a@?$output_processor@DV?$string_output_adapter@D@__crt_stdio_output@@V?$standard_base@DV?$string_output_adapter@D@__crt_stdio_output@@@2@@__crt_stdio_output@@AEAA_NXZ 0000000180063654 f i libucrt:output.obj
 0001:00062654       ?type_case_a@?$output_processor@DV?$stream_output_adapter@D@__crt_stdio_output@@V?$standard_base@DV?$stream_output_adapter@D@__crt_stdio_output@@@2@@__crt_stdio_output@@AEAA_NXZ 0000000180063654 f i libucrt:output.obj
 0001:00062870       ?type_case_a@?$output_processor@_WV?$string_output_adapter@_W@__crt_stdio_output@@V?$standard_base@_WV?$string_output_adapter@_W@__crt_stdio_output@@@2@@__crt_stdio_output@@AEAA_NXZ 0000000180063870 f i libucrt:output.obj
 0001:00062870       ?type_case_a@?$output_processor@_WV?$stream_output_adapter@_W@__crt_stdio_output@@V?$standard_base@_WV?$stream_output_adapter@_W@__crt_stdio_output@@@2@@__crt_stdio_output@@AEAA_NXZ 0000000180063870 f i libucrt:output.obj
 0001:00062ab4       ?type_case_c_tchar@?$output_processor@DV?$string_output_adapter@D@__crt_stdio_output@@V?$standard_base@DV?$string_output_adapter@D@__crt_stdio_output@@@2@@__crt_stdio_output@@AEAA_ND@Z 0000000180063ab4 f i libucrt:output.obj
 0001:00062ab4       ?type_case_c_tchar@?$output_processor@DV?$stream_output_adapter@D@__crt_stdio_output@@V?$standard_base@DV?$stream_output_adapter@D@__crt_stdio_output@@@2@@__crt_stdio_output@@AEAA_ND@Z 0000000180063ab4 f i libucrt:output.obj
 0001:00062b68       ?type_case_c_tchar@?$output_processor@_WV?$string_output_adapter@_W@__crt_stdio_output@@V?$standard_base@_WV?$string_output_adapter@_W@__crt_stdio_output@@@2@@__crt_stdio_output@@AEAA_N_W@Z 0000000180063b68 f i libucrt:output.obj
 0001:00062b68       ?type_case_c_tchar@?$output_processor@_WV?$stream_output_adapter@_W@__crt_stdio_output@@V?$standard_base@_WV?$stream_output_adapter@_W@__crt_stdio_output@@@2@@__crt_stdio_output@@AEAA_N_W@Z 0000000180063b68 f i libucrt:output.obj
 0001:00062c10       ?type_case_integer@?$output_processor@DV?$string_output_adapter@D@__crt_stdio_output@@V?$standard_base@DV?$string_output_adapter@D@__crt_stdio_output@@@2@@__crt_stdio_output@@AEAA_NI_N@Z 0000000180063c10 f i libucrt:output.obj
 0001:00062c10       ?type_case_integer@?$output_processor@_WV?$stream_output_adapter@_W@__crt_stdio_output@@V?$standard_base@_WV?$stream_output_adapter@_W@__crt_stdio_output@@@2@@__crt_stdio_output@@AEAA_NI_N@Z 0000000180063c10 f i libucrt:output.obj
 0001:00062c10       ?type_case_integer@?$output_processor@DV?$stream_output_adapter@D@__crt_stdio_output@@V?$standard_base@DV?$stream_output_adapter@D@__crt_stdio_output@@@2@@__crt_stdio_output@@AEAA_NI_N@Z 0000000180063c10 f i libucrt:output.obj
 0001:00062c10       ?type_case_integer@?$output_processor@_WV?$string_output_adapter@_W@__crt_stdio_output@@V?$standard_base@_WV?$string_output_adapter@_W@__crt_stdio_output@@@2@@__crt_stdio_output@@AEAA_NI_N@Z 0000000180063c10 f i libucrt:output.obj
 0001:00062db0       ?type_case_n@?$output_processor@_WV?$stream_output_adapter@_W@__crt_stdio_output@@V?$standard_base@_WV?$stream_output_adapter@_W@__crt_stdio_output@@@2@@__crt_stdio_output@@AEAA_NXZ 0000000180063db0 f i libucrt:output.obj
 0001:00062db0       ?type_case_n@?$output_processor@_WV?$string_output_adapter@_W@__crt_stdio_output@@V?$standard_base@_WV?$string_output_adapter@_W@__crt_stdio_output@@@2@@__crt_stdio_output@@AEAA_NXZ 0000000180063db0 f i libucrt:output.obj
 0001:00062db0       ?type_case_n@?$output_processor@DV?$stream_output_adapter@D@__crt_stdio_output@@V?$standard_base@DV?$stream_output_adapter@D@__crt_stdio_output@@@2@@__crt_stdio_output@@AEAA_NXZ 0000000180063db0 f i libucrt:output.obj
 0001:00062db0       ?type_case_n@?$output_processor@DV?$string_output_adapter@D@__crt_stdio_output@@V?$standard_base@DV?$string_output_adapter@D@__crt_stdio_output@@@2@@__crt_stdio_output@@AEAA_NXZ 0000000180063db0 f i libucrt:output.obj
 0001:00062e8c       ?type_case_s@?$output_processor@DV?$stream_output_adapter@D@__crt_stdio_output@@V?$standard_base@DV?$stream_output_adapter@D@__crt_stdio_output@@@2@@__crt_stdio_output@@AEAA_NXZ 0000000180063e8c f i libucrt:output.obj
 0001:00062e8c       ?type_case_s@?$output_processor@DV?$string_output_adapter@D@__crt_stdio_output@@V?$standard_base@DV?$string_output_adapter@D@__crt_stdio_output@@@2@@__crt_stdio_output@@AEAA_NXZ 0000000180063e8c f i libucrt:output.obj
 0001:00062f1c       ?type_case_s@?$output_processor@_WV?$stream_output_adapter@_W@__crt_stdio_output@@V?$standard_base@_WV?$stream_output_adapter@_W@__crt_stdio_output@@@2@@__crt_stdio_output@@AEAA_NXZ 0000000180063f1c f i libucrt:output.obj
 0001:00062f1c       ?type_case_s@?$output_processor@_WV?$string_output_adapter@_W@__crt_stdio_output@@V?$standard_base@_WV?$string_output_adapter@_W@__crt_stdio_output@@@2@@__crt_stdio_output@@AEAA_NXZ 0000000180063f1c f i libucrt:output.obj
 0001:00062fe4       ?validate_stream_is_ansi_if_required@?$__acrt_stdio_char_traits@D@@SA_NQEAU_iobuf@@@Z 0000000180063fe4 f i libucrt:output.obj
 0001:00063070       ?write_stored_string_tchar@?$output_processor@DV?$stream_output_adapter@D@__crt_stdio_output@@V?$standard_base@DV?$stream_output_adapter@D@__crt_stdio_output@@@2@@__crt_stdio_output@@AEAA_ND@Z 0000000180064070 f i libucrt:output.obj
 0001:00063148       ?write_stored_string_tchar@?$output_processor@DV?$string_output_adapter@D@__crt_stdio_output@@V?$standard_base@DV?$string_output_adapter@D@__crt_stdio_output@@@2@@__crt_stdio_output@@AEAA_ND@Z 0000000180064148 f i libucrt:output.obj
 0001:00063220       ?write_stored_string_tchar@?$output_processor@_WV?$stream_output_adapter@_W@__crt_stdio_output@@V?$standard_base@_WV?$stream_output_adapter@_W@__crt_stdio_output@@@2@@__crt_stdio_output@@AEAA_N_W@Z 0000000180064220 f i libucrt:output.obj
 0001:0006330c       ?write_stored_string_tchar@?$output_processor@_WV?$string_output_adapter@_W@__crt_stdio_output@@V?$standard_base@_WV?$string_output_adapter@_W@__crt_stdio_output@@@2@@__crt_stdio_output@@AEAA_N_W@Z 000000018006430c f i libucrt:output.obj
 0001:000633fc       ?write_string@?$stream_output_adapter@D@__crt_stdio_output@@QEBAXQEBDHQEAH1@Z 00000001800643fc f i libucrt:output.obj
 0001:000634f4       ?write_string@?$stream_output_adapter@_W@__crt_stdio_output@@QEBAXQEB_WHQEAH1@Z 00000001800644f4 f i libucrt:output.obj
 0001:00063600       ?write_string@?$string_output_adapter@D@__crt_stdio_output@@QEBAXQEBDHQEAH1@Z 0000000180064600 f i libucrt:output.obj
 0001:000636bc       ?write_string@?$string_output_adapter@_W@__crt_stdio_output@@QEBAXQEB_WHQEAH1@Z 00000001800646bc f i libucrt:output.obj
 0001:0006377c       __stdio_common_vfprintf    000000018006477c f   libucrt:output.obj
 0001:00063808       __stdio_common_vfwprintf   0000000180064808 f   libucrt:output.obj
 0001:00063894       __stdio_common_vsprintf    0000000180064894 f   libucrt:output.obj
 0001:00063ac8       __stdio_common_vswprintf   0000000180064ac8 f   libucrt:output.obj
 0001:00063d00       ??$?RV<lambda_a81aa23bb2c9577c1e55b9d0b57d9de4>@@AEAV<lambda_9a20e10065b92b5193c3597a66cba9d4>@@V<lambda_cb3a421ff86d8a5f008440ee6b28fa9c>@@@?$__crt_seh_guarded_call@H@@QEAAH$$QEAV<lambda_a81aa23bb2c9577c1e55b9d0b57d9de4>@@AEAV<lambda_9a20e10065b92b5193c3597a66cba9d4>@@$$QEAV<lambda_cb3a421ff86d8a5f008440ee6b28fa9c>@@@Z 0000000180064d00 f i libucrt:fputs.obj
 0001:00063dac       fputs                      0000000180064dac f   libucrt:fputs.obj
 0001:00063eac       ??$?RV<lambda_5d4c3fee44080f75d5d9762853974fe0>@@AEAV<lambda_532e024f4337e6fc7ad266c2bef9f4ed>@@V<lambda_c87bdc10097eb2402edb8ba9bdf0697b>@@@?$__crt_seh_guarded_call@_K@@QEAA_K$$QEAV<lambda_5d4c3fee44080f75d5d9762853974fe0>@@AEAV<lambda_532e024f4337e6fc7ad266c2bef9f4ed>@@$$QEAV<lambda_c87bdc10097eb2402edb8ba9bdf0697b>@@@Z 0000000180064eac f i libucrt:fwrite.obj
 0001:00063f50       _fwrite_nolock             0000000180064f50 f   libucrt:fwrite.obj
 0001:000640ec       fwrite                     00000001800650ec f   libucrt:fwrite.obj
 0001:00064170       _isleadbyte_l              0000000180065170 f i libucrt:_wctype.obj
 0001:000641b0       iswalpha                   00000001800651b0 f i libucrt:_wctype.obj
 0001:000641bc       iswdigit                   00000001800651bc f i libucrt:_wctype.obj
 0001:000641c8       calloc                     00000001800651c8 f   libucrt:calloc.obj
 0001:000641d0       isdigit                    00000001800651d0 f i libucrt:_ctype.obj
 0001:00064244       __acrt_errno_from_os_error 0000000180065244 f   libucrt:errno.obj
 0001:0006428c       __acrt_errno_map_os_error  000000018006528c f   libucrt:errno.obj
 0001:000642dc       __doserrno                 00000001800652dc f   libucrt:errno.obj
 0001:000642fc       _errno                     00000001800652fc f   libucrt:errno.obj
 0001:0006431c       ??$is_overflow_condition@K@__crt_strtox@@YA_NIK@Z 000000018006531c f i libucrt:strtox.obj
 0001:00064348       ??$make_c_string_character_source@_WPEAPEA_W@__crt_strtox@@YA?AV?$c_string_character_source@_W@0@QEB_WQEAPEA_W@Z 0000000180065348 f i libucrt:strtox.obj
 0001:00064348       ??$make_c_string_character_source@DPEAPEAD@__crt_strtox@@YA?AV?$c_string_character_source@D@0@QEBDQEAPEAD@Z 0000000180065348 f i libucrt:strtox.obj
 0001:0006435c       ??$parse_integer@KV?$c_string_character_source@D@__crt_strtox@@@__crt_strtox@@YAKQEAU__crt_locale_pointers@@V?$c_string_character_source@D@0@H_N@Z 000000018006535c f i libucrt:strtox.obj
 0001:00064670       ??$parse_integer@KV?$c_string_character_source@_W@__crt_strtox@@@__crt_strtox@@YAKQEAU__crt_locale_pointers@@V?$c_string_character_source@_W@0@H_N@Z 0000000180065670 f i libucrt:strtox.obj
 0001:00064d44       strtol                     0000000180065d44 f   libucrt:strtox.obj
 0001:00064d74       wcstol                     0000000180065d74 f   libucrt:strtox.obj
 0001:00064da4       __acrt_initialize_new_handler 0000000180065da4 f   libucrt:new_handler.obj
 0001:00064dac       _callnewh                  0000000180065dac f   libucrt:new_handler.obj
 0001:00064dec       _query_new_handler         0000000180065dec f   libucrt:new_handler.obj
 0001:00064e20       _seh_filter_dll            0000000180065e20 f   libucrt:exception_filter.obj
 0001:00064e34       _seh_filter_exe            0000000180065e34 f   libucrt:exception_filter.obj
 0001:000651f4       __acrt_initialize_thread_local_exit_callback 00000001800661f4 f   libucrt:exit.obj
 0001:000651fc       _cexit                     00000001800661fc f   libucrt:exit.obj
 0001:0006520c       _exit                      000000018006620c f   libucrt:exit.obj
 0001:00065218       _is_c_termination_complete 0000000180066218 f   libucrt:exit.obj
 0001:000653dc       __acrt_allocate_buffer_for_argv 00000001800663dc f   libucrt:argv_parsing.obj
 0001:00065440       _configure_narrow_argv     0000000180066440 f   libucrt:argv_parsing.obj
 0001:0006579c       __dcrt_uninitialize_environments_nolock 000000018006679c f   libucrt:environment_initialization.obj
 0001:000657d4       _initialize_narrow_environment 00000001800667d4 f   libucrt:environment_initialization.obj
 0001:000657dc       ??$?RV<lambda_b8c45f8f788dd370798f47cfe8ac3a86>@@AEAV<lambda_4e60a939b0d047cfe11ddc22648dfba9>@@V<lambda_332c3edc96d0294ec56c57d38c1cdfd5>@@@?$__crt_seh_guarded_call@H@@QEAAH$$QEAV<lambda_b8c45f8f788dd370798f47cfe8ac3a86>@@AEAV<lambda_4e60a939b0d047cfe11ddc22648dfba9>@@$$QEAV<lambda_332c3edc96d0294ec56c57d38c1cdfd5>@@@Z 00000001800667dc f i libucrt:onexit.obj
 0001:00065818       ??$?RV<lambda_e24bbb7b643b32fcea6fa61b31d4c984>@@AEAV<lambda_275893d493268fdec8709772e3fcec0e>@@V<lambda_9d71df4d7cf3f480f8d633942495c3b0>@@@?$__crt_seh_guarded_call@H@@QEAAH$$QEAV<lambda_e24bbb7b643b32fcea6fa61b31d4c984>@@AEAV<lambda_275893d493268fdec8709772e3fcec0e>@@$$QEAV<lambda_9d71df4d7cf3f480f8d633942495c3b0>@@@Z 0000000180066818 f i libucrt:onexit.obj
 0001:00065b94       _crt_atexit                0000000180066b94 f   libucrt:onexit.obj
 0001:00065ba4       _execute_onexit_table      0000000180066ba4 f   libucrt:onexit.obj
 0001:00065be0       _initialize_onexit_table   0000000180066be0 f   libucrt:onexit.obj
 0001:00065c20       _register_onexit_function  0000000180066c20 f   libucrt:onexit.obj
 0001:00065ca0       __acrt_uninitialize_command_line 0000000180066ca0 f   libucrt:argv_data.obj
 0001:00065da0       __acrt_initialize          0000000180066da0 f   libucrt:initialization.obj
 0001:00065db4       __acrt_thread_attach       0000000180066db4 f   libucrt:initialization.obj
 0001:00065dc8       __acrt_thread_detach       0000000180066dc8 f   libucrt:initialization.obj
 0001:00065dd8       __acrt_uninitialize        0000000180066dd8 f   libucrt:initialization.obj
 0001:00065dec       __acrt_uninitialize_critical 0000000180066dec f   libucrt:initialization.obj
 0001:00065dfc       _initterm                  0000000180066dfc f   libucrt:initterm.obj
 0001:00065e74       _initterm_e                0000000180066e74 f   libucrt:initterm.obj
 0001:00065ec0       terminate                  0000000180066ec0 f   libucrt:terminate.obj
 0001:00065ee8       strdup                     0000000180066ee8 f   libucrt:strdup.obj
 0001:00065ee8       _strdup                    0000000180066ee8 f   libucrt:strdup.obj
 0001:00065f60       abort                      0000000180066f60 f   libucrt:abort.obj
 0001:00065fb8       strcpy_s                   0000000180066fb8 f   libucrt:strcpy_s.obj
 0001:00066018       _free_base                 0000000180067018 f   libucrt:free_base.obj
 0001:00066058       _malloc_base               0000000180067058 f   libucrt:malloc_base.obj
 0001:000660b8       _calloc_base               00000001800670b8 f   libucrt:calloc_base.obj
 0001:000662d0       __acrt_FlsAlloc            00000001800672d0 f   libucrt:winapi_thunks.obj
 0001:00066328       __acrt_FlsFree             0000000180067328 f   libucrt:winapi_thunks.obj
 0001:00066380       __acrt_FlsGetValue         0000000180067380 f   libucrt:winapi_thunks.obj
 0001:000663d8       __acrt_FlsSetValue         00000001800673d8 f   libucrt:winapi_thunks.obj
 0001:00066440       __acrt_InitializeCriticalSectionEx 0000000180067440 f   libucrt:winapi_thunks.obj
 0001:000664b8       __acrt_LCMapStringEx       00000001800674b8 f   libucrt:winapi_thunks.obj
 0001:000665a8       __acrt_LocaleNameToLCID    00000001800675a8 f   libucrt:winapi_thunks.obj
 0001:00066610       __acrt_MessageBoxW         0000000180067610 f   libucrt:winapi_thunks.obj
 0001:00066698       __acrt_can_show_message_box 0000000180067698 f   libucrt:winapi_thunks.obj
 0001:000666f4       __acrt_get_parent_window   00000001800676f4 f   libucrt:winapi_thunks.obj
 0001:00066784       __acrt_initialize_winapi_thunks 0000000180067784 f   libucrt:winapi_thunks.obj
 0001:000667bc       __acrt_is_interactive      00000001800677bc f   libucrt:winapi_thunks.obj
 0001:00066890       __acrt_is_packaged_app     0000000180067890 f   libucrt:winapi_thunks.obj
 0001:00066918       __acrt_uninitialize_winapi_thunks 0000000180067918 f   libucrt:winapi_thunks.obj
 0001:0006695c       _fcloseall                 000000018006795c f   libucrt:closeall.obj
 0001:00066a10       __acrt_stdio_flush_nolock  0000000180067a10 f   libucrt:fflush.obj
 0001:00066a88       _fflush_nolock             0000000180067a88 f   libucrt:fflush.obj
 0001:00066ad4       _flushall                  0000000180067ad4 f   libucrt:fflush.obj
 0001:00066bc4       fflush                     0000000180067bc4 f   libucrt:fflush.obj
 0001:00066c08       __acrt_stdio_free_buffer_nolock 0000000180067c08 f   libucrt:_freebuf.obj
 0001:00066e30       __acrt_initialize_lowio    0000000180067e30 f   libucrt:ioinit.obj
 0001:00066e6c       __acrt_uninitialize_lowio  0000000180067e6c f   libucrt:ioinit.obj
 0001:00066eac       ??$?RV<lambda_46352004c1216016012b18bd6f87e700>@@AEAV<lambda_3bd07e1a1191394380780325891bf33f>@@V<lambda_334532d3f185bcaa59b5be82d7d22bff>@@@?$__crt_seh_guarded_call@X@@QEAAX$$QEAV<lambda_46352004c1216016012b18bd6f87e700>@@AEAV<lambda_3bd07e1a1191394380780325891bf33f>@@$$QEAV<lambda_334532d3f185bcaa59b5be82d7d22bff>@@@Z 0000000180067eac f i libucrt:per_thread_data.obj
 0001:00066f0c       ??$?RV<lambda_5e887d1dcbef67a5eb4283622ba103bf>@@AEAV<lambda_4466841279450cc726390878d4a41900>@@V<lambda_341c25c0346d94847f1f3c463c57e077>@@@?$__crt_seh_guarded_call@X@@QEAAX$$QEAV<lambda_5e887d1dcbef67a5eb4283622ba103bf>@@AEAV<lambda_4466841279450cc726390878d4a41900>@@$$QEAV<lambda_341c25c0346d94847f1f3c463c57e077>@@@Z 0000000180067f0c f i libucrt:per_thread_data.obj
 0001:00066f54       ??$?RV<lambda_72d1df2b273a38828b1ce30cbf4cdab5>@@AEAV<lambda_876a65b173b8412d3a47c70a915b0cf4>@@V<lambda_41932305e351933ebe8f8be3ed8bb5dc>@@@?$__crt_seh_guarded_call@X@@QEAAX$$QEAV<lambda_72d1df2b273a38828b1ce30cbf4cdab5>@@AEAV<lambda_876a65b173b8412d3a47c70a915b0cf4>@@$$QEAV<lambda_41932305e351933ebe8f8be3ed8bb5dc>@@@Z 0000000180067f54 f i libucrt:per_thread_data.obj
 0001:00066f94       ??$?RV<lambda_fb3a7dec4e47f37f22dae91bb15c9095>@@AEAV<lambda_698284760c8add0bfb0756c19673e34b>@@V<lambda_dfb8eca1e75fef3034a8fb18dd509707>@@@?$__crt_seh_guarded_call@X@@QEAAX$$QEAV<lambda_fb3a7dec4e47f37f22dae91bb15c9095>@@AEAV<lambda_698284760c8add0bfb0756c19673e34b>@@$$QEAV<lambda_dfb8eca1e75fef3034a8fb18dd509707>@@@Z 0000000180067f94 f i libucrt:per_thread_data.obj
 0001:00067224       __acrt_freeptd             0000000180068224 f   libucrt:per_thread_data.obj
 0001:00067268       __acrt_getptd              0000000180068268 f   libucrt:per_thread_data.obj
 0001:000672fc       __acrt_getptd_noexit       00000001800682fc f   libucrt:per_thread_data.obj
 0001:0006739c       __acrt_initialize_ptd      000000018006839c f   libucrt:per_thread_data.obj
 0001:000673d8       __acrt_uninitialize_ptd    00000001800683d8 f   libucrt:per_thread_data.obj
 0001:000673fc       _query_app_type            00000001800683fc f   libucrt:report_runtime_error.obj
 0001:0006752c       _itow_s                    000000018006852c f   libucrt:xtoa.obj
 0001:0006754c       _set_error_mode            000000018006854c f   libucrt:set_error_mode.obj
 0001:0006758c       wcscat_s                   000000018006858c f   libucrt:wcscat_s.obj
 0001:0006760c       wcscpy_s                   000000018006860c f   libucrt:wcscpy_s.obj
 0001:00067674       wcsncat_s                  0000000180068674 f   libucrt:wcsncat_s.obj
 0001:0006779c       __acrt_show_wide_message_box 000000018006879c f   libucrt:crtmbox.obj
 0001:000678b8       ??$?RV<lambda_7a5ef57ff966f610505f1d28a3d40618>@@AEAV<lambda_b721fa326cdb32351d23dfa67958c160>@@V<lambda_5e0fb27672408a07956fe59e48ccb2aa>@@@?$__crt_seh_guarded_call@H@@QEAAH$$QEAV<lambda_7a5ef57ff966f610505f1d28a3d40618>@@AEAV<lambda_b721fa326cdb32351d23dfa67958c160>@@$$QEAV<lambda_5e0fb27672408a07956fe59e48ccb2aa>@@@Z 00000001800688b8 f i libucrt:setvbuf.obj
 0001:000679e8       setvbuf                    00000001800689e8 f   libucrt:setvbuf.obj
 0001:00067a88       ??$?RV<lambda_c36588078e9f5dfd39652860aa6b3aaf>@@AEAV<lambda_ec61778202f4f5fc7e7711acc23c3bca>@@V<lambda_dc9d2797ccde5d239b4a0efae8ebd7db>@@@?$__crt_seh_guarded_call@P6AXH@Z@@QEAAP6AXH@Z$$QEAV<lambda_c36588078e9f5dfd39652860aa6b3aaf>@@AEAV<lambda_ec61778202f4f5fc7e7711acc23c3bca>@@$$QEAV<lambda_dc9d2797ccde5d239b4a0efae8ebd7db>@@@Z 0000000180068a88 f i libucrt:signal.obj
 0001:00067ad0       __acrt_get_sigabrt_handler 0000000180068ad0 f   libucrt:signal.obj
 0001:00067b00       __acrt_initialize_signal_handlers 0000000180068b00 f   libucrt:signal.obj
 0001:00067b20       raise                      0000000180068b20 f   libucrt:signal.obj
 0001:00067e0c       _tolower_l                 0000000180068e0c f   libucrt:tolower_toupper.obj
 0001:00067f4c       tolower                    0000000180068f4c f   libucrt:tolower_toupper.obj
 0001:00067f78       __acrt_update_locale_info  0000000180068f78 f   libucrt:locale_update.obj
 0001:00067fac       __acrt_update_multibyte_info 0000000180068fac f   libucrt:locale_update.obj
 0001:00067fe0       __acrt_set_locale_changed  0000000180068fe0 f   libucrt:wsetlocale.obj
 0001:00067fec       __acrt_uninitialize_locale 0000000180068fec f   libucrt:wsetlocale.obj
 0001:00068034       _mbtowc_l                  0000000180069034 f   libucrt:mbtowc.obj
 0001:0006817c       mbtowc                     000000018006917c f   libucrt:mbtowc.obj
 0001:00068184       _wctomb_s_l                0000000180069184 f   libucrt:wctomb.obj
 0001:00068308       wctomb_s                   0000000180069308 f   libucrt:wctomb.obj
 0001:0006831c       strnlen                    000000018006931c f   libucrt:strnlen.obj
 0001:00068478       wcsnlen                    0000000180069478 f   libucrt:strnlen.obj
 0001:00068668       ?__acrt_fp_classify@@YA?AW4__acrt_fp_class@@AEBN@Z 0000000180069668 f i libucrt:cvt.obj
 0001:000690a0       __acrt_fp_format           000000018006a0a0 f   libucrt:cvt.obj
 0001:000692e4       _fputwc_nolock             000000018006a2e4 f   libucrt:fputwc.obj
 0001:00069460       _fileno                    000000018006a460 f   libucrt:fileno.obj
 0001:00069488       _fputc_nolock              000000018006a488 f   libucrt:fputc.obj
 0001:000694a0       _get_printf_count_output   000000018006a4a0 f   libucrt:printf_count_output.obj
 0001:000694b8       __acrt_stdio_begin_temporary_buffering_nolock 000000018006a4b8 f   libucrt:_sftbuf.obj
 0001:00069588       __acrt_stdio_end_temporary_buffering_nolock 000000018006a588 f   libucrt:_sftbuf.obj
 0001:00069b64       _write                     000000018006ab64 f   libucrt:write.obj
 0001:00069c50       _write_nolock              000000018006ac50 f   libucrt:write.obj
 0001:0006a144       __acrt_stdio_flush_and_write_narrow_nolock 000000018006b144 f   libucrt:_flsbuf.obj
 0001:0006a22c       __acrt_stdio_flush_and_write_wide_nolock 000000018006b22c f   libucrt:_flsbuf.obj
 0001:0006a318       iswctype                   000000018006b318 f   libucrt:iswctype.obj
 0001:0006a388       __pctype_func              000000018006b388 f   libucrt:ctype.obj
 0001:0006a3b8       _isctype_l                 000000018006b3b8 f   libucrt:isctype.obj
 0001:0006a4c8       _realloc_base              000000018006b4c8 f   libucrt:realloc_base.obj
 0001:0006a54c       __acrt_initialize_locks    000000018006b54c f   libucrt:locks.obj
 0001:0006a594       __acrt_lock                000000018006b594 f   libucrt:locks.obj
 0001:0006a5b0       __acrt_uninitialize_locks  000000018006b5b0 f   libucrt:locks.obj
 0001:0006a5e8       __acrt_unlock              000000018006b5e8 f   libucrt:locks.obj
 0001:0006aae0       ?expand_if_necessary@?$argument_list@D@?A0xca0879c4@@AEAAHXZ 000000018006bae0 f i libucrt:argv_wildcards.obj
 0001:0006aba8       __acrt_expand_narrow_argv_wildcards 000000018006bba8 f   libucrt:argv_wildcards.obj
 0001:0006abb0       ??$?RV<lambda_99476a1ad63dd22509b5d3e65b0ffc95>@@AEAV<lambda_ad1ced32f4ac17aa236e5ef05d6b3b7c>@@V<lambda_f7424dd8d45958661754dc4f2697e9c3>@@@?$__crt_seh_guarded_call@X@@QEAAX$$QEAV<lambda_99476a1ad63dd22509b5d3e65b0ffc95>@@AEAV<lambda_ad1ced32f4ac17aa236e5ef05d6b3b7c>@@$$QEAV<lambda_f7424dd8d45958661754dc4f2697e9c3>@@@Z 000000018006bbb0 f i libucrt:mbctype.obj
 0001:0006b2ac       __acrt_initialize_multibyte 000000018006c2ac f   libucrt:mbctype.obj
 0001:0006b2d4       __acrt_update_thread_multibyte_data 000000018006c2d4 f   libucrt:mbctype.obj
 0001:0006b394       _setmbcp_nolock            000000018006c394 f   libucrt:mbctype.obj
 0001:0006b6b4       _ismbblead                 000000018006c6b4 f   libucrt:ismbbyte.obj
 0001:0006b6c8       __acrt_initialize_command_line 000000018006c6c8 f   libucrt:argv_data.obj
 0001:0006b6f0       __dcrt_get_narrow_environment_from_os 000000018006c6f0 f   libucrt:get_environment_from_os.obj
 0001:0006b7f4       _recalloc                  000000018006c7f4 f   libucrt:recalloc.obj
 0001:0006b7fc       _recalloc_base             000000018006c7fc f   libucrt:recalloc.obj
 0001:0006b894       __acrt_initialize_heap     000000018006c894 f   libucrt:heap_handle.obj
 0001:0006b8b0       __acrt_uninitialize_heap   000000018006c8b0 f   libucrt:heap_handle.obj
 0001:0006b8bc       __acrt_execute_initializers 000000018006c8bc f   libucrt:shared_initialization.obj
 0001:0006b950       __acrt_execute_uninitializers 000000018006c950 f   libucrt:shared_initialization.obj
 0001:0006b9a0       __acrt_has_user_matherr    000000018006c9a0 f   libucrt:matherr.obj
 0001:0006b9c0       __acrt_initialize_user_matherr 000000018006c9c0 f   libucrt:matherr.obj
 0001:0006b9c8       __acrt_invoke_user_matherr 000000018006c9c8 f   libucrt:matherr.obj
 0001:0006ba10       _query_new_mode            000000018006ca10 f   libucrt:new_mode.obj
 0001:0006bae0       __acrt_DownlevelLocaleNameToLCID 000000018006cae0 f   libucrt:lcidtoname_downlevel.obj
 0001:0006bb14       _fclose_nolock             000000018006cb14 f   libucrt:fclose.obj
 0001:0006bb98       fclose                     000000018006cb98 f   libucrt:fclose.obj
 0001:0006bc04       ??$?RV<lambda_b521505b218e5242e90febf6bfebc422>@@AEAV<lambda_6978c1fb23f02e42e1d9e99668cc68aa>@@V<lambda_314360699dd331753a4119843814e9a7>@@@?$__crt_seh_guarded_call@H@@QEAAH$$QEAV<lambda_b521505b218e5242e90febf6bfebc422>@@AEAV<lambda_6978c1fb23f02e42e1d9e99668cc68aa>@@$$QEAV<lambda_314360699dd331753a4119843814e9a7>@@@Z 000000018006cc04 f i libucrt:commit.obj
 0001:0006bc90       _commit                    000000018006cc90 f   libucrt:commit.obj
 0001:0006bd24       __acrt_lowio_create_handle_array 000000018006cd24 f   libucrt:osfinfo.obj
 0001:0006bdbc       __acrt_lowio_destroy_handle_array 000000018006cdbc f   libucrt:osfinfo.obj
 0001:0006be0c       __acrt_lowio_ensure_fh_exists 000000018006ce0c f   libucrt:osfinfo.obj
 0001:0006bec4       __acrt_lowio_lock_fh       000000018006cec4 f   libucrt:osfinfo.obj
 0001:0006bee8       __acrt_lowio_unlock_fh     000000018006cee8 f   libucrt:osfinfo.obj
 0001:0006bf0c       _free_osfhnd               000000018006cf0c f   libucrt:osfinfo.obj
 0001:0006bfc8       _get_osfhandle             000000018006cfc8 f   libucrt:osfinfo.obj
 0001:0006c040       __acrt_add_locale_ref      000000018006d040 f   libucrt:locale_refcounting.obj
 0001:0006c0cc       __acrt_free_locale         000000018006d0cc f   libucrt:locale_refcounting.obj
 0001:0006c244       __acrt_locale_add_lc_time_reference 000000018006d244 f   libucrt:locale_refcounting.obj
 0001:0006c26c       __acrt_locale_free_lc_time_if_unreferenced 000000018006d26c f   libucrt:locale_refcounting.obj
 0001:0006c2a4       __acrt_locale_release_lc_time_reference 000000018006d2a4 f   libucrt:locale_refcounting.obj
 0001:0006c2cc       __acrt_release_locale_ref  000000018006d2cc f   libucrt:locale_refcounting.obj
 0001:0006c374       __acrt_update_thread_locale_data 000000018006d374 f   libucrt:locale_refcounting.obj
 0001:0006c3e4       _updatetlocinfoEx_nolock   000000018006d3e4 f   libucrt:locale_refcounting.obj
 0001:0006c7a8       __acrt_LCMapStringA        000000018006d7a8 f   libucrt:lcmapstringa.obj
 0001:0006c840       __acrt_locale_free_monetary 000000018006d840 f   libucrt:initmon.obj
 0001:0006c94c       __acrt_locale_free_numeric 000000018006d94c f   libucrt:initnum.obj
 0001:0006ca10       __acrt_locale_free_time    000000018006da10 f   libucrt:inittime.obj
 0001:0006cb18       __acrt_GetStringTypeA      000000018006db18 f   libucrt:getstringtypea.obj
 0001:0006cccc       __acrt_fp_strflt_to_string 000000018006dccc f   libucrt:_fptostr.obj
 0001:0006cd90       ?divide@__crt_strtox@@YA_KAEAUbig_integer@1@AEBU21@@Z 000000018006dd90 f i libucrt:cfout.obj
 0001:0006d260       __acrt_fltout              000000018006e260 f   libucrt:cfout.obj
 0001:0006e654       _isatty                    000000018006f654 f   libucrt:isatty.obj
 0001:0006e840       _lseeki64                  000000018006f840 f   libucrt:lseek.obj
 0001:0006e848       _lseeki64_nolock           000000018006f848 f   libucrt:lseek.obj
 0001:0006e850       _putwch_nolock             000000018006f850 f   libucrt:putwch.obj
 0001:0006e8ac       __acrt_stdio_allocate_buffer_nolock 000000018006f8ac f   libucrt:_getbuf.obj
 0001:0006e9e0       qsort                      000000018006f9e0 f   libucrt:qsort.obj
 0001:0006ed14       strncpy_s                  000000018006fd14 f   libucrt:strncpy_s.obj
 0001:0006ede8       strpbrk                    000000018006fde8 f   libucrt:strpbrk.obj
 0001:0006ee88       _mbsdec                    000000018006fe88 f   libucrt:mbsdec.obj
 0001:0006ee90       _mbsdec_l                  000000018006fe90 f   libucrt:mbsdec.obj
 0001:0006ef40       _msize                     000000018006ff40 f   libucrt:msize.obj
 0001:0006ef7c       ??$?RV<lambda_bfedae4ebbf01fab1bb6dcc6a9e276e0>@@AEAV<lambda_2fe9b910cf3cbf4a0ab98a02ba45b3ec>@@V<lambda_237c231691f317818eb88cc1d5d642d6>@@@?$__crt_seh_guarded_call@H@@QEAAH$$QEAV<lambda_bfedae4ebbf01fab1bb6dcc6a9e276e0>@@AEAV<lambda_2fe9b910cf3cbf4a0ab98a02ba45b3ec>@@$$QEAV<lambda_237c231691f317818eb88cc1d5d642d6>@@@Z 000000018006ff7c f i libucrt:close.obj
 0001:0006eff0       _close                     000000018006fff0 f   libucrt:close.obj
 0001:0006f094       _close_nolock              0000000180070094 f   libucrt:close.obj
 0001:0006f150       ?__acrt_stdio_free_stream@@YAXV__crt_stdio_stream@@@Z 0000000180070150 f   libucrt:stream.obj
 0001:0006f194       __strncnt                  0000000180070194 f   libucrt:strncnt.obj
 0001:0006f1ac       fegetenv                   00000001800701ac f   libucrt:fegetenv.obj
 0001:0006f1cc       fesetenv                   00000001800701cc f   libucrt:fesetenv.obj
 0001:0006f218       feholdexcept               0000000180070218 f   libucrt:feholdexcept.obj
 0001:0006f268       ceil                       0000000180070268 f   libucrt:ceil.obj
 0001:0006f330       log10                      0000000180070330 f   libucrt:log10.obj
 0001:0006f8dc       __dcrt_lowio_initialize_console_output 00000001800708dc f   libucrt:initcon.obj
 0001:0006f918       __dcrt_terminate_console_output 0000000180070918 f   libucrt:initcon.obj
 0001:0006f938       _getfpcontrolword          0000000180070938 f   libucrt:_fenvutils.obj
 0001:0006f950       _getfpstatusword           0000000180070950 f   libucrt:_fenvutils.obj
 0001:0006f964       _setfpcontrolword          0000000180070964 f   libucrt:_fenvutils.obj
 0001:0006f970       _setfpstatusword           0000000180070970 f   libucrt:_fenvutils.obj
 0001:0006f9c0       _clearfp                   00000001800709c0 f   libucrt:ieee.obj
 0001:0006fa14       _controlfp                 0000000180070a14 f   libucrt:ieee.obj
 0001:0006fa20       _statusfp                  0000000180070a20 f   libucrt:ieee.obj
 0001:0006fe24       _handle_error              0000000180070e24 f   libucrt:libm_error.obj
 0001:0006ff4c       _handle_nan                0000000180070f4c f   libucrt:libm_error.obj
 0001:0006ff70       __acrt_initialize_fma3     0000000180070f70 f   libucrt:fma3_available.obj
 0001:0006ffe0       _log10_special             0000000180070fe0 f   libucrt:log_special.obj
 0001:000700b0       _get_fpsr                  00000001800710b0 f   libucrt:fpsr.obj
 0001:000700c0       _set_fpsr                  00000001800710c0 f   libucrt:fpsr.obj
 0001:000700ca       _fclrf                     00000001800710ca f   libucrt:fpsr.obj
 0001:000700de       _frnd                      00000001800710de f   libucrt:fpsr.obj
 0001:00070100       _raise_exc                 0000000180071100 f   libucrt:fpexcept.obj
 0001:00070128       _raise_exc_ex              0000000180071128 f   libucrt:fpexcept.obj
 0001:00070430       _set_errno_from_matherr    0000000180071430 f   libucrt:fpexcept.obj
 0001:00070460       _clrfp                     0000000180071460 f   libucrt:fpctrl.obj
 0001:00070480       _ctrlfp                    0000000180071480 f   libucrt:fpctrl.obj
 0001:000704fc       _set_statfp                00000001800714fc f   libucrt:fpctrl.obj
 0001:0007051c       _statfp                    000000018007151c f   libucrt:fpctrl.obj
 0001:0007052e       IsProcessorFeaturePresent  000000018007152e f   kernel32:KERNEL32.dll
 0001:00070534       RtlUnwindEx                0000000180071534 f   kernel32:KERNEL32.dll
 0001:0007053c       ?DloadAcquireSectionWriteAccess@@YAXXZ 000000018007153c f i DelayImp:delayhlp.obj
 0001:000705f8       ?DloadGetSRWLockFunctionPointers@@YAEXZ 00000001800715f8 f i DelayImp:delayhlp.obj
 0001:00070694       ?DloadMakePermanentImageCommit@@YAXPEAX_K@Z 0000000180071694 f i DelayImp:delayhlp.obj
 0001:0007072c       ?DloadObtainSection@@YAPEAXPEAK0@Z 000000018007172c f i DelayImp:delayhlp.obj
 0001:000707c4       ?DloadProtectSection@@YAXKPEAK@Z 00000001800717c4 f i DelayImp:delayhlp.obj
 0001:00070854       ?DloadReleaseSectionWriteAccess@@YAXXZ 0000000180071854 f i DelayImp:delayhlp.obj
 0001:000708f8       __delayLoadHelper2         00000001800718f8 f   DelayImp:delayhlp.obj
 0001:00070c00       _FindPESection             0000000180071c00 f   LIBCMT:pesect.obj
 0001:00070c50       _IsNonwritableInCurrentImage 0000000180071c50 f   LIBCMT:pesect.obj
 0001:00070ca0       _ValidateImageBase         0000000180071ca0 f   LIBCMT:pesect.obj
 0001:00070cd0       __GSHandlerCheck           0000000180071cd0 f   LIBCMT:_gshandler_.obj
 0001:00070cf0       __GSHandlerCheckCommon     0000000180071cf0 f   LIBCMT:_gshandler_.obj
 0001:00070d60       _alloca_probe              0000000180071d60 f   LIBCMT:_chkstk_.obj
 0001:00070d60       __chkstk                   0000000180071d60 f   LIBCMT:_chkstk_.obj
 0001:00070dd0       memcmp                     0000000180071dd0 f   libvcruntime:memcmp.obj
 0001:00070e98       strrchr                    0000000180071e98 f   libvcruntime:strrchr.obj
 0001:00070fe0       pow                        0000000180071fe0 f   libucrt:pow.obj
 0001:00072680       _pow_special               0000000180073680 f   libucrt:pow_special.obj
 0001:000727c0       _guard_dispatch_icall_nop  00000001800737c0 f   LIBCMT:_guard_dispatch_.obj
 0002:00000000       __imp_GetModuleHandleA     0000000180074000     kernel32:KERNEL32.dll
 0002:00000008       __imp_CloseHandle          0000000180074008     kernel32:KERNEL32.dll
 0002:00000010       __imp_EnterCriticalSection 0000000180074010     kernel32:KERNEL32.dll
 0002:00000018       __imp_LeaveCriticalSection 0000000180074018     kernel32:KERNEL32.dll
 0002:00000020       __imp_DeleteCriticalSection 0000000180074020     kernel32:KERNEL32.dll
 0002:00000028       __imp_SetEvent             0000000180074028     kernel32:KERNEL32.dll
 0002:00000030       __imp_ResetEvent           0000000180074030     kernel32:KERNEL32.dll
 0002:00000038       __imp_WaitForSingleObjectEx 0000000180074038     kernel32:KERNEL32.dll
 0002:00000040       __imp_CreateEventW         0000000180074040     kernel32:KERNEL32.dll
 0002:00000048       __imp_GetModuleHandleW     0000000180074048     kernel32:KERNEL32.dll
 0002:00000050       __imp_GetProcAddress       0000000180074050     kernel32:KERNEL32.dll
 0002:00000058       __imp_RtlCaptureContext    0000000180074058     kernel32:KERNEL32.dll
 0002:00000060       __imp_RtlLookupFunctionEntry 0000000180074060     kernel32:KERNEL32.dll
 0002:00000068       __imp_RtlVirtualUnwind     0000000180074068     kernel32:KERNEL32.dll
 0002:00000070       __imp_UnhandledExceptionFilter 0000000180074070     kernel32:KERNEL32.dll
 0002:00000078       __imp_SetUnhandledExceptionFilter 0000000180074078     kernel32:KERNEL32.dll
 0002:00000080       __imp_GetCurrentProcess    0000000180074080     kernel32:KERNEL32.dll
 0002:00000088       __imp_TerminateProcess     0000000180074088     kernel32:KERNEL32.dll
 0002:00000090       __imp_IsProcessorFeaturePresent 0000000180074090     kernel32:KERNEL32.dll
 0002:00000098       __imp_IsDebuggerPresent    0000000180074098     kernel32:KERNEL32.dll
 0002:000000a0       __imp_GetStartupInfoW      00000001800740a0     kernel32:KERNEL32.dll
 0002:000000a8       __imp_QueryPerformanceCounter 00000001800740a8     kernel32:KERNEL32.dll
 0002:000000b0       __imp_GetCurrentProcessId  00000001800740b0     kernel32:KERNEL32.dll
 0002:000000b8       __imp_GetCurrentThreadId   00000001800740b8     kernel32:KERNEL32.dll
 0002:000000c0       __imp_GetSystemTimeAsFileTime 00000001800740c0     kernel32:KERNEL32.dll
 0002:000000c8       __imp_InitializeSListHead  00000001800740c8     kernel32:KERNEL32.dll
 0002:000000d0       __imp_RtlPcToFileHeader    00000001800740d0     kernel32:KERNEL32.dll
 0002:000000d8       __imp_RaiseException       00000001800740d8     kernel32:KERNEL32.dll
 0002:000000e0       __imp_RtlUnwindEx          00000001800740e0     kernel32:KERNEL32.dll
 0002:000000e8       __imp_GetLastError         00000001800740e8     kernel32:KERNEL32.dll
 0002:000000f0       __imp_InitializeCriticalSectionAndSpinCount 00000001800740f0     kernel32:KERNEL32.dll
 0002:000000f8       __imp_TlsAlloc             00000001800740f8     kernel32:KERNEL32.dll
 0002:00000100       __imp_TlsGetValue          0000000180074100     kernel32:KERNEL32.dll
 0002:00000108       __imp_TlsSetValue          0000000180074108     kernel32:KERNEL32.dll
 0002:00000110       __imp_TlsFree              0000000180074110     kernel32:KERNEL32.dll
 0002:00000118       __imp_FreeLibrary          0000000180074118     kernel32:KERNEL32.dll
 0002:00000120       __imp_LoadLibraryExW       0000000180074120     kernel32:KERNEL32.dll
 0002:00000128       __imp_InterlockedFlushSList 0000000180074128     kernel32:KERNEL32.dll
 0002:00000130       __imp_SetLastError         0000000180074130     kernel32:KERNEL32.dll
 0002:00000138       __imp_GetStdHandle         0000000180074138     kernel32:KERNEL32.dll
 0002:00000140       __imp_GetFileType          0000000180074140     kernel32:KERNEL32.dll
 0002:00000148       __imp_GetModuleFileNameA   0000000180074148     kernel32:KERNEL32.dll
 0002:00000150       __imp_GetModuleFileNameW   0000000180074150     kernel32:KERNEL32.dll
 0002:00000158       __imp_GetModuleHandleExW   0000000180074158     kernel32:KERNEL32.dll
 0002:00000160       __imp_WriteConsoleW        0000000180074160     kernel32:KERNEL32.dll
 0002:00000168       __imp_ExitProcess          0000000180074168     kernel32:KERNEL32.dll
 0002:00000170       __imp_MultiByteToWideChar  0000000180074170     kernel32:KERNEL32.dll
 0002:00000178       __imp_WideCharToMultiByte  0000000180074178     kernel32:KERNEL32.dll
 0002:00000180       __imp_HeapFree             0000000180074180     kernel32:KERNEL32.dll
 0002:00000188       __imp_HeapAlloc            0000000180074188     kernel32:KERNEL32.dll
 0002:00000190       __imp_LCMapStringW         0000000180074190     kernel32:KERNEL32.dll
 0002:00000198       __imp_WriteFile            0000000180074198     kernel32:KERNEL32.dll
 0002:000001a0       __imp_OutputDebugStringW   00000001800741a0     kernel32:KERNEL32.dll
 0002:000001a8       __imp_CreateThread         00000001800741a8     kernel32:KERNEL32.dll
 0002:000001b0       __imp_GetACP               00000001800741b0     kernel32:KERNEL32.dll
 0002:000001b8       __imp_GetConsoleCP         00000001800741b8     kernel32:KERNEL32.dll
 0002:000001c0       __imp_GetConsoleMode       00000001800741c0     kernel32:KERNEL32.dll
 0002:000001c8       __imp_GetStringTypeW       00000001800741c8     kernel32:KERNEL32.dll
 0002:000001d0       __imp_HeapReAlloc          00000001800741d0     kernel32:KERNEL32.dll
 0002:000001d8       __imp_FindClose            00000001800741d8     kernel32:KERNEL32.dll
 0002:000001e0       __imp_FindFirstFileExA     00000001800741e0     kernel32:KERNEL32.dll
 0002:000001e8       __imp_FindNextFileA        00000001800741e8     kernel32:KERNEL32.dll
 0002:000001f0       __imp_IsValidCodePage      00000001800741f0     kernel32:KERNEL32.dll
 0002:000001f8       __imp_GetOEMCP             00000001800741f8     kernel32:KERNEL32.dll
 0002:00000200       __imp_GetCPInfo            0000000180074200     kernel32:KERNEL32.dll
 0002:00000208       __imp_GetCommandLineA      0000000180074208     kernel32:KERNEL32.dll
 0002:00000210       __imp_GetCommandLineW      0000000180074210     kernel32:KERNEL32.dll
 0002:00000218       __imp_GetEnvironmentStringsW 0000000180074218     kernel32:KERNEL32.dll
 0002:00000220       __imp_FreeEnvironmentStringsW 0000000180074220     kernel32:KERNEL32.dll
 0002:00000228       __imp_GetProcessHeap       0000000180074228     kernel32:KERNEL32.dll
 0002:00000230       __imp_FlushFileBuffers     0000000180074230     kernel32:KERNEL32.dll
 0002:00000238       __imp_SetStdHandle         0000000180074238     kernel32:KERNEL32.dll
 0002:00000240       __imp_SetFilePointerEx     0000000180074240     kernel32:KERNEL32.dll
 0002:00000248       __imp_HeapSize             0000000180074248     kernel32:KERNEL32.dll
 0002:00000250       __imp_CreateFileW          0000000180074250     kernel32:KERNEL32.dll
 0002:00000258       __imp_GetSystemInfo        0000000180074258     kernel32:KERNEL32.dll
 0002:00000260       __imp_VirtualProtect       0000000180074260     kernel32:KERNEL32.dll
 0002:00000268       __imp_VirtualQuery         0000000180074268     kernel32:KERNEL32.dll
 0002:00000270       __imp_LoadLibraryExA       0000000180074270     kernel32:KERNEL32.dll
 0002:00000278       \177KERNEL32_NULL_THUNK_DATA 0000000180074278     kernel32:KERNEL32.dll
 0002:00000280       __guard_check_icall_fptr   0000000180074280     LIBCMT:guard_support.obj
 0002:00000288       __guard_dispatch_icall_fptr 0000000180074288     LIBCMT:guard_support.obj
 0002:00000290       __xc_a                     0000000180074290     LIBCMT:initializers.obj
 0002:00000298       _register_tree_sitter_cli_binding_ 0000000180074298     binding.obj
 0002:000002b8       __xc_z                     00000001800742b8     LIBCMT:initializers.obj
 0002:000002c0       __xi_a                     00000001800742c0     LIBCMT:initializers.obj
 0002:000002d0       __acrt_stdio_initializer   00000001800742d0     libucrt:stdio_initializer.obj
 0002:000002d8       __acrt_multibyte_initializer 00000001800742d8     libucrt:multibyte_initializer.obj
 0002:000002e0       __acrt_tran_fma3_initializer 00000001800742e0     libucrt:fma3_initializer.obj
 0002:000002e8       __xi_z                     00000001800742e8     LIBCMT:initializers.obj
 0002:000002f0       __xl_a                     00000001800742f0     LIBCMT:tlssup.obj
 0002:000002f8       __xl_z                     00000001800742f8     LIBCMT:tlssup.obj
 0002:00000300       __xp_a                     0000000180074300     LIBCMT:initializers.obj
 0002:00000308       __acrt_locale_terminator   0000000180074308     libucrt:locale_initializer.obj
 0002:00000310       __dcrt_console_output_terminator 0000000180074310     libucrt:console_output_initializer.obj
 0002:00000318       __acrt_stdio_terminator    0000000180074318     libucrt:stdio_initializer.obj
 0002:00000320       __xp_z                     0000000180074320     LIBCMT:initializers.obj
 0002:00000328       __xt_a                     0000000180074328     LIBCMT:initializers.obj
 0002:00000330       __xt_z                     0000000180074330     LIBCMT:initializers.obj
 0002:00000340       __sz_node_exe              0000000180074340     node:node.exe
 0002:00000358       ??_7exception@std@@6B@     0000000180074358     libcpmt:xthrow.obj
 0002:00000368       ??_C@_0BC@EOODALEL@Unknown?5exception?$AA@ 0000000180074368     libcpmt:xthrow.obj
 0002:00000388       ??_7bad_alloc@std@@6B@     0000000180074388     libcpmt:xthrow.obj
 0002:00000398       ??_C@_0P@GHFPNOJB@bad?5allocation?$AA@ 0000000180074398     libcpmt:xthrow.obj
 0002:000003b0       ??_7logic_error@std@@6B@   00000001800743b0     libcpmt:xthrow.obj
 0002:000003c8       ??_7invalid_argument@std@@6B@ 00000001800743c8     libcpmt:xthrow.obj
 0002:000003e0       ??_7length_error@std@@6B@  00000001800743e0     libcpmt:xthrow.obj
 0002:000003f8       ??_7out_of_range@std@@6B@  00000001800743f8     libcpmt:xthrow.obj
 0002:00000410       ??_7bad_function_call@std@@6B@ 0000000180074410     libcpmt:xthrow.obj
 0002:00000420       ??_C@_0BC@DPJNKNAF@bad?5function?5call?$AA@ 0000000180074420     libcpmt:xthrow.obj
 0002:00000438       _pRawDllMain               0000000180074438     LIBCMT:dll_dllmain.obj
 0002:00000438       _pDefaultRawDllMain        0000000180074438     LIBCMT:dll_dllmain.obj
 0002:00000448       ??_7type_info@@6B@         0000000180074448     LIBCMT:std_type_info_static.obj
 0002:00000450       ??_C@_1BK@MGMFAEKH@?$AAk?$AAe?$AAr?$AAn?$AAe?$AAl?$AA3?$AA2?$AA?4?$AAd?$AAl?$AAl?$AA?$AA@ 0000000180074450     LIBCMT:thread_safe_statics.obj
 0002:00000470       ??_C@_0BM@HLJJNPAH@InitializeConditionVariable?$AA@ 0000000180074470     LIBCMT:thread_safe_statics.obj
 0002:00000490       ??_C@_0BJ@JEBJOJFJ@SleepConditionVariableCS?$AA@ 0000000180074490     LIBCMT:thread_safe_statics.obj
 0002:000004b0       ??_C@_0BJ@PGPPEPCC@WakeAllConditionVariable?$AA@ 00000001800744b0     LIBCMT:thread_safe_statics.obj
 0002:000004e8       ??_7bad_array_new_length@std@@6B@ 00000001800744e8     LIBCMT:throw_bad_alloc.obj
 0002:000004f8       ??_C@_0BF@KINCDENJ@bad?5array?5new?5length?$AA@ 00000001800744f8     LIBCMT:throw_bad_alloc.obj
 0002:00000570       ??_C@_1BC@DNHGCMLG@?$AAa?$AAd?$AAv?$AAa?$AAp?$AAi?$AA3?$AA2?$AA?$AA@ 0000000180074570     libvcruntime:winapi_downlevel.obj
 0002:00000588       ??_C@_1DM@KHCHBNEB@?$AAa?$AAp?$AAi?$AA?9?$AAm?$AAs?$AA?9?$AAw?$AAi?$AAn?$AA?9?$AAc?$AAo?$AAr?$AAe?$AA?9?$AAf?$AAi?$AAb?$AAe?$AAr?$AAs?$AA?9?$AAl?$AA1?$AA?9?$AA1?$AA?9?$AA1?$AA?$AA@ 0000000180074588     libvcruntime:winapi_downlevel.obj
 0002:000005c8       ??_C@_1DK@LPPGFMPP@?$AAa?$AAp?$AAi?$AA?9?$AAm?$AAs?$AA?9?$AAw?$AAi?$AAn?$AA?9?$AAc?$AAo?$AAr?$AAe?$AA?9?$AAs?$AAy?$AAn?$AAc?$AAh?$AA?9?$AAl?$AA1?$AA?9?$AA2?$AA?9?$AA0?$AA?$AA@ 00000001800745c8     libvcruntime:winapi_downlevel.obj
 0002:00000608       ??_C@_1BC@GDMECMAK@?$AAk?$AAe?$AAr?$AAn?$AAe?$AAl?$AA3?$AA2?$AA?$AA@ 0000000180074608     libvcruntime:winapi_downlevel.obj
 0002:00000628       ??_C@_08KNHFBNJ@FlsAlloc?$AA@ 0000000180074628     libvcruntime:winapi_downlevel.obj
 0002:00000640       ??_C@_07PEJMOBNF@FlsFree?$AA@ 0000000180074640     libvcruntime:winapi_downlevel.obj
 0002:00000650       ??_C@_0M@GDNOONDI@FlsGetValue?$AA@ 0000000180074650     libvcruntime:winapi_downlevel.obj
 0002:00000668       ??_C@_0M@JCPCPOEF@FlsSetValue?$AA@ 0000000180074668     libvcruntime:winapi_downlevel.obj
 0002:00000680       ??_C@_0BM@HCFOFFN@InitializeCriticalSectionEx?$AA@ 0000000180074680     libvcruntime:winapi_downlevel.obj
 0002:000009c0       ??_C@_08EHJDFFNH@__based?$CI?$AA@ 00000001800749c0     libvcruntime:undname.obj
 0002:000009d0       ??_C@_07KOLFKCDI@__cdecl?$AA@ 00000001800749d0     libvcruntime:undname.obj
 0002:000009d8       ??_C@_08GHMPAG@__pascal?$AA@ 00000001800749d8     libvcruntime:undname.obj
 0002:000009e8       ??_C@_09IFJBGAPI@__stdcall?$AA@ 00000001800749e8     libvcruntime:undname.obj
 0002:000009f8       ??_C@_0L@NPHFGOKO@__thiscall?$AA@ 00000001800749f8     libvcruntime:undname.obj
 0002:00000a08       ??_C@_0L@JMKHOMEK@__fastcall?$AA@ 0000000180074a08     libvcruntime:undname.obj
 0002:00000a18       ??_C@_0N@BCKKPABJ@__vectorcall?$AA@ 0000000180074a18     libvcruntime:undname.obj
 0002:00000a28       ??_C@_09HIJEGCPM@__clrcall?$AA@ 0000000180074a28     libvcruntime:undname.obj
 0002:00000a34       ??_C@_06GHPCKEAG@__eabi?$AA@ 0000000180074a34     libvcruntime:undname.obj
 0002:00000a40       ??_C@_07JOMMBBKO@__ptr64?$AA@ 0000000180074a40     libvcruntime:undname.obj
 0002:00000a48       ??_C@_0L@PILCLIHE@__restrict?$AA@ 0000000180074a48     libvcruntime:undname.obj
 0002:00000a58       ??_C@_0M@GFIIJFMG@__unaligned?$AA@ 0000000180074a58     libvcruntime:undname.obj
 0002:00000a68       ??_C@_09DHDLOLLB@restrict?$CI?$AA@ 0000000180074a68     libvcruntime:undname.obj
 0002:00000a74       ??_C@_04NIHEBCM@?5new?$AA@ 0000000180074a74     libvcruntime:undname.obj
 0002:00000a80       ??_C@_07FPCDHGMM@?5delete?$AA@ 0000000180074a80     libvcruntime:undname.obj
 0002:00000a88       ??_C@_01NEMOKFLO@?$DN?$AA@ 0000000180074a88     libvcruntime:undname.obj
 0002:00000a8c       ??_C@_02GPIOPFAK@?$DO?$DO?$AA@ 0000000180074a8c     libvcruntime:undname.obj
 0002:00000a90       ??_C@_02FODMEDOG@?$DM?$DM?$AA@ 0000000180074a90     libvcruntime:undname.obj
 0002:00000a94       ??_C@_01DCLJPIOD@?$CB?$AA@ 0000000180074a94     libvcruntime:undname.obj
 0002:00000a98       ??_C@_02EGOFBIJA@?$DN?$DN?$AA@ 0000000180074a98     libvcruntime:undname.obj
 0002:00000a9c       ??_C@_02FDNJECIE@?$CB?$DN?$AA@ 0000000180074a9c     libvcruntime:undname.obj
 0002:00000aa0       ??_C@_02GPECMEKF@?$FL?$FN?$AA@ 0000000180074aa0     libvcruntime:undname.obj
 0002:00000aa8       ??_C@_08LHJFAFGD@operator?$AA@ 0000000180074aa8     libvcruntime:undname.obj
 0002:00000ab4       ??_C@_02HBOOOICD@?9?$DO?$AA@ 0000000180074ab4     libvcruntime:undname.obj
 0002:00000ab8       ??_C@_01NBENCBCI@?$CK?$AA@ 0000000180074ab8     libvcruntime:undname.obj
 0002:00000abc       ??_C@_02ECNGHCIF@?$CL?$CL?$AA@ 0000000180074abc     libvcruntime:undname.obj
 0002:00000ac0       ??_C@_02BAABKJLB@?9?9?$AA@ 0000000180074ac0     libvcruntime:undname.obj
 0002:00000ac4       ??_C@_01JOAMLHOP@?9?$AA@   0000000180074ac4     libvcruntime:undname.obj
 0002:00000ac8       ??_C@_01HNPIGOCE@?$CG?$AA@ 0000000180074ac8     libvcruntime:undname.obj
 0002:00000acc       ??_C@_03MNHNFDLC@?9?$DO?$CK?$AA@ 0000000180074acc     libvcruntime:undname.obj
 0002:00000ad0       ??_C@_01FGNFDNOH@?$CF?$AA@ 0000000180074ad0     libvcruntime:undname.obj
 0002:00000ad4       ??_C@_01MNNFJEPP@?$DM?$AA@ 0000000180074ad4     libvcruntime:undname.obj
 0002:00000ad8       ??_C@_02EHCHHCKH@?$DM?$DN?$AA@ 0000000180074ad8     libvcruntime:undname.obj
 0002:00000adc       ??_C@_01PPODPGHN@?$DO?$AA@ 0000000180074adc     libvcruntime:undname.obj
 0002:00000ae0       ??_C@_02EEKDKGMJ@?$DO?$DN?$AA@ 0000000180074ae0     libvcruntime:undname.obj
 0002:00000ae4       ??_C@_02HCKGKOFO@?$CI?$CJ?$AA@ 0000000180074ae4     libvcruntime:undname.obj
 0002:00000ae8       ??_C@_01PJKLJHI@?$HO?$AA@  0000000180074ae8     libvcruntime:undname.obj
 0002:00000aec       ??_C@_01JKBOJNNK@?$FO?$AA@ 0000000180074aec     libvcruntime:undname.obj
 0002:00000af0       ??_C@_02PPKAJPJL@?$CG?$CG?$AA@ 0000000180074af0     libvcruntime:undname.obj
 0002:00000af4       ??_C@_02NONPIBCD@?$HM?$HM?$AA@ 0000000180074af4     libvcruntime:undname.obj
 0002:00000af8       ??_C@_02FPIMKNGF@?$CK?$DN?$AA@ 0000000180074af8     libvcruntime:undname.obj
 0002:00000afc       ??_C@_02FOEOMHFC@?$CL?$DN?$AA@ 0000000180074afc     libvcruntime:undname.obj
 0002:00000b00       ??_C@_02FKMDLLOA@?9?$DN?$AA@ 0000000180074b00     libvcruntime:undname.obj
 0002:00000b04       ??_C@_02FJEHGPIO@?1?$DN?$AA@ 0000000180074b04     libvcruntime:undname.obj
 0002:00000b08       ??_C@_02FENAOKFI@?$CF?$DN?$AA@ 0000000180074b08     libvcruntime:undname.obj
 0002:00000b0c       ??_C@_03IKFCCPFF@?$DO?$DO?$DN?$AA@ 0000000180074b0c     libvcruntime:undname.obj
 0002:00000b10       ??_C@_03CDNPDDLA@?$DM?$DM?$DN?$AA@ 0000000180074b10     libvcruntime:undname.obj
 0002:00000b14       ??_C@_02FGJGFEAB@?$CG?$DN?$AA@ 0000000180074b14     libvcruntime:undname.obj
 0002:00000b18       ??_C@_02DHLNPPGH@?$HM?$DN?$AA@ 0000000180074b18     libvcruntime:undname.obj
 0002:00000b1c       ??_C@_02MHEGNOJ@?$FO?$DN?$AA@ 0000000180074b1c     libvcruntime:undname.obj
 0002:00000b20       ??_C@_09IFPLHPGF@?$GAvftable?8?$AA@ 0000000180074b20     libvcruntime:undname.obj
 0002:00000b30       ??_C@_09BLBHBJP@?$GAvbtable?8?$AA@ 0000000180074b30     libvcruntime:undname.obj
 0002:00000b40       ??_C@_07FEEIOKP@?$GAvcall?8?$AA@ 0000000180074b40     libvcruntime:undname.obj
 0002:00000b48       ??_C@_08LLFFHHDJ@?$GAtypeof?8?$AA@ 0000000180074b48     libvcruntime:undname.obj
 0002:00000b58       ??_C@_0BF@KDPPACIK@?$GAlocal?5static?5guard?8?$AA@ 0000000180074b58     libvcruntime:undname.obj
 0002:00000b70       ??_C@_08OBABFOLI@?$GAstring?8?$AA@ 0000000180074b70     libvcruntime:undname.obj
 0002:00000b80       ??_C@_0BD@JDLKDPAB@?$GAvbase?5destructor?8?$AA@ 0000000180074b80     libvcruntime:undname.obj
 0002:00000b98       ??_C@_0BN@DEGPLNFK@?$GAvector?5deleting?5destructor?8?$AA@ 0000000180074b98     libvcruntime:undname.obj
 0002:00000bb8       ??_C@_0BO@OBMKPJIG@?$GAdefault?5constructor?5closure?8?$AA@ 0000000180074bb8     libvcruntime:undname.obj
 0002:00000bd8       ??_C@_0BN@IMDCHIKM@?$GAscalar?5deleting?5destructor?8?$AA@ 0000000180074bd8     libvcruntime:undname.obj
 0002:00000bf8       ??_C@_0BO@PFGOCPJJ@?$GAvector?5constructor?5iterator?8?$AA@ 0000000180074bf8     libvcruntime:undname.obj
 0002:00000c18       ??_C@_0BN@LFPFMEDL@?$GAvector?5destructor?5iterator?8?$AA@ 0000000180074c18     libvcruntime:undname.obj
 0002:00000c38       ??_C@_0CE@IKBNEHA@?$GAvector?5vbase?5constructor?5iterat@ 0000000180074c38     libvcruntime:undname.obj
 0002:00000c60       ??_C@_0BL@NILFHHPC@?$GAvirtual?5displacement?5map?8?$AA@ 0000000180074c60     libvcruntime:undname.obj
 0002:00000c80       ??_C@_0CB@JONCMFFK@?$GAeh?5vector?5constructor?5iterator?8@ 0000000180074c80     libvcruntime:undname.obj
 0002:00000ca8       ??_C@_0CA@GCEOPDGL@?$GAeh?5vector?5destructor?5iterator?8?$AA@ 0000000180074ca8     libvcruntime:undname.obj
 0002:00000cc8       ??_C@_0CH@OOJPLCPH@?$GAeh?5vector?5vbase?5constructor?5ite@ 0000000180074cc8     libvcruntime:undname.obj
 0002:00000cf0       ??_C@_0BL@LLKPOHJI@?$GAcopy?5constructor?5closure?8?$AA@ 0000000180074cf0     libvcruntime:undname.obj
 0002:00000d10       ??_C@_0BA@KBCDOMBN@?$GAudt?5returning?8?$AA@ 0000000180074d10     libvcruntime:undname.obj
 0002:00000d20       ??_C@_03KLGMFNMG@?$GAEH?$AA@ 0000000180074d20     libvcruntime:undname.obj
 0002:00000d24       ??_C@_05KHLCHHI@?$GARTTI?$AA@ 0000000180074d24     libvcruntime:undname.obj
 0002:00000d30       ??_C@_0BA@KKLDJDLB@?$GAlocal?5vftable?8?$AA@ 0000000180074d30     libvcruntime:undname.obj
 0002:00000d40       ??_C@_0CE@IIHCMGGL@?$GAlocal?5vftable?5constructor?5closu@ 0000000180074d40     libvcruntime:undname.obj
 0002:00000d64       ??_C@_06FHBGPFGH@?5new?$FL?$FN?$AA@ 0000000180074d64     libvcruntime:undname.obj
 0002:00000d70       ??_C@_09LBNFPBCA@?5delete?$FL?$FN?$AA@ 0000000180074d70     libvcruntime:undname.obj
 0002:00000d80       ??_C@_0P@HJKNJFNN@?$GAomni?5callsig?8?$AA@ 0000000180074d80     libvcruntime:undname.obj
 0002:00000d90       ??_C@_0BL@CNOONJFP@?$GAplacement?5delete?5closure?8?$AA@ 0000000180074d90     libvcruntime:undname.obj
 0002:00000db0       ??_C@_0BN@CKNJLHMB@?$GAplacement?5delete?$FL?$FN?5closure?8?$AA@ 0000000180074db0     libvcruntime:undname.obj
 0002:00000dd0       ??_C@_0CG@CFDHKGGD@?$GAmanaged?5vector?5constructor?5iter@ 0000000180074dd0     libvcruntime:undname.obj
 0002:00000df8       ??_C@_0CF@IMGKMJNO@?$GAmanaged?5vector?5destructor?5itera@ 0000000180074df8     libvcruntime:undname.obj
 0002:00000e20       ??_C@_0CG@HLDDJMAG@?$GAeh?5vector?5copy?5constructor?5iter@ 0000000180074e20     libvcruntime:undname.obj
 0002:00000e48       ??_C@_0CM@FCBBDIGB@?$GAeh?5vector?5vbase?5copy?5constructo@ 0000000180074e48     libvcruntime:undname.obj
 0002:00000e78       ??_C@_0BL@CLIPGLGB@?$GAdynamic?5initializer?5for?5?8?$AA@ 0000000180074e78     libvcruntime:undname.obj
 0002:00000e98       ??_C@_0CB@PDBIFEP@?$GAdynamic?5atexit?5destructor?5for?5?8@ 0000000180074e98     libvcruntime:undname.obj
 0002:00000ec0       ??_C@_0CD@CGAJBKEJ@?$GAvector?5copy?5constructor?5iterato@ 0000000180074ec0     libvcruntime:undname.obj
 0002:00000ee8       ??_C@_0CJ@GJELGAMM@?$GAvector?5vbase?5copy?5constructor?5i@ 0000000180074ee8     libvcruntime:undname.obj
 0002:00000f18       ??_C@_0CL@FGIJHLCE@?$GAmanaged?5vector?5copy?5constructor@ 0000000180074f18     libvcruntime:undname.obj
 0002:00000f48       ??_C@_0BM@PMGGMLDN@?$GAlocal?5static?5thread?5guard?8?$AA@ 0000000180074f48     libvcruntime:undname.obj
 0002:00000f68       ??_C@_0N@BDNMDMOL@operator?5?$CC?$CC?5?$AA@ 0000000180074f68     libvcruntime:undname.obj
 0002:00000f78       ??_C@_0BC@DAFEJGAK@?5Type?5Descriptor?8?$AA@ 0000000180074f78     libvcruntime:undname.obj
 0002:00000f90       ??_C@_0BM@LDKODKLH@?5Base?5Class?5Descriptor?5at?5?$CI?$AA@ 0000000180074f90     libvcruntime:undname.obj
 0002:00000fb0       ??_C@_0BD@LGICGFMM@?5Base?5Class?5Array?8?$AA@ 0000000180074fb0     libvcruntime:undname.obj
 0002:00000fc8       ??_C@_0BN@MECKDCOJ@?5Class?5Hierarchy?5Descriptor?8?$AA@ 0000000180074fc8     libvcruntime:undname.obj
 0002:00000fe8       ??_C@_0BK@CFCOFLF@?5Complete?5Object?5Locator?8?$AA@ 0000000180074fe8     libvcruntime:undname.obj
 0002:00001010       ??_C@_1EK@MBDPDCGA@?$AAM?$AAi?$AAc?$AAr?$AAo?$AAs?$AAo?$AAf?$AAt?$AA?5?$AAV?$AAi?$AAs?$AAu?$AAa?$AAl?$AA?5?$AAC?$AA?$CL?$AA?$CL?$AA?5?$AAR?$AAu?$AAn?$AAt?$AAi?$AAm?$AAe?$AA?5?$AAL?$AAi?$AAb@ 0000000180075010     libucrt:assert.obj
 0002:00001060       ??_C@_1FE@LHBLIKM@?$AAA?$AAs?$AAs?$AAe?$AAr?$AAt?$AAi?$AAo?$AAn?$AA?5?$AAf?$AAa?$AAi?$AAl?$AAe?$AAd?$AA?3?$AA?5?$AA?$CF?$AAT?$AAs?$AA?0?$AA?5?$AAf?$AAi?$AAl?$AAe?$AA?5?$AA?$CF?$AAT?$AAs?$AA?0@ 0000000180075060     libucrt:assert.obj
 0002:000010b8       ??_C@_1CE@OJBNHDMO@?$AAA?$AAs?$AAs?$AAe?$AAr?$AAt?$AAi?$AAo?$AAn?$AA?5?$AAf?$AAa?$AAi?$AAl?$AAe?$AAd?$AA?$CB?$AA?$AA@ 00000001800750b8     libucrt:assert.obj
 0002:000010e0       ??_C@_1BE@PHKBBGE@?$AAP?$AAr?$AAo?$AAg?$AAr?$AAa?$AAm?$AA?3?$AA?5?$AA?$AA@ 00000001800750e0     libucrt:assert.obj
 0002:000010f8       ??_C@_1O@HEMHKNDC@?$AAF?$AAi?$AAl?$AAe?$AA?3?$AA?5?$AA?$AA@ 00000001800750f8     libucrt:assert.obj
 0002:00001108       ??_C@_1O@KCAFKHJE@?$AAL?$AAi?$AAn?$AAe?$AA?3?$AA?5?$AA?$AA@ 0000000180075108     libucrt:assert.obj
 0002:00001118       ??_C@_1BK@PEDCIPMA@?$AAE?$AAx?$AAp?$AAr?$AAe?$AAs?$AAs?$AAi?$AAo?$AAn?$AA?3?$AA?5?$AA?$AA@ 0000000180075118     libucrt:assert.obj
 0002:00001140       ??_C@_1OA@EGMLFBHJ@?$AAF?$AAo?$AAr?$AA?5?$AAi?$AAn?$AAf?$AAo?$AAr?$AAm?$AAa?$AAt?$AAi?$AAo?$AAn?$AA?5?$AAo?$AAn?$AA?5?$AAh?$AAo?$AAw?$AA?5?$AAy?$AAo?$AAu?$AAr?$AA?5?$AAp?$AAr?$AAo?$AAg@ 0000000180075140     libucrt:assert.obj
 0002:00001220       ??_C@_1HK@POCJMFGK@?$AA?$CI?$AAP?$AAr?$AAe?$AAs?$AAs?$AA?5?$AAR?$AAe?$AAt?$AAr?$AAy?$AA?5?$AAt?$AAo?$AA?5?$AAd?$AAe?$AAb?$AAu?$AAg?$AA?5?$AAt?$AAh?$AAe?$AA?5?$AAa?$AAp?$AAp?$AAl?$AAi?$AAc@ 0000000180075220     libucrt:assert.obj
 0002:000012a0       ??_C@_17LGKOMLJ@?$AA?4?$AA?4?$AA?4?$AA?$AA@ 00000001800752a0     libucrt:assert.obj
 0002:000012a8       ??_C@_13LBAGMAIH@?$AA?6?$AA?$AA@ 00000001800752a8     libucrt:assert.obj
 0002:000012ac       ??_C@_15IABLJNFO@?$AA?6?$AA?6?$AA?$AA@ 00000001800752ac     libucrt:assert.obj
 0002:000012b8       ??_C@_1CO@EAEJAADC@?$AA?$DM?$AAp?$AAr?$AAo?$AAg?$AAr?$AAa?$AAm?$AA?5?$AAn?$AAa?$AAm?$AAe?$AA?5?$AAu?$AAn?$AAk?$AAn?$AAo?$AAw?$AAn?$AA?$DO?$AA?$AA@ 00000001800752b8     libucrt:assert.obj
 0002:000012f0       standard_lookup_table      00000001800752f0     libucrt:output.obj
 0002:0000134c       ??_C@_06OJHGLDPL@?$CInull?$CJ?$AA@ 000000018007534c     libucrt:output.obj
 0002:00001358       ??_C@_1O@CEDCILHN@?$AA?$CI?$AAn?$AAu?$AAl?$AAl?$AA?$CJ?$AA?$AA@ 0000000180075358     libucrt:output.obj
 0002:000014e0       __acrt_exception_action_table 00000001800754e0     libucrt:exception_filter.obj
 0002:000015a0       __acrt_signal_action_table_count 00000001800755a0     libucrt:exception_filter.obj
 0002:000015a8       __acrt_signal_action_first_fpe_index 00000001800755a8     libucrt:exception_filter.obj
 0002:000015b0       __acrt_signal_action_fpe_count 00000001800755b0     libucrt:exception_filter.obj
 0002:000015b8       ??_C@_1BI@BGOHAHKC@?$AAm?$AAs?$AAc?$AAo?$AAr?$AAe?$AAe?$AA?4?$AAd?$AAl?$AAl?$AA?$AA@ 00000001800755b8     libucrt:exit.obj
 0002:000015d0       ??_C@_0P@MIGLKIOC@CorExitProcess?$AA@ 00000001800755d0     libucrt:exit.obj
 0002:00001770       ??_C@_1EG@CNNIPFIM@?$AAa?$AAp?$AAi?$AA?9?$AAm?$AAs?$AA?9?$AAw?$AAi?$AAn?$AA?9?$AAa?$AAp?$AAp?$AAm?$AAo?$AAd?$AAe?$AAl?$AA?9?$AAr?$AAu?$AAn?$AAt?$AAi?$AAm?$AAe?$AA?9?$AAl?$AA1?$AA?9?$AA1@ 0000000180075770     libucrt:winapi_thunks.obj
 0002:000017c0       ??_C@_1EA@JGEFHKEI@?$AAa?$AAp?$AAi?$AA?9?$AAm?$AAs?$AA?9?$AAw?$AAi?$AAn?$AA?9?$AAc?$AAo?$AAr?$AAe?$AA?9?$AAd?$AAa?$AAt?$AAe?$AAt?$AAi?$AAm?$AAe?$AA?9?$AAl?$AA1?$AA?9?$AA1?$AA?9?$AA1?$AA?$AA@ 00000001800757c0     libucrt:winapi_thunks.obj
 0002:00001800       ??_C@_1DI@GCIAAENM@?$AAa?$AAp?$AAi?$AA?9?$AAm?$AAs?$AA?9?$AAw?$AAi?$AAn?$AA?9?$AAc?$AAo?$AAr?$AAe?$AA?9?$AAf?$AAi?$AAl?$AAe?$AA?9?$AAl?$AA2?$AA?9?$AA1?$AA?9?$AA1?$AA?$AA@ 0000000180075800     libucrt:winapi_thunks.obj
 0002:00001840       ??_C@_1EI@MPIAOHOC@?$AAa?$AAp?$AAi?$AA?9?$AAm?$AAs?$AA?9?$AAw?$AAi?$AAn?$AA?9?$AAc?$AAo?$AAr?$AAe?$AA?9?$AAl?$AAo?$AAc?$AAa?$AAl?$AAi?$AAz?$AAa?$AAt?$AAi?$AAo?$AAn?$AA?9?$AAl?$AA1?$AA?9@ 0000000180075840     libucrt:winapi_thunks.obj
 0002:00001890       ??_C@_1FK@FPHCKFIE@?$AAa?$AAp?$AAi?$AA?9?$AAm?$AAs?$AA?9?$AAw?$AAi?$AAn?$AA?9?$AAc?$AAo?$AAr?$AAe?$AA?9?$AAl?$AAo?$AAc?$AAa?$AAl?$AAi?$AAz?$AAa?$AAt?$AAi?$AAo?$AAn?$AA?9?$AAo?$AAb?$AAs@ 0000000180075890     libucrt:winapi_thunks.obj
 0002:000018f0       ??_C@_1EM@DILCGIIO@?$AAa?$AAp?$AAi?$AA?9?$AAm?$AAs?$AA?9?$AAw?$AAi?$AAn?$AA?9?$AAc?$AAo?$AAr?$AAe?$AA?9?$AAp?$AAr?$AAo?$AAc?$AAe?$AAs?$AAs?$AAt?$AAh?$AAr?$AAe?$AAa?$AAd?$AAs?$AA?9?$AAl@ 00000001800758f0     libucrt:winapi_thunks.obj
 0002:00001940       ??_C@_1DM@LNCGDDPN@?$AAa?$AAp?$AAi?$AA?9?$AAm?$AAs?$AA?9?$AAw?$AAi?$AAn?$AA?9?$AAc?$AAo?$AAr?$AAe?$AA?9?$AAs?$AAt?$AAr?$AAi?$AAn?$AAg?$AA?9?$AAl?$AA1?$AA?9?$AA1?$AA?9?$AA0?$AA?$AA@ 0000000180075940     libucrt:winapi_thunks.obj
 0002:00001980       ??_C@_1DO@FPAPJEMD@?$AAa?$AAp?$AAi?$AA?9?$AAm?$AAs?$AA?9?$AAw?$AAi?$AAn?$AA?9?$AAc?$AAo?$AAr?$AAe?$AA?9?$AAs?$AAy?$AAs?$AAi?$AAn?$AAf?$AAo?$AA?9?$AAl?$AA1?$AA?9?$AA2?$AA?9?$AA1?$AA?$AA@ 0000000180075980     libucrt:winapi_thunks.obj
 0002:000019c0       ??_C@_1DK@NDHNAHIO@?$AAa?$AAp?$AAi?$AA?9?$AAm?$AAs?$AA?9?$AAw?$AAi?$AAn?$AA?9?$AAc?$AAo?$AAr?$AAe?$AA?9?$AAw?$AAi?$AAn?$AAr?$AAt?$AA?9?$AAl?$AA1?$AA?9?$AA1?$AA?9?$AA0?$AA?$AA@ 00000001800759c0     libucrt:winapi_thunks.obj
 0002:00001a00       ??_C@_1DM@KGHDGBCM@?$AAa?$AAp?$AAi?$AA?9?$AAm?$AAs?$AA?9?$AAw?$AAi?$AAn?$AA?9?$AAc?$AAo?$AAr?$AAe?$AA?9?$AAx?$AAs?$AAt?$AAa?$AAt?$AAe?$AA?9?$AAl?$AA2?$AA?9?$AA1?$AA?9?$AA0?$AA?$AA@ 0000000180075a00     libucrt:winapi_thunks.obj
 0002:00001a40       ??_C@_1EO@IJIOEFOH@?$AAa?$AAp?$AAi?$AA?9?$AAm?$AAs?$AA?9?$AAw?$AAi?$AAn?$AA?9?$AAr?$AAt?$AAc?$AAo?$AAr?$AAe?$AA?9?$AAn?$AAt?$AAu?$AAs?$AAe?$AAr?$AA?9?$AAw?$AAi?$AAn?$AAd?$AAo?$AAw?$AA?9@ 0000000180075a40     libucrt:winapi_thunks.obj
 0002:00001a90       ??_C@_1FG@HHGEKANL@?$AAa?$AAp?$AAi?$AA?9?$AAm?$AAs?$AA?9?$AAw?$AAi?$AAn?$AA?9?$AAs?$AAe?$AAc?$AAu?$AAr?$AAi?$AAt?$AAy?$AA?9?$AAs?$AAy?$AAs?$AAt?$AAe?$AAm?$AAf?$AAu?$AAn?$AAc?$AAt?$AAi@ 0000000180075a90     libucrt:winapi_thunks.obj
 0002:00001af0       ??_C@_1FG@NCKKOLKO@?$AAe?$AAx?$AAt?$AA?9?$AAm?$AAs?$AA?9?$AAw?$AAi?$AAn?$AA?9?$AAk?$AAe?$AAr?$AAn?$AAe?$AAl?$AA3?$AA2?$AA?9?$AAp?$AAa?$AAc?$AAk?$AAa?$AAg?$AAe?$AA?9?$AAc?$AAu?$AAr?$AAr@ 0000000180075af0     libucrt:winapi_thunks.obj
 0002:00001b50       ??_C@_1EG@DBIOJECG@?$AAe?$AAx?$AAt?$AA?9?$AAm?$AAs?$AA?9?$AAw?$AAi?$AAn?$AA?9?$AAn?$AAt?$AAu?$AAs?$AAe?$AAr?$AA?9?$AAd?$AAi?$AAa?$AAl?$AAo?$AAg?$AAb?$AAo?$AAx?$AA?9?$AAl?$AA1?$AA?9?$AA1@ 0000000180075b50     libucrt:winapi_thunks.obj
 0002:00001ba0       ??_C@_1EO@FIHMJCLF@?$AAe?$AAx?$AAt?$AA?9?$AAm?$AAs?$AA?9?$AAw?$AAi?$AAn?$AA?9?$AAn?$AAt?$AAu?$AAs?$AAe?$AAr?$AA?9?$AAw?$AAi?$AAn?$AAd?$AAo?$AAw?$AAs?$AAt?$AAa?$AAt?$AAi?$AAo?$AAn?$AA?9@ 0000000180075ba0     libucrt:winapi_thunks.obj
 0002:00001bf0       ??_C@_1O@BCCLBEOE@?$AAu?$AAs?$AAe?$AAr?$AA3?$AA2?$AA?$AA@ 0000000180075bf0     libucrt:winapi_thunks.obj
 0002:00001c28       ??_C@_0BA@HNOPNCHB@GetActiveWindow?$AA@ 0000000180075c28     libucrt:winapi_thunks.obj
 0002:00001c40       ??_C@_0BE@JOGNEJCI@GetCurrentPackageId?$AA@ 0000000180075c40     libucrt:winapi_thunks.obj
 0002:00001c60       ??_C@_0BD@HHGDFDBJ@GetLastActivePopup?$AA@ 0000000180075c60     libucrt:winapi_thunks.obj
 0002:00001c80       ??_C@_0BI@DFKBFLJE@GetProcessWindowStation?$AA@ 0000000180075c80     libucrt:winapi_thunks.obj
 0002:00001ca0       ??_C@_0BK@DEKFELLI@GetUserObjectInformationW?$AA@ 0000000180075ca0     libucrt:winapi_thunks.obj
 0002:00001cd0       ??_C@_0O@KKBNKAPF@LCMapStringEx?$AA@ 0000000180075cd0     libucrt:winapi_thunks.obj
 0002:00001ce8       ??_C@_0BB@HBDEELFH@LocaleNameToLCID?$AA@ 0000000180075ce8     libucrt:winapi_thunks.obj
 0002:00001d08       ??_C@_0M@CHKKJDAI@MessageBoxA?$AA@ 0000000180075d08     libucrt:winapi_thunks.obj
 0002:00001d20       ??_C@_0M@DLDCCGNP@MessageBoxW?$AA@ 0000000180075d20     libucrt:winapi_thunks.obj
 0002:00001d30       __lc_time_c                0000000180075d30     libucrt:nlsdata.obj
 0002:00001ff0       ??_C@_03KOEHGMDN@Sun?$AA@  0000000180075ff0     libucrt:nlsdata.obj
 0002:00001ff4       ??_C@_03PDAGKDH@Mon?$AA@   0000000180075ff4     libucrt:nlsdata.obj
 0002:00001ff8       ??_C@_03NAGEINEP@Tue?$AA@  0000000180075ff8     libucrt:nlsdata.obj
 0002:00001ffc       ??_C@_03MHOMLAJA@Wed?$AA@  0000000180075ffc     libucrt:nlsdata.obj
 0002:00002000       ??_C@_03IOFIKPDN@Thu?$AA@  0000000180076000     libucrt:nlsdata.obj
 0002:00002004       ??_C@_03IDIOELNC@Fri?$AA@  0000000180076004     libucrt:nlsdata.obj
 0002:00002008       ??_C@_03FEFJNEK@Sat?$AA@   0000000180076008     libucrt:nlsdata.obj
 0002:0000200c       ??_C@_06OOPIFAJ@Sunday?$AA@ 000000018007600c     libucrt:nlsdata.obj
 0002:00002014       ??_C@_06JLEDEDGH@Monday?$AA@ 0000000180076014     libucrt:nlsdata.obj
 0002:00002020       ??_C@_07BAAGCFCM@Tuesday?$AA@ 0000000180076020     libucrt:nlsdata.obj
 0002:00002028       ??_C@_09DLIGFAKA@Wednesday?$AA@ 0000000180076028     libucrt:nlsdata.obj
 0002:00002038       ??_C@_08HACCIKIA@Thursday?$AA@ 0000000180076038     libucrt:nlsdata.obj
 0002:00002044       ??_C@_06JECMNKMI@Friday?$AA@ 0000000180076044     libucrt:nlsdata.obj
 0002:00002050       ??_C@_08INBOOONO@Saturday?$AA@ 0000000180076050     libucrt:nlsdata.obj
 0002:0000205c       ??_C@_03JIHJHPIE@Jan?$AA@  000000018007605c     libucrt:nlsdata.obj
 0002:00002060       ??_C@_03HJBDCHOM@Feb?$AA@  0000000180076060     libucrt:nlsdata.obj
 0002:00002064       ??_C@_03ODNJBKGA@Mar?$AA@  0000000180076064     libucrt:nlsdata.obj
 0002:00002068       ??_C@_03LEOLGMJP@Apr?$AA@  0000000180076068     libucrt:nlsdata.obj
 0002:0000206c       ??_C@_03CNMDKL@May?$AA@    000000018007606c     libucrt:nlsdata.obj
 0002:00002070       ??_C@_03IDFGHECI@Jun?$AA@  0000000180076070     libucrt:nlsdata.obj
 0002:00002074       ??_C@_03LBGABGKK@Jul?$AA@  0000000180076074     libucrt:nlsdata.obj
 0002:00002078       ??_C@_03IFJFEIGA@Aug?$AA@  0000000180076078     libucrt:nlsdata.obj
 0002:0000207c       ??_C@_03GGCAPAJC@Sep?$AA@  000000018007607c     libucrt:nlsdata.obj
 0002:00002080       ??_C@_03BMAOKBAD@Oct?$AA@  0000000180076080     libucrt:nlsdata.obj
 0002:00002084       ??_C@_03JPJOFNIA@Nov?$AA@  0000000180076084     libucrt:nlsdata.obj
 0002:00002088       ??_C@_03MKABNOCG@Dec?$AA@  0000000180076088     libucrt:nlsdata.obj
 0002:00002090       ??_C@_07CGJPFGJA@January?$AA@ 0000000180076090     libucrt:nlsdata.obj
 0002:00002098       ??_C@_08GNJGEPFN@February?$AA@ 0000000180076098     libucrt:nlsdata.obj
 0002:000020a4       ??_C@_05HPCKOFNC@March?$AA@ 00000001800760a4     libucrt:nlsdata.obj
 0002:000020ac       ??_C@_05DMJDNLEJ@April?$AA@ 00000001800760ac     libucrt:nlsdata.obj
 0002:000020b4       ??_C@_04CNLMGBGM@June?$AA@ 00000001800760b4     libucrt:nlsdata.obj
 0002:000020bc       ??_C@_04MIEPOIFP@July?$AA@ 00000001800760bc     libucrt:nlsdata.obj
 0002:000020c4       ??_C@_06LBBHFDDG@August?$AA@ 00000001800760c4     libucrt:nlsdata.obj
 0002:000020d0       ??_C@_09BHHEALKD@September?$AA@ 00000001800760d0     libucrt:nlsdata.obj
 0002:000020e0       ??_C@_07JJNFCEND@October?$AA@ 00000001800760e0     libucrt:nlsdata.obj
 0002:000020e8       ??_C@_08HCHEGEOA@November?$AA@ 00000001800760e8     libucrt:nlsdata.obj
 0002:000020f8       ??_C@_08EDHMEBNP@December?$AA@ 00000001800760f8     libucrt:nlsdata.obj
 0002:00002104       ??_C@_02DEDBPAFC@AM?$AA@   0000000180076104     libucrt:nlsdata.obj
 0002:00002108       ??_C@_02CJNFDJBF@PM?$AA@   0000000180076108     libucrt:nlsdata.obj
 0002:00002110       ??_C@_08BPBNCDIB@MM?1dd?1yy?$AA@ 0000000180076110     libucrt:nlsdata.obj
 0002:00002120       ??_C@_0BE@CKGJFCPC@dddd?0?5MMMM?5dd?0?5yyyy?$AA@ 0000000180076120     libucrt:nlsdata.obj
 0002:00002138       ??_C@_08JCCMCCIL@HH?3mm?3ss?$AA@ 0000000180076138     libucrt:nlsdata.obj
 0002:00002148       ??_C@_17MBGCMIPB@?$AAS?$AAu?$AAn?$AA?$AA@ 0000000180076148     libucrt:nlsdata.obj
 0002:00002150       ??_C@_17KBOMKBF@?$AAM?$AAo?$AAn?$AA?$AA@ 0000000180076150     libucrt:nlsdata.obj
 0002:00002158       ??_C@_17BMKGEGOJ@?$AAT?$AAu?$AAe?$AA?$AA@ 0000000180076158     libucrt:nlsdata.obj
 0002:00002160       ??_C@_17CJEDCEPE@?$AAW?$AAe?$AAd?$AA?$AA@ 0000000180076160     libucrt:nlsdata.obj
 0002:00002168       ??_C@_17PDPHAADD@?$AAT?$AAh?$AAu?$AA?$AA@ 0000000180076168     libucrt:nlsdata.obj
 0002:00002170       ??_C@_17HFOLPPLP@?$AAF?$AAr?$AAi?$AA?$AA@ 0000000180076170     libucrt:nlsdata.obj
 0002:00002178       ??_C@_17GGIBDPIH@?$AAS?$AAa?$AAt?$AA?$AA@ 0000000180076178     libucrt:nlsdata.obj
 0002:00002180       ??_C@_1O@IHNHDHPB@?$AAS?$AAu?$AAn?$AAd?$AAa?$AAy?$AA?$AA@ 0000000180076180     libucrt:nlsdata.obj
 0002:00002190       ??_C@_1O@MMNBFLIA@?$AAM?$AAo?$AAn?$AAd?$AAa?$AAy?$AA?$AA@ 0000000180076190     libucrt:nlsdata.obj
 0002:000021a0       ??_C@_1BA@ENFBFFEK@?$AAT?$AAu?$AAe?$AAs?$AAd?$AAa?$AAy?$AA?$AA@ 00000001800761a0     libucrt:nlsdata.obj
 0002:000021b0       ??_C@_1BE@EBOGMDOH@?$AAW?$AAe?$AAd?$AAn?$AAe?$AAs?$AAd?$AAa?$AAy?$AA?$AA@ 00000001800761b0     libucrt:nlsdata.obj
 0002:000021c8       ??_C@_1BC@HHMNLIHE@?$AAT?$AAh?$AAu?$AAr?$AAs?$AAd?$AAa?$AAy?$AA?$AA@ 00000001800761c8     libucrt:nlsdata.obj
 0002:000021e0       ??_C@_1O@PDICJHAG@?$AAF?$AAr?$AAi?$AAd?$AAa?$AAy?$AA?$AA@ 00000001800761e0     libucrt:nlsdata.obj
 0002:000021f0       ??_C@_1BC@ENMNNPAJ@?$AAS?$AAa?$AAt?$AAu?$AAr?$AAd?$AAa?$AAy?$AA?$AA@ 00000001800761f0     libucrt:nlsdata.obj
 0002:00002208       ??_C@_17DKNBKCHM@?$AAJ?$AAa?$AAn?$AA?$AA@ 0000000180076208     libucrt:nlsdata.obj
 0002:00002210       ??_C@_17LMDJEKJN@?$AAF?$AAe?$AAb?$AA?$AA@ 0000000180076210     libucrt:nlsdata.obj
 0002:00002218       ??_C@_17CKNLEDEC@?$AAM?$AAa?$AAr?$AA?$AA@ 0000000180076218     libucrt:nlsdata.obj
 0002:00002220       ??_C@_17LFPOIHDD@?$AAA?$AAp?$AAr?$AA?$AA@ 0000000180076220     libucrt:nlsdata.obj
 0002:00002228       ??_C@_17PNNKMEED@?$AAM?$AAa?$AAy?$AA?$AA@ 0000000180076228     libucrt:nlsdata.obj
 0002:00002230       ??_C@_17KCJGOCPB@?$AAJ?$AAu?$AAn?$AA?$AA@ 0000000180076230     libucrt:nlsdata.obj
 0002:00002238       ??_C@_17IJPCKHK@?$AAJ?$AAu?$AAl?$AA?$AA@ 0000000180076238     libucrt:nlsdata.obj
 0002:00002240       ??_C@_17ICPELBCN@?$AAA?$AAu?$AAg?$AA?$AA@ 0000000180076240     libucrt:nlsdata.obj
 0002:00002248       ??_C@_17HCHCOKMG@?$AAS?$AAe?$AAp?$AA?$AA@ 0000000180076248     libucrt:nlsdata.obj
 0002:00002250       ??_C@_17FNLKOI@?$AAO?$AAc?$AAt?$AA?$AA@ 0000000180076250     libucrt:nlsdata.obj
 0002:00002258       ??_C@_17BBDMLCIG@?$AAN?$AAo?$AAv?$AA?$AA@ 0000000180076258     libucrt:nlsdata.obj
 0002:00002260       ??_C@_17EGKACKIF@?$AAD?$AAe?$AAc?$AA?$AA@ 0000000180076260     libucrt:nlsdata.obj
 0002:00002268       ??_C@_1BA@EFMEIEBA@?$AAJ?$AAa?$AAn?$AAu?$AAa?$AAr?$AAy?$AA?$AA@ 0000000180076268     libucrt:nlsdata.obj
 0002:00002278       ??_C@_1BC@JGDDFFAM@?$AAF?$AAe?$AAb?$AAr?$AAu?$AAa?$AAr?$AAy?$AA?$AA@ 0000000180076278     libucrt:nlsdata.obj
 0002:00002290       ??_C@_1M@IKEENEDF@?$AAM?$AAa?$AAr?$AAc?$AAh?$AA?$AA@ 0000000180076290     libucrt:nlsdata.obj
 0002:000022a0       ??_C@_1M@GJNLMHFD@?$AAA?$AAp?$AAr?$AAi?$AAl?$AA?$AA@ 00000001800762a0     libucrt:nlsdata.obj
 0002:000022b0       ??_C@_19EPFLPGAP@?$AAJ?$AAu?$AAn?$AAe?$AA?$AA@ 00000001800762b0     libucrt:nlsdata.obj
 0002:000022c0       ??_C@_19BIFMLPCD@?$AAJ?$AAu?$AAl?$AAy?$AA?$AA@ 00000001800762c0     libucrt:nlsdata.obj
 0002:000022d0       ??_C@_1O@PAHLKOAC@?$AAA?$AAu?$AAg?$AAu?$AAs?$AAt?$AA?$AA@ 00000001800762d0     libucrt:nlsdata.obj
 0002:000022e0       ??_C@_1BE@DKAAMBJL@?$AAS?$AAe?$AAp?$AAt?$AAe?$AAm?$AAb?$AAe?$AAr?$AA?$AA@ 00000001800762e0     libucrt:nlsdata.obj
 0002:000022f8       ??_C@_1BA@EPANDLNG@?$AAO?$AAc?$AAt?$AAo?$AAb?$AAe?$AAr?$AA?$AA@ 00000001800762f8     libucrt:nlsdata.obj
 0002:00002308       ??_C@_1BC@BGLIFPF@?$AAN?$AAo?$AAv?$AAe?$AAm?$AAb?$AAe?$AAr?$AA?$AA@ 0000000180076308     libucrt:nlsdata.obj
 0002:00002320       ??_C@_1BC@FEMKIFH@?$AAD?$AAe?$AAc?$AAe?$AAm?$AAb?$AAe?$AAr?$AA?$AA@ 0000000180076320     libucrt:nlsdata.obj
 0002:00002334       ??_C@_15ODEHAHHF@?$AAA?$AAM?$AA?$AA@ 0000000180076334     libucrt:nlsdata.obj
 0002:0000233c       ??_C@_15CLMNNGEL@?$AAP?$AAM?$AA?$AA@ 000000018007633c     libucrt:nlsdata.obj
 0002:00002348       ??_C@_1BC@IEBCMHCM@?$AAM?$AAM?$AA?1?$AAd?$AAd?$AA?1?$AAy?$AAy?$AA?$AA@ 0000000180076348     libucrt:nlsdata.obj
 0002:00002360       ??_C@_1CI@KNAKOEBC@?$AAd?$AAd?$AAd?$AAd?$AA?0?$AA?5?$AAM?$AAM?$AAM?$AAM?$AA?5?$AAd?$AAd?$AA?0?$AA?5?$AAy?$AAy?$AAy?$AAy?$AA?$AA@ 0000000180076360     libucrt:nlsdata.obj
 0002:00002388       ??_C@_1BC@GDGBMEMK@?$AAH?$AAH?$AA?3?$AAm?$AAm?$AA?3?$AAs?$AAs?$AA?$AA@ 0000000180076388     libucrt:nlsdata.obj
 0002:000023a0       ??_C@_1M@BMHNFIME@?$AAe?$AAn?$AA?9?$AAU?$AAS?$AA?$AA@ 00000001800763a0     libucrt:nlsdata.obj
 0002:000023ac       ??_C@_03OEIAHPBN@INF?$AA@  00000001800763ac     libucrt:cvt.obj
 0002:000023b0       ??_C@_03OJHLLCGB@inf?$AA@  00000001800763b0     libucrt:cvt.obj
 0002:000023b4       ??_C@_03LKNCIKJB@NAN?$AA@  00000001800763b4     libucrt:cvt.obj
 0002:000023b8       ??_C@_03LHCJEHON@nan?$AA@  00000001800763b8     libucrt:cvt.obj
 0002:000023c0       ??_C@_09OFJJIMPC@NAN?$CISNAN?$CJ?$AA@ 00000001800763c0     libucrt:cvt.obj
 0002:000023d0       ??_C@_09IPFBKMDL@nan?$CIsnan?$CJ?$AA@ 00000001800763d0     libucrt:cvt.obj
 0002:000023e0       ??_C@_08IKHNHAJ@NAN?$CIIND?$CJ?$AA@ 00000001800763e0     libucrt:cvt.obj
 0002:000023f0       ??_C@_08OFCDMILK@nan?$CIind?$CJ?$AA@ 00000001800763f0     libucrt:cvt.obj
 0002:000023fc       ??_C@_05KLBDPFGC@e?$CL000?$AA@ 00000001800763fc     libucrt:cvt.obj
 0002:00002410       __newctype                 0000000180076410     libucrt:ctype.obj
 0002:00002710       __newclmap                 0000000180076710     libucrt:ctype.obj
 0002:00002890       __newcumap                 0000000180076890     libucrt:ctype.obj
 0002:00002a10       _wctype                    0000000180076a10     libucrt:ctype.obj
 0002:00002c38       ??_C@_1M@HPNHIDJI@?$AAj?$AAa?$AA?9?$AAJ?$AAP?$AA?$AA@ 0000000180076c38     libucrt:mbctype.obj
 0002:00002c48       ??_C@_1M@BIBDDEMK@?$AAz?$AAh?$AA?9?$AAC?$AAN?$AA?$AA@ 0000000180076c48     libucrt:mbctype.obj
 0002:00002c58       ??_C@_1M@JLOOOEGK@?$AAk?$AAo?$AA?9?$AAK?$AAR?$AA?$AA@ 0000000180076c58     libucrt:mbctype.obj
 0002:00002c68       ??_C@_1M@CLNBBOPM@?$AAz?$AAh?$AA?9?$AAT?$AAW?$AA?$AA@ 0000000180076c68     libucrt:mbctype.obj
 0002:00003ac0       ??_C@_15EMKDOKLE@?$AAa?$AAr?$AA?$AA@ 0000000180077ac0     libucrt:lcidtoname_downlevel.obj
 0002:00003ac8       ??_C@_15KNPADPLH@?$AAb?$AAg?$AA?$AA@ 0000000180077ac8     libucrt:lcidtoname_downlevel.obj
 0002:00003ad0       ??_C@_15EDMHLDMO@?$AAc?$AAa?$AA?$AA@ 0000000180077ad0     libucrt:lcidtoname_downlevel.obj
 0002:00003ad8       ??_C@_1O@BPEAJADD@?$AAz?$AAh?$AA?9?$AAC?$AAH?$AAS?$AA?$AA@ 0000000180077ad8     libucrt:lcidtoname_downlevel.obj
 0002:00003ae8       ??_C@_15LJNHCMNK@?$AAc?$AAs?$AA?$AA@ 0000000180077ae8     libucrt:lcidtoname_downlevel.obj
 0002:00003af0       ??_C@_15FOMCIDHG@?$AAd?$AAa?$AA?$AA@ 0000000180077af0     libucrt:lcidtoname_downlevel.obj
 0002:00003af8       ??_C@_15NBKABECB@?$AAd?$AAe?$AA?$AA@ 0000000180077af8     libucrt:lcidtoname_downlevel.obj
 0002:00003b00       ??_C@_15GHPEIIAO@?$AAe?$AAl?$AA?$AA@ 0000000180077b00     libucrt:lcidtoname_downlevel.obj
 0002:00003b08       ??_C@_15MNPNEAIF@?$AAe?$AAn?$AA?$AA@ 0000000180077b08     libucrt:lcidtoname_downlevel.obj
 0002:00003b10       ??_C@_15GPIOMPMH@?$AAe?$AAs?$AA?$AA@ 0000000180077b10     libucrt:lcidtoname_downlevel.obj
 0002:00003b18       ??_C@_15NGLOAKJC@?$AAf?$AAi?$AA?$AA@ 0000000180077b18     libucrt:lcidtoname_downlevel.obj
 0002:00003b20       ??_C@_15FBKGNKAM@?$AAf?$AAr?$AA?$AA@ 0000000180077b20     libucrt:lcidtoname_downlevel.obj
 0002:00003b28       ??_C@_15KGGCNEFK@?$AAh?$AAe?$AA?$AA@ 0000000180077b28     libucrt:lcidtoname_downlevel.obj
 0002:00003b30       ??_C@_15PGHLIDMF@?$AAh?$AAu?$AA?$AA@ 0000000180077b30     libucrt:lcidtoname_downlevel.obj
 0002:00003b38       ??_C@_15BIEMAPLM@?$AAi?$AAs?$AA?$AA@ 0000000180077b38     libucrt:lcidtoname_downlevel.obj
 0002:00003b40       ??_C@_15IFJLDHAF@?$AAi?$AAt?$AA?$AA@ 0000000180077b40     libucrt:lcidtoname_downlevel.obj
 0002:00003b48       ??_C@_15GEMIOCAG@?$AAj?$AAa?$AA?$AA@ 0000000180077b48     libucrt:lcidtoname_downlevel.obj
 0002:00003b50       ??_C@_15EPELEGJA@?$AAk?$AAo?$AA?$AA@ 0000000180077b50     libucrt:lcidtoname_downlevel.obj
 0002:00003b58       ??_C@_15NDDHIMN@?$AAn?$AAl?$AA?$AA@ 0000000180077b58     libucrt:lcidtoname_downlevel.obj
 0002:00003b60       ??_C@_15BPIGNHCD@?$AAn?$AAo?$AA?$AA@ 0000000180077b60     libucrt:lcidtoname_downlevel.obj
 0002:00003b68       ??_C@_15DEOPBLCG@?$AAp?$AAl?$AA?$AA@ 0000000180077b68     libucrt:lcidtoname_downlevel.obj
 0002:00003b70       ??_C@_15KBECGEFG@?$AAp?$AAt?$AA?$AA@ 0000000180077b70     libucrt:lcidtoname_downlevel.obj
 0002:00003b78       ??_C@_15GLJCBFMD@?$AAr?$AAo?$AA?$AA@ 0000000180077b78     libucrt:lcidtoname_downlevel.obj
 0002:00003b80       ??_C@_15FEDGKCDI@?$AAr?$AAu?$AA?$AA@ 0000000180077b80     libucrt:lcidtoname_downlevel.obj
 0002:00003b88       ??_C@_15GLKMLLHM@?$AAh?$AAr?$AA?$AA@ 0000000180077b88     libucrt:lcidtoname_downlevel.obj
 0002:00003b90       ??_C@_15CPKMFBDB@?$AAs?$AAk?$AA?$AA@ 0000000180077b90     libucrt:lcidtoname_downlevel.obj
 0002:00003b98       ??_C@_15BAAIOGMK@?$AAs?$AAq?$AA?$AA@ 0000000180077b98     libucrt:lcidtoname_downlevel.obj
 0002:00003ba0       ??_C@_15INNPNOHD@?$AAs?$AAv?$AA?$AA@ 0000000180077ba0     libucrt:lcidtoname_downlevel.obj
 0002:00003ba8       ??_C@_15CABMMOGH@?$AAt?$AAh?$AA?$AA@ 0000000180077ba8     libucrt:lcidtoname_downlevel.obj
 0002:00003bb0       ??_C@_15BPLIHJJM@?$AAt?$AAr?$AA?$AA@ 0000000180077bb0     libucrt:lcidtoname_downlevel.obj
 0002:00003bb8       ??_C@_15NEOEKKDJ@?$AAu?$AAr?$AA?$AA@ 0000000180077bb8     libucrt:lcidtoname_downlevel.obj
 0002:00003bc0       ??_C@_15NFICGAJK@?$AAi?$AAd?$AA?$AA@ 0000000180077bc0     libucrt:lcidtoname_downlevel.obj
 0002:00003bc8       ??_C@_15PJPFLCCM@?$AAu?$AAk?$AA?$AA@ 0000000180077bc8     libucrt:lcidtoname_downlevel.obj
 0002:00003bd0       ??_C@_15HPJPHDM@?$AAb?$AAe?$AA?$AA@ 0000000180077bd0     libucrt:lcidtoname_downlevel.obj
 0002:00003bd8       ??_C@_15LCHLGJII@?$AAs?$AAl?$AA?$AA@ 0000000180077bd8     libucrt:lcidtoname_downlevel.obj
 0002:00003be0       ??_C@_15PCFJPHHO@?$AAe?$AAt?$AA?$AA@ 0000000180077be0     libucrt:lcidtoname_downlevel.obj
 0002:00003be8       ??_C@_15HPFPGODN@?$AAl?$AAv?$AA?$AA@ 0000000180077be8     libucrt:lcidtoname_downlevel.obj
 0002:00003bf0       ??_C@_15NFFGKGLG@?$AAl?$AAt?$AA?$AA@ 0000000180077bf0     libucrt:lcidtoname_downlevel.obj
 0002:00003bf8       ??_C@_15BDAKCCHN@?$AAf?$AAa?$AA?$AA@ 0000000180077bf8     libucrt:lcidtoname_downlevel.obj
 0002:00003c00       ??_C@_15NFGIAIAJ@?$AAv?$AAi?$AA?$AA@ 0000000180077c00     libucrt:lcidtoname_downlevel.obj
 0002:00003c08       ??_C@_15LMKNDMHN@?$AAh?$AAy?$AA?$AA@ 0000000180077c08     libucrt:lcidtoname_downlevel.obj
 0002:00003c10       ??_C@_15IJBHMCFL@?$AAa?$AAz?$AA?$AA@ 0000000180077c10     libucrt:lcidtoname_downlevel.obj
 0002:00003c18       ??_C@_15EKOFJABL@?$AAe?$AAu?$AA?$AA@ 0000000180077c18     libucrt:lcidtoname_downlevel.obj
 0002:00003c20       ??_C@_15BGHADCNK@?$AAm?$AAk?$AA?$AA@ 0000000180077c20     libucrt:lcidtoname_downlevel.obj
 0002:00003c28       ??_C@_15JDNICKHM@?$AAa?$AAf?$AA?$AA@ 0000000180077c28     libucrt:lcidtoname_downlevel.obj
 0002:00003c30       ??_C@_15KPJEDBKD@?$AAk?$AAa?$AA?$AA@ 0000000180077c30     libucrt:lcidtoname_downlevel.obj
 0002:00003c38       ??_C@_15PDNFFFEO@?$AAf?$AAo?$AA?$AA@ 0000000180077c38     libucrt:lcidtoname_downlevel.obj
 0002:00003c40       ??_C@_15OMLEGLOC@?$AAh?$AAi?$AA?$AA@ 0000000180077c40     libucrt:lcidtoname_downlevel.obj
 0002:00003c48       ??_C@_15IDNNENKK@?$AAm?$AAs?$AA?$AA@ 0000000180077c48     libucrt:lcidtoname_downlevel.obj
 0002:00003c50       ??_C@_15MACJNBMH@?$AAk?$AAk?$AA?$AA@ 0000000180077c50     libucrt:lcidtoname_downlevel.obj
 0002:00003c58       ??_C@_15DKDJEOND@?$AAk?$AAy?$AA?$AA@ 0000000180077c58     libucrt:lcidtoname_downlevel.obj
 0002:00003c60       ??_C@_15DFGDLJBG@?$AAs?$AAw?$AA?$AA@ 0000000180077c60     libucrt:lcidtoname_downlevel.obj
 0002:00003c68       ??_C@_15BBFAICNG@?$AAu?$AAz?$AA?$AA@ 0000000180077c68     libucrt:lcidtoname_downlevel.obj
 0002:00003c70       ??_C@_15DKNDCGEA@?$AAt?$AAt?$AA?$AA@ 0000000180077c70     libucrt:lcidtoname_downlevel.obj
 0002:00003c78       ??_C@_15MGIFMDPL@?$AAp?$AAa?$AA?$AA@ 0000000180077c78     libucrt:lcidtoname_downlevel.obj
 0002:00003c80       ??_C@_15HCNDBBA@?$AAg?$AAu?$AA?$AA@ 0000000180077c80     libucrt:lcidtoname_downlevel.obj
 0002:00003c88       ??_C@_15FNBEIBON@?$AAt?$AAa?$AA?$AA@ 0000000180077c88     libucrt:lcidtoname_downlevel.obj
 0002:00003c90       ??_C@_15NCHGBGLK@?$AAt?$AAe?$AA?$AA@ 0000000180077c90     libucrt:lcidtoname_downlevel.obj
 0002:00003c98       ??_C@_15PHPHCBPF@?$AAk?$AAn?$AA?$AA@ 0000000180077c98     libucrt:lcidtoname_downlevel.obj
 0002:00003ca0       ??_C@_15DLGBCKMP@?$AAm?$AAr?$AA?$AA@ 0000000180077ca0     libucrt:lcidtoname_downlevel.obj
 0002:00003ca8       ??_C@_15EABBLBFF@?$AAs?$AAa?$AA?$AA@ 0000000180077ca8     libucrt:lcidtoname_downlevel.obj
 0002:00003cb0       ??_C@_15CBKOMCOI@?$AAm?$AAn?$AA?$AA@ 0000000180077cb0     libucrt:lcidtoname_downlevel.obj
 0002:00003cb8       ??_C@_15CKDMCJAF@?$AAg?$AAl?$AA?$AA@ 0000000180077cb8     libucrt:lcidtoname_downlevel.obj
 0002:00003cc0       ??_C@_17CNJFBPG@?$AAk?$AAo?$AAk?$AA?$AA@ 0000000180077cc0     libucrt:lcidtoname_downlevel.obj
 0002:00003cc8       ??_C@_17FFBJICPL@?$AAs?$AAy?$AAr?$AA?$AA@ 0000000180077cc8     libucrt:lcidtoname_downlevel.obj
 0002:00003cd0       ??_C@_17KPNDCPAF@?$AAd?$AAi?$AAv?$AA?$AA@ 0000000180077cd0     libucrt:lcidtoname_downlevel.obj
 0002:00003cd8       ??_C@_11LOCGONAA@?$AA?$AA@ 0000000180077cd8     libucrt:lcidtoname_downlevel.obj
 0002:00003ce0       ??_C@_1M@OKAHONE@?$AAa?$AAr?$AA?9?$AAS?$AAA?$AA?$AA@ 0000000180077ce0     libucrt:lcidtoname_downlevel.obj
 0002:00003cf0       ??_C@_1M@FFFIGIGK@?$AAb?$AAg?$AA?9?$AAB?$AAG?$AA?$AA@ 0000000180077cf0     libucrt:lcidtoname_downlevel.obj
 0002:00003d00       ??_C@_1M@BJNKEDC@?$AAc?$AAa?$AA?9?$AAE?$AAS?$AA?$AA@ 0000000180077d00     libucrt:lcidtoname_downlevel.obj
 0002:00003d10       ??_C@_1M@IJJHFJHA@?$AAc?$AAs?$AA?9?$AAC?$AAZ?$AA?$AA@ 0000000180077d10     libucrt:lcidtoname_downlevel.obj
 0002:00003d20       ??_C@_1M@CLPEOBGI@?$AAd?$AAa?$AA?9?$AAD?$AAK?$AA?$AA@ 0000000180077d20     libucrt:lcidtoname_downlevel.obj
 0002:00003d30       ??_C@_1M@MCMADGCB@?$AAd?$AAe?$AA?9?$AAD?$AAE?$AA?$AA@ 0000000180077d30     libucrt:lcidtoname_downlevel.obj
 0002:00003d40       ??_C@_1M@OOCKEMAM@?$AAe?$AAl?$AA?9?$AAG?$AAR?$AA?$AA@ 0000000180077d40     libucrt:lcidtoname_downlevel.obj
 0002:00003d50       ??_C@_1M@DDNJFGID@?$AAf?$AAi?$AA?9?$AAF?$AAI?$AA?$AA@ 0000000180077d50     libucrt:lcidtoname_downlevel.obj
 0002:00003d60       ??_C@_1M@GLIPPMAC@?$AAf?$AAr?$AA?9?$AAF?$AAR?$AA?$AA@ 0000000180077d60     libucrt:lcidtoname_downlevel.obj
 0002:00003d70       ??_C@_1M@GFMCHPE@?$AAh?$AAe?$AA?9?$AAI?$AAL?$AA?$AA@ 0000000180077d70     libucrt:lcidtoname_downlevel.obj
 0002:00003d80       ??_C@_1M@MHLPGNKM@?$AAh?$AAu?$AA?9?$AAH?$AAU?$AA?$AA@ 0000000180077d80     libucrt:lcidtoname_downlevel.obj
 0002:00003d90       ??_C@_1M@LPDDNNPN@?$AAi?$AAs?$AA?9?$AAI?$AAS?$AA?$AA@ 0000000180077d90     libucrt:lcidtoname_downlevel.obj
 0002:00003da0       ??_C@_1M@MADIPODN@?$AAi?$AAt?$AA?9?$AAI?$AAT?$AA?$AA@ 0000000180077da0     libucrt:lcidtoname_downlevel.obj
 0002:00003db0       ??_C@_1M@IHBJJGG@?$AAn?$AAl?$AA?9?$AAN?$AAL?$AA?$AA@ 0000000180077db0     libucrt:lcidtoname_downlevel.obj
 0002:00003dc0       ??_C@_1M@EANAGDL@?$AAn?$AAb?$AA?9?$AAN?$AAO?$AA?$AA@ 0000000180077dc0     libucrt:lcidtoname_downlevel.obj
 0002:00003dd0       ??_C@_1M@NEIEMEGP@?$AAp?$AAl?$AA?9?$AAP?$AAL?$AA?$AA@ 0000000180077dd0     libucrt:lcidtoname_downlevel.obj
 0002:00003de0       ??_C@_1M@BOCFIGEP@?$AAp?$AAt?$AA?9?$AAB?$AAR?$AA?$AA@ 0000000180077de0     libucrt:lcidtoname_downlevel.obj
 0002:00003df0       ??_C@_1M@IMPFOPBG@?$AAr?$AAo?$AA?9?$AAR?$AAO?$AA?$AA@ 0000000180077df0     libucrt:lcidtoname_downlevel.obj
 0002:00003e00       ??_C@_1M@IDNNEJMM@?$AAr?$AAu?$AA?9?$AAR?$AAU?$AA?$AA@ 0000000180077e00     libucrt:lcidtoname_downlevel.obj
 0002:00003e10       ??_C@_1M@LILEEOGM@?$AAh?$AAr?$AA?9?$AAH?$AAR?$AA?$AA@ 0000000180077e10     libucrt:lcidtoname_downlevel.obj
 0002:00003e20       ??_C@_1M@FKIFEHPB@?$AAs?$AAk?$AA?9?$AAS?$AAK?$AA?$AA@ 0000000180077e20     libucrt:lcidtoname_downlevel.obj
 0002:00003e30       ??_C@_1M@LJMAMNPJ@?$AAs?$AAq?$AA?9?$AAA?$AAL?$AA?$AA@ 0000000180077e30     libucrt:lcidtoname_downlevel.obj
 0002:00003e40       ??_C@_1M@GIAKDKJK@?$AAs?$AAv?$AA?9?$AAS?$AAE?$AA?$AA@ 0000000180077e40     libucrt:lcidtoname_downlevel.obj
 0002:00003e50       ??_C@_1M@MKJKIKCL@?$AAt?$AAh?$AA?9?$AAT?$AAH?$AA?$AA@ 0000000180077e50     libucrt:lcidtoname_downlevel.obj
 0002:00003e60       ??_C@_1M@MFLCCMPB@?$AAt?$AAr?$AA?9?$AAT?$AAR?$AA?$AA@ 0000000180077e60     libucrt:lcidtoname_downlevel.obj
 0002:00003e70       ??_C@_1M@OIJHDKJN@?$AAu?$AAr?$AA?9?$AAP?$AAK?$AA?$AA@ 0000000180077e70     libucrt:lcidtoname_downlevel.obj
 0002:00003e80       ??_C@_1M@LHIPCIEK@?$AAi?$AAd?$AA?9?$AAI?$AAD?$AA?$AA@ 0000000180077e80     libucrt:lcidtoname_downlevel.obj
 0002:00003e90       ??_C@_1M@MFMOBGI@?$AAu?$AAk?$AA?9?$AAU?$AAA?$AA?$AA@ 0000000180077e90     libucrt:lcidtoname_downlevel.obj
 0002:00003ea0       ??_C@_1M@OBGLJIPL@?$AAb?$AAe?$AA?9?$AAB?$AAY?$AA?$AA@ 0000000180077ea0     libucrt:lcidtoname_downlevel.obj
 0002:00003eb0       ??_C@_1M@BCFAJEAD@?$AAs?$AAl?$AA?9?$AAS?$AAI?$AA?$AA@ 0000000180077eb0     libucrt:lcidtoname_downlevel.obj
 0002:00003ec0       ??_C@_1M@FKFFEDDN@?$AAe?$AAt?$AA?9?$AAE?$AAE?$AA?$AA@ 0000000180077ec0     libucrt:lcidtoname_downlevel.obj
 0002:00003ed0       ??_C@_1M@KGKKAACI@?$AAl?$AAv?$AA?9?$AAL?$AAV?$AA?$AA@ 0000000180077ed0     libucrt:lcidtoname_downlevel.obj
 0002:00003ee0       ??_C@_1M@IFGBIJO@?$AAl?$AAt?$AA?9?$AAL?$AAT?$AA?$AA@ 0000000180077ee0     libucrt:lcidtoname_downlevel.obj
 0002:00003ef0       ??_C@_1M@FGEAHEDM@?$AAf?$AAa?$AA?9?$AAI?$AAR?$AA?$AA@ 0000000180077ef0     libucrt:lcidtoname_downlevel.obj
 0002:00003f00       ??_C@_1M@KBMAIBFN@?$AAv?$AAi?$AA?9?$AAV?$AAN?$AA?$AA@ 0000000180077f00     libucrt:lcidtoname_downlevel.obj
 0002:00003f10       ??_C@_1M@GPCBKDJK@?$AAh?$AAy?$AA?9?$AAA?$AAM?$AA?$AA@ 0000000180077f10     libucrt:lcidtoname_downlevel.obj
 0002:00003f20       ??_C@_1BG@BECMDDJB@?$AAa?$AAz?$AA?9?$AAA?$AAZ?$AA?9?$AAL?$AAa?$AAt?$AAn?$AA?$AA@ 0000000180077f20     libucrt:lcidtoname_downlevel.obj
 0002:00003f38       ??_C@_1M@MAOFCAEA@?$AAe?$AAu?$AA?9?$AAE?$AAS?$AA?$AA@ 0000000180077f38     libucrt:lcidtoname_downlevel.obj
 0002:00003f48       ??_C@_1M@IGHABKPI@?$AAm?$AAk?$AA?9?$AAM?$AAK?$AA?$AA@ 0000000180077f48     libucrt:lcidtoname_downlevel.obj
 0002:00003f58       ??_C@_1M@IAIGNEJG@?$AAt?$AAn?$AA?9?$AAZ?$AAA?$AA?$AA@ 0000000180077f58     libucrt:lcidtoname_downlevel.obj
 0002:00003f68       ??_C@_1M@IIJCOJFA@?$AAx?$AAh?$AA?9?$AAZ?$AAA?$AA?$AA@ 0000000180077f68     libucrt:lcidtoname_downlevel.obj
 0002:00003f78       ??_C@_1M@LGPJHNJH@?$AAz?$AAu?$AA?9?$AAZ?$AAA?$AA?$AA@ 0000000180077f78     libucrt:lcidtoname_downlevel.obj
 0002:00003f88       ??_C@_1M@HOKAOIO@?$AAa?$AAf?$AA?9?$AAZ?$AAA?$AA?$AA@ 0000000180077f88     libucrt:lcidtoname_downlevel.obj
 0002:00003f98       ??_C@_1M@DPCLHLIE@?$AAk?$AAa?$AA?9?$AAG?$AAE?$AA?$AA@ 0000000180077f98     libucrt:lcidtoname_downlevel.obj
 0002:00003fa8       ??_C@_1M@BLKMHJBI@?$AAf?$AAo?$AA?9?$AAF?$AAO?$AA?$AA@ 0000000180077fa8     libucrt:lcidtoname_downlevel.obj
 0002:00003fb8       ??_C@_1M@LGGJAPPB@?$AAh?$AAi?$AA?9?$AAI?$AAN?$AA?$AA@ 0000000180077fb8     libucrt:lcidtoname_downlevel.obj
 0002:00003fc8       ??_C@_1M@FIKPIHFE@?$AAm?$AAt?$AA?9?$AAM?$AAT?$AA?$AA@ 0000000180077fc8     libucrt:lcidtoname_downlevel.obj
 0002:00003fd8       ??_C@_1M@HEGGPBFA@?$AAs?$AAe?$AA?9?$AAN?$AAO?$AA?$AA@ 0000000180077fd8     libucrt:lcidtoname_downlevel.obj
 0002:00003fe8       ??_C@_1M@EIBJEEPA@?$AAm?$AAs?$AA?9?$AAM?$AAY?$AA?$AA@ 0000000180077fe8     libucrt:lcidtoname_downlevel.obj
 0002:00003ff8       ??_C@_1M@FHLBGMPP@?$AAk?$AAk?$AA?9?$AAK?$AAZ?$AA?$AA@ 0000000180077ff8     libucrt:lcidtoname_downlevel.obj
 0002:00004008       ??_C@_1M@NGJJLCGI@?$AAk?$AAy?$AA?9?$AAK?$AAG?$AA?$AA@ 0000000180078008     libucrt:lcidtoname_downlevel.obj
 0002:00004018       ??_C@_1M@GIENNBFC@?$AAs?$AAw?$AA?9?$AAK?$AAE?$AA?$AA@ 0000000180078018     libucrt:lcidtoname_downlevel.obj
 0002:00004028       ??_C@_1BG@NDGMJIMJ@?$AAu?$AAz?$AA?9?$AAU?$AAZ?$AA?9?$AAL?$AAa?$AAt?$AAn?$AA?$AA@ 0000000180078028     libucrt:lcidtoname_downlevel.obj
 0002:00004040       ??_C@_1M@IDCCIHBC@?$AAt?$AAt?$AA?9?$AAR?$AAU?$AA?$AA@ 0000000180078040     libucrt:lcidtoname_downlevel.obj
 0002:00004050       ??_C@_1M@LOICPMOJ@?$AAb?$AAn?$AA?9?$AAI?$AAN?$AA?$AA@ 0000000180078050     libucrt:lcidtoname_downlevel.obj
 0002:00004060       ??_C@_1M@KPKKNEAH@?$AAp?$AAa?$AA?9?$AAI?$AAN?$AA?$AA@ 0000000180078060     libucrt:lcidtoname_downlevel.obj
 0002:00004070       ??_C@_1M@PJGPPBOG@?$AAg?$AAu?$AA?9?$AAI?$AAN?$AA?$AA@ 0000000180078070     libucrt:lcidtoname_downlevel.obj
 0002:00004080       ??_C@_1M@KMKMOPHI@?$AAt?$AAa?$AA?9?$AAI?$AAN?$AA?$AA@ 0000000180078080     libucrt:lcidtoname_downlevel.obj
 0002:00004090       ??_C@_1M@KFEHEPAC@?$AAt?$AAe?$AA?9?$AAI?$AAN?$AA?$AA@ 0000000180078090     libucrt:lcidtoname_downlevel.obj
 0002:000040a0       ??_C@_1M@CDCLMGHI@?$AAk?$AAn?$AA?9?$AAI?$AAN?$AA?$AA@ 00000001800780a0     libucrt:lcidtoname_downlevel.obj
 0002:000040b0       ??_C@_1M@MIODLDKF@?$AAm?$AAl?$AA?9?$AAI?$AAN?$AA?$AA@ 00000001800780b0     libucrt:lcidtoname_downlevel.obj
 0002:000040c0       ??_C@_1M@PBIEACPO@?$AAm?$AAr?$AA?9?$AAI?$AAN?$AA?$AA@ 00000001800780c0     libucrt:lcidtoname_downlevel.obj
 0002:000040d0       ??_C@_1M@NIDEAGPH@?$AAs?$AAa?$AA?9?$AAI?$AAN?$AA?$AA@ 00000001800780d0     libucrt:lcidtoname_downlevel.obj
 0002:000040e0       ??_C@_1M@FHIHCBIO@?$AAm?$AAn?$AA?9?$AAM?$AAN?$AA?$AA@ 00000001800780e0     libucrt:lcidtoname_downlevel.obj
 0002:000040f0       ??_C@_1M@JAIJPENP@?$AAc?$AAy?$AA?9?$AAG?$AAB?$AA?$AA@ 00000001800780f0     libucrt:lcidtoname_downlevel.obj
 0002:00004100       ??_C@_1M@PHGFBEPN@?$AAg?$AAl?$AA?9?$AAE?$AAS?$AA?$AA@ 0000000180078100     libucrt:lcidtoname_downlevel.obj
 0002:00004110       ??_C@_1O@KPIPDNCP@?$AAk?$AAo?$AAk?$AA?9?$AAI?$AAN?$AA?$AA@ 0000000180078110     libucrt:lcidtoname_downlevel.obj
 0002:00004120       ??_C@_1O@KNHJLDJA@?$AAs?$AAy?$AAr?$AA?9?$AAS?$AAY?$AA?$AA@ 0000000180078120     libucrt:lcidtoname_downlevel.obj
 0002:00004130       ??_C@_1O@MKEKBLAH@?$AAd?$AAi?$AAv?$AA?9?$AAM?$AAV?$AA?$AA@ 0000000180078130     libucrt:lcidtoname_downlevel.obj
 0002:00004140       ??_C@_1O@OHDCKDDF@?$AAq?$AAu?$AAz?$AA?9?$AAB?$AAO?$AA?$AA@ 0000000180078140     libucrt:lcidtoname_downlevel.obj
 0002:00004150       ??_C@_1M@LEPJNLFD@?$AAn?$AAs?$AA?9?$AAZ?$AAA?$AA?$AA@ 0000000180078150     libucrt:lcidtoname_downlevel.obj
 0002:00004160       ??_C@_1M@OMLEIIJB@?$AAm?$AAi?$AA?9?$AAN?$AAZ?$AA?$AA@ 0000000180078160     libucrt:lcidtoname_downlevel.obj
 0002:00004170       ??_C@_1M@PMPEAILG@?$AAa?$AAr?$AA?9?$AAI?$AAQ?$AA?$AA@ 0000000180078170     libucrt:lcidtoname_downlevel.obj
 0002:00004180       ??_C@_1M@CNKPNOEE@?$AAd?$AAe?$AA?9?$AAC?$AAH?$AA?$AA@ 0000000180078180     libucrt:lcidtoname_downlevel.obj
 0002:00004190       ??_C@_1M@LKMGMLKO@?$AAe?$AAn?$AA?9?$AAG?$AAB?$AA?$AA@ 0000000180078190     libucrt:lcidtoname_downlevel.obj
 0002:000041a0       ??_C@_1M@PGKJFFGL@?$AAe?$AAs?$AA?9?$AAM?$AAX?$AA?$AA@ 00000001800781a0     libucrt:lcidtoname_downlevel.obj
 0002:000041b0       ??_C@_1M@DNNANBDC@?$AAf?$AAr?$AA?9?$AAB?$AAE?$AA?$AA@ 00000001800781b0     libucrt:lcidtoname_downlevel.obj
 0002:000041c0       ??_C@_1M@HLGMDFHM@?$AAi?$AAt?$AA?9?$AAC?$AAH?$AA?$AA@ 00000001800781c0     libucrt:lcidtoname_downlevel.obj
 0002:000041d0       ??_C@_1M@CLLBGJH@?$AAn?$AAl?$AA?9?$AAB?$AAE?$AA?$AA@ 00000001800781d0     libucrt:lcidtoname_downlevel.obj
 0002:000041e0       ??_C@_1M@BODBOGLF@?$AAn?$AAn?$AA?9?$AAN?$AAO?$AA?$AA@ 00000001800781e0     libucrt:lcidtoname_downlevel.obj
 0002:000041f0       ??_C@_1M@HFFAHKAD@?$AAp?$AAt?$AA?9?$AAP?$AAT?$AA?$AA@ 00000001800781f0     libucrt:lcidtoname_downlevel.obj
 0002:00004200       ??_C@_1BG@LNOAKHIE@?$AAs?$AAr?$AA?9?$AAS?$AAP?$AA?9?$AAL?$AAa?$AAt?$AAn?$AA?$AA@ 0000000180078200     libucrt:lcidtoname_downlevel.obj
 0002:00004218       ??_C@_1M@HBMHBGAK@?$AAs?$AAv?$AA?9?$AAF?$AAI?$AA?$AA@ 0000000180078218     libucrt:lcidtoname_downlevel.obj
 0002:00004228       ??_C@_1BG@DGCJGJBE@?$AAa?$AAz?$AA?9?$AAA?$AAZ?$AA?9?$AAC?$AAy?$AAr?$AAl?$AA?$AA@ 0000000180078228     libucrt:lcidtoname_downlevel.obj
 0002:00004240       ??_C@_1M@KEJDAAHB@?$AAs?$AAe?$AA?9?$AAS?$AAE?$AA?$AA@ 0000000180078240     libucrt:lcidtoname_downlevel.obj
 0002:00004250       ??_C@_1M@HEIBJJAD@?$AAm?$AAs?$AA?9?$AAB?$AAN?$AA?$AA@ 0000000180078250     libucrt:lcidtoname_downlevel.obj
 0002:00004260       ??_C@_1BG@PBGJMCEM@?$AAu?$AAz?$AA?9?$AAU?$AAZ?$AA?9?$AAC?$AAy?$AAr?$AAl?$AA?$AA@ 0000000180078260     libucrt:lcidtoname_downlevel.obj
 0002:00004278       ??_C@_1O@LAOBCMDF@?$AAq?$AAu?$AAz?$AA?9?$AAE?$AAC?$AA?$AA@ 0000000180078278     libucrt:lcidtoname_downlevel.obj
 0002:00004288       ??_C@_1M@POEEMAIO@?$AAa?$AAr?$AA?9?$AAE?$AAG?$AA?$AA@ 0000000180078288     libucrt:lcidtoname_downlevel.obj
 0002:00004298       ??_C@_1M@EFAKDEDL@?$AAz?$AAh?$AA?9?$AAH?$AAK?$AA?$AA@ 0000000180078298     libucrt:lcidtoname_downlevel.obj
 0002:000042a8       ??_C@_1M@HKKIJHGI@?$AAd?$AAe?$AA?9?$AAA?$AAT?$AA?$AA@ 00000001800782a8     libucrt:lcidtoname_downlevel.obj
 0002:000042b8       ??_C@_1M@KBFBEHJF@?$AAe?$AAn?$AA?9?$AAA?$AAU?$AA?$AA@ 00000001800782b8     libucrt:lcidtoname_downlevel.obj
 0002:000042c8       ??_C@_1M@MNPLFAAH@?$AAe?$AAs?$AA?9?$AAE?$AAS?$AA?$AA@ 00000001800782c8     libucrt:lcidtoname_downlevel.obj
 0002:000042d8       ??_C@_1M@HJOOJFMA@?$AAf?$AAr?$AA?9?$AAC?$AAA?$AA?$AA@ 00000001800782d8     libucrt:lcidtoname_downlevel.obj
 0002:000042e8       ??_C@_1BG@JPOFPNAB@?$AAs?$AAr?$AA?9?$AAS?$AAP?$AA?9?$AAC?$AAy?$AAr?$AAl?$AA?$AA@ 00000001800782e8     libucrt:lcidtoname_downlevel.obj
 0002:00004300       ??_C@_1M@LNFOCMOB@?$AAs?$AAe?$AA?9?$AAF?$AAI?$AA?$AA@ 0000000180078300     libucrt:lcidtoname_downlevel.obj
 0002:00004310       ??_C@_1O@MGJBOAMB@?$AAq?$AAu?$AAz?$AA?9?$AAP?$AAE?$AA?$AA@ 0000000180078310     libucrt:lcidtoname_downlevel.obj
 0002:00004320       ??_C@_1M@GJINLBOK@?$AAa?$AAr?$AA?9?$AAL?$AAY?$AA?$AA@ 0000000180078320     libucrt:lcidtoname_downlevel.obj
 0002:00004330       ??_C@_1M@GGMNHJNL@?$AAz?$AAh?$AA?9?$AAS?$AAG?$AA?$AA@ 0000000180078330     libucrt:lcidtoname_downlevel.obj
 0002:00004340       ??_C@_1M@HOIKODND@?$AAd?$AAe?$AA?9?$AAL?$AAU?$AA?$AA@ 0000000180078340     libucrt:lcidtoname_downlevel.obj
 0002:00004350       ??_C@_1M@DDOCCGFG@?$AAe?$AAn?$AA?9?$AAC?$AAA?$AA?$AA@ 0000000180078350     libucrt:lcidtoname_downlevel.obj
 0002:00004360       ??_C@_1M@BNOEMJLF@?$AAe?$AAs?$AA?9?$AAG?$AAT?$AA?$AA@ 0000000180078360     libucrt:lcidtoname_downlevel.obj
 0002:00004370       ??_C@_1M@EOGNKEK@?$AAf?$AAr?$AA?9?$AAC?$AAH?$AA?$AA@ 0000000180078370     libucrt:lcidtoname_downlevel.obj
 0002:00004380       ??_C@_1M@FLIDJFHL@?$AAh?$AAr?$AA?9?$AAB?$AAA?$AA?$AA@ 0000000180078380     libucrt:lcidtoname_downlevel.obj
 0002:00004390       ??_C@_1O@FMCELNAJ@?$AAs?$AAm?$AAj?$AA?9?$AAN?$AAO?$AA?$AA@ 0000000180078390     libucrt:lcidtoname_downlevel.obj
 0002:000043a0       ??_C@_1M@JHGLJMGJ@?$AAa?$AAr?$AA?9?$AAD?$AAZ?$AA?$AA@ 00000001800783a0     libucrt:lcidtoname_downlevel.obj
 0002:000043b0       ??_C@_1M@JKKFDCNP@?$AAz?$AAh?$AA?9?$AAM?$AAO?$AA?$AA@ 00000001800783b0     libucrt:lcidtoname_downlevel.obj
 0002:000043c0       ??_C@_1M@GEEFALPE@?$AAd?$AAe?$AA?9?$AAL?$AAI?$AA?$AA@ 00000001800783c0     libucrt:lcidtoname_downlevel.obj
 0002:000043d0       ??_C@_1M@IGEOFBG@?$AAe?$AAn?$AA?9?$AAN?$AAZ?$AA?$AA@ 00000001800783d0     libucrt:lcidtoname_downlevel.obj
 0002:000043e0       ??_C@_1M@KDBONEHP@?$AAe?$AAs?$AA?9?$AAC?$AAR?$AA?$AA@ 00000001800783e0     libucrt:lcidtoname_downlevel.obj
 0002:000043f0       ??_C@_1M@FHMDOHNN@?$AAf?$AAr?$AA?9?$AAL?$AAU?$AA?$AA@ 00000001800783f0     libucrt:lcidtoname_downlevel.obj
 0002:00004400       ??_C@_1BG@NFKKMAFG@?$AAb?$AAs?$AA?9?$AAB?$AAA?$AA?9?$AAL?$AAa?$AAt?$AAn?$AA?$AA@ 0000000180078400     libucrt:lcidtoname_downlevel.obj
 0002:00004418       ??_C@_1O@IMNBEMCI@?$AAs?$AAm?$AAj?$AA?9?$AAS?$AAE?$AA?$AA@ 0000000180078418     libucrt:lcidtoname_downlevel.obj
 0002:00004428       ??_C@_1M@DHHMBNDP@?$AAa?$AAr?$AA?9?$AAM?$AAA?$AA?$AA@ 0000000180078428     libucrt:lcidtoname_downlevel.obj
 0002:00004438       ??_C@_1M@BNBLJCGH@?$AAe?$AAn?$AA?9?$AAI?$AAE?$AA?$AA@ 0000000180078438     libucrt:lcidtoname_downlevel.obj
 0002:00004448       ??_C@_1M@GEPAFMDL@?$AAe?$AAs?$AA?9?$AAP?$AAA?$AA?$AA@ 0000000180078448     libucrt:lcidtoname_downlevel.obj
 0002:00004458       ??_C@_1M@OJONDMDL@?$AAf?$AAr?$AA?9?$AAM?$AAC?$AA?$AA@ 0000000180078458     libucrt:lcidtoname_downlevel.obj
 0002:00004468       ??_C@_1BG@OBCNFJB@?$AAs?$AAr?$AA?9?$AAB?$AAA?$AA?9?$AAL?$AAa?$AAt?$AAn?$AA?$AA@ 0000000180078468     libucrt:lcidtoname_downlevel.obj
 0002:00004480       ??_C@_1O@KEMEEGPO@?$AAs?$AAm?$AAa?$AA?9?$AAN?$AAO?$AA?$AA@ 0000000180078480     libucrt:lcidtoname_downlevel.obj
 0002:00004490       ??_C@_1M@ELMGFODK@?$AAa?$AAr?$AA?9?$AAT?$AAN?$AA?$AA@ 0000000180078490     libucrt:lcidtoname_downlevel.obj
 0002:000044a0       ??_C@_1M@BHDLHFAF@?$AAe?$AAn?$AA?9?$AAZ?$AAA?$AA?$AA@ 00000001800784a0     libucrt:lcidtoname_downlevel.obj
